Archive member included to satisfy reference by file (symbol)

/opt/devkitpro/devkitARM/bin/../lib/gcc/arm-none-eabi/14.2.0/thumb/libgcc.a(_call_via_rX.o)
                              mm_main_gba.o (_call_via_r1)
/opt/devkitpro/devkitARM/bin/../lib/gcc/arm-none-eabi/14.2.0/thumb/libgcc.a(_sync_none.o)
                              (__sync_synchronize_none)

Discarded input sections

 .text          0x00000000        0x0 /opt/devkitpro/devkitARM/bin/../lib/gcc/arm-none-eabi/14.2.0/../../../../arm-none-eabi/lib/thumb/gba_crt0.o
 .data          0x00000000        0x0 /opt/devkitpro/devkitARM/bin/../lib/gcc/arm-none-eabi/14.2.0/../../../../arm-none-eabi/lib/thumb/gba_crt0.o
 .bss           0x00000000        0x0 /opt/devkitpro/devkitARM/bin/../lib/gcc/arm-none-eabi/14.2.0/../../../../arm-none-eabi/lib/thumb/gba_crt0.o
 .text          0x00000000        0x0 /opt/devkitpro/devkitARM/bin/../lib/gcc/arm-none-eabi/14.2.0/thumb/crti.o
 .data          0x00000000        0x0 /opt/devkitpro/devkitARM/bin/../lib/gcc/arm-none-eabi/14.2.0/thumb/crti.o
 .bss           0x00000000        0x0 /opt/devkitpro/devkitARM/bin/../lib/gcc/arm-none-eabi/14.2.0/thumb/crti.o
 .text          0x00000000        0x0 /opt/devkitpro/devkitARM/bin/../lib/gcc/arm-none-eabi/14.2.0/thumb/crtbegin.o
 .data          0x00000000        0x0 /opt/devkitpro/devkitARM/bin/../lib/gcc/arm-none-eabi/14.2.0/thumb/crtbegin.o
 .bss           0x00000000        0x0 /opt/devkitpro/devkitARM/bin/../lib/gcc/arm-none-eabi/14.2.0/thumb/crtbegin.o
 .rodata.all_implied_fbits
                0x00000000       0x24 /opt/devkitpro/devkitARM/bin/../lib/gcc/arm-none-eabi/14.2.0/thumb/crtbegin.o
 .text          0x00000000        0x0 _bn_audio_soundbank.bin.o
 .data          0x00000000        0x0 _bn_audio_soundbank.bin.o
 .bss           0x00000000        0x0 _bn_audio_soundbank.bin.o
 .text          0x00000000        0x0 big_font_bn_gfx.o
 .data          0x00000000        0x0 big_font_bn_gfx.o
 .bss           0x00000000        0x0 big_font_bn_gfx.o
 .text          0x00000000        0x0 boss_intro_bn_gfx.o
 .data          0x00000000        0x0 boss_intro_bn_gfx.o
 .bss           0x00000000        0x0 boss_intro_bn_gfx.o
 .text          0x00000000        0x0 brightness_bn_gfx.o
 .data          0x00000000        0x0 brightness_bn_gfx.o
 .bss           0x00000000        0x0 brightness_bn_gfx.o
 .text          0x00000000        0x0 butano_background_bn_gfx.o
 .data          0x00000000        0x0 butano_background_bn_gfx.o
 .bss           0x00000000        0x0 butano_background_bn_gfx.o
 .text          0x00000000        0x0 butano_big_silhouette_bn_gfx.o
 .data          0x00000000        0x0 butano_big_silhouette_bn_gfx.o
 .bss           0x00000000        0x0 butano_big_silhouette_bn_gfx.o
 .text          0x00000000        0x0 butano_big_sprite_bn_gfx.o
 .data          0x00000000        0x0 butano_big_sprite_bn_gfx.o
 .bss           0x00000000        0x0 butano_big_sprite_bn_gfx.o
 .text          0x00000000        0x0 butano_fire_bn_gfx.o
 .data          0x00000000        0x0 butano_fire_bn_gfx.o
 .bss           0x00000000        0x0 butano_fire_bn_gfx.o
 .text          0x00000000        0x0 butano_flash_palette_bn_gfx.o
 .data          0x00000000        0x0 butano_flash_palette_bn_gfx.o
 .bss           0x00000000        0x0 butano_flash_palette_bn_gfx.o
 .text          0x00000000        0x0 butano_font_bn_gfx.o
 .data          0x00000000        0x0 butano_font_bn_gfx.o
 .bss           0x00000000        0x0 butano_font_bn_gfx.o
 .text          0x00000000        0x0 butano_huge_bn_gfx.o
 .data          0x00000000        0x0 butano_huge_bn_gfx.o
 .bss           0x00000000        0x0 butano_huge_bn_gfx.o
 .text          0x00000000        0x0 clouds_bn_gfx.o
 .data          0x00000000        0x0 clouds_bn_gfx.o
 .bss           0x00000000        0x0 clouds_bn_gfx.o
 .text          0x00000000        0x0 enemy_bullets_bn_gfx.o
 .data          0x00000000        0x0 enemy_bullets_bn_gfx.o
 .bss           0x00000000        0x0 enemy_bullets_bn_gfx.o
 .text          0x00000000        0x0 enemy_explosion_bn_gfx.o
 .data          0x00000000        0x0 enemy_explosion_bn_gfx.o
 .bss           0x00000000        0x0 enemy_explosion_bn_gfx.o
 .text          0x00000000        0x0 experience_bar_bn_gfx.o
 .data          0x00000000        0x0 experience_bar_bn_gfx.o
 .bss           0x00000000        0x0 experience_bar_bn_gfx.o
 .text          0x00000000        0x0 experience_frame_back_bn_gfx.o
 .data          0x00000000        0x0 experience_frame_back_bn_gfx.o
 .bss           0x00000000        0x0 experience_frame_back_bn_gfx.o
 .text          0x00000000        0x0 experience_frame_front_bn_gfx.o
 .data          0x00000000        0x0 experience_frame_front_bn_gfx.o
 .bss           0x00000000        0x0 experience_frame_front_bn_gfx.o
 .text          0x00000000        0x0 fighter_font_bn_gfx.o
 .data          0x00000000        0x0 fighter_font_bn_gfx.o
 .bss           0x00000000        0x0 fighter_font_bn_gfx.o
 .text          0x00000000        0x0 flash_palette_bn_gfx.o
 .data          0x00000000        0x0 flash_palette_bn_gfx.o
 .bss           0x00000000        0x0 flash_palette_bn_gfx.o
 .text          0x00000000        0x0 gem_bn_gfx.o
 .data          0x00000000        0x0 gem_bn_gfx.o
 .bss           0x00000000        0x0 gem_bn_gfx.o
 .text          0x00000000        0x0 gigabat_bn_gfx.o
 .data          0x00000000        0x0 gigabat_bn_gfx.o
 .bss           0x00000000        0x0 gigabat_bn_gfx.o
 .text          0x00000000        0x0 gigabat_shadow_bn_gfx.o
 .data          0x00000000        0x0 gigabat_shadow_bn_gfx.o
 .bss           0x00000000        0x0 gigabat_shadow_bn_gfx.o
 .text          0x00000000        0x0 hero_body_flying_bn_gfx.o
 .data          0x00000000        0x0 hero_body_flying_bn_gfx.o
 .bss           0x00000000        0x0 hero_body_flying_bn_gfx.o
 .text          0x00000000        0x0 hero_body_walking_bn_gfx.o
 .data          0x00000000        0x0 hero_body_walking_bn_gfx.o
 .bss           0x00000000        0x0 hero_body_walking_bn_gfx.o
 .text          0x00000000        0x0 hero_bomb_bn_gfx.o
 .data          0x00000000        0x0 hero_bomb_bn_gfx.o
 .bss           0x00000000        0x0 hero_bomb_bn_gfx.o
 .text          0x00000000        0x0 hero_bomb_icon_bn_gfx.o
 .data          0x00000000        0x0 hero_bomb_icon_bn_gfx.o
 .bss           0x00000000        0x0 hero_bomb_icon_bn_gfx.o
 .text          0x00000000        0x0 hero_bomb_mini_bn_gfx.o
 .data          0x00000000        0x0 hero_bomb_mini_bn_gfx.o
 .bss           0x00000000        0x0 hero_bomb_mini_bn_gfx.o
 .text          0x00000000        0x0 hero_bullets_bn_gfx.o
 .data          0x00000000        0x0 hero_bullets_bn_gfx.o
 .bss           0x00000000        0x0 hero_bullets_bn_gfx.o
 .text          0x00000000        0x0 hero_death_bn_gfx.o
 .data          0x00000000        0x0 hero_death_bn_gfx.o
 .bss           0x00000000        0x0 hero_death_bn_gfx.o
 .text          0x00000000        0x0 hero_head_bn_gfx.o
 .data          0x00000000        0x0 hero_head_bn_gfx.o
 .bss           0x00000000        0x0 hero_head_bn_gfx.o
 .text          0x00000000        0x0 hero_shield_bn_gfx.o
 .data          0x00000000        0x0 hero_shield_bn_gfx.o
 .bss           0x00000000        0x0 hero_shield_bn_gfx.o
 .text          0x00000000        0x0 hero_weapon_big_2_bn_gfx.o
 .data          0x00000000        0x0 hero_weapon_big_2_bn_gfx.o
 .bss           0x00000000        0x0 hero_weapon_big_2_bn_gfx.o
 .text          0x00000000        0x0 hero_weapon_big_3_bn_gfx.o
 .data          0x00000000        0x0 hero_weapon_big_3_bn_gfx.o
 .bss           0x00000000        0x0 hero_weapon_big_3_bn_gfx.o
 .text          0x00000000        0x0 hero_weapon_big_4_bn_gfx.o
 .data          0x00000000        0x0 hero_weapon_big_4_bn_gfx.o
 .bss           0x00000000        0x0 hero_weapon_big_4_bn_gfx.o
 .text          0x00000000        0x0 hero_weapon_big_5_bn_gfx.o
 .data          0x00000000        0x0 hero_weapon_big_5_bn_gfx.o
 .bss           0x00000000        0x0 hero_weapon_big_5_bn_gfx.o
 .text          0x00000000        0x0 hero_weapon_big_6_bn_gfx.o
 .data          0x00000000        0x0 hero_weapon_big_6_bn_gfx.o
 .bss           0x00000000        0x0 hero_weapon_big_6_bn_gfx.o
 .text          0x00000000        0x0 hero_weapon_big_7_bn_gfx.o
 .data          0x00000000        0x0 hero_weapon_big_7_bn_gfx.o
 .bss           0x00000000        0x0 hero_weapon_big_7_bn_gfx.o
 .text          0x00000000        0x0 hero_weapon_big_8_bn_gfx.o
 .data          0x00000000        0x0 hero_weapon_big_8_bn_gfx.o
 .bss           0x00000000        0x0 hero_weapon_big_8_bn_gfx.o
 .text          0x00000000        0x0 hero_weapon_big_9_bn_gfx.o
 .data          0x00000000        0x0 hero_weapon_big_9_bn_gfx.o
 .bss           0x00000000        0x0 hero_weapon_big_9_bn_gfx.o
 .text          0x00000000        0x0 hero_weapons_bn_gfx.o
 .data          0x00000000        0x0 hero_weapons_bn_gfx.o
 .bss           0x00000000        0x0 hero_weapons_bn_gfx.o
 .text          0x00000000        0x0 mini_explosion_2_bn_gfx.o
 .data          0x00000000        0x0 mini_explosion_2_bn_gfx.o
 .bss           0x00000000        0x0 mini_explosion_2_bn_gfx.o
 .text          0x00000000        0x0 mini_explosion_bn_gfx.o
 .data          0x00000000        0x0 mini_explosion_bn_gfx.o
 .bss           0x00000000        0x0 mini_explosion_bn_gfx.o
 .text          0x00000000        0x0 mountain_clouds_bn_gfx.o
 .data          0x00000000        0x0 mountain_clouds_bn_gfx.o
 .bss           0x00000000        0x0 mountain_clouds_bn_gfx.o
 .text          0x00000000        0x0 object_messages_bn_gfx.o
 .data          0x00000000        0x0 object_messages_bn_gfx.o
 .bss           0x00000000        0x0 object_messages_bn_gfx.o
 .text          0x00000000        0x0 pause_bn_gfx.o
 .data          0x00000000        0x0 pause_bn_gfx.o
 .bss           0x00000000        0x0 pause_bn_gfx.o
 .text          0x00000000        0x0 small_font_bn_gfx.o
 .data          0x00000000        0x0 small_font_bn_gfx.o
 .bss           0x00000000        0x0 small_font_bn_gfx.o
 .text          0x00000000        0x0 stage_1_animals_bn_gfx.o
 .data          0x00000000        0x0 stage_1_animals_bn_gfx.o
 .bss           0x00000000        0x0 stage_1_animals_bn_gfx.o
 .text          0x00000000        0x0 stage_1_bn_gfx.o
 .data          0x00000000        0x0 stage_1_bn_gfx.o
 .bss           0x00000000        0x0 stage_1_bn_gfx.o
 .text          0x00000000        0x0 stage_1_characters_1_bn_gfx.o
 .data          0x00000000        0x0 stage_1_characters_1_bn_gfx.o
 .bss           0x00000000        0x0 stage_1_characters_1_bn_gfx.o
 .text          0x00000000        0x0 stage_1_characters_1_team_bn_gfx.o
 .data          0x00000000        0x0 stage_1_characters_1_team_bn_gfx.o
 .bss           0x00000000        0x0 stage_1_characters_1_team_bn_gfx.o
 .text          0x00000000        0x0 stage_1_characters_2_bn_gfx.o
 .data          0x00000000        0x0 stage_1_characters_2_bn_gfx.o
 .bss           0x00000000        0x0 stage_1_characters_2_bn_gfx.o
 .text          0x00000000        0x0 stage_1_intro_alt_bn_gfx.o
 .data          0x00000000        0x0 stage_1_intro_alt_bn_gfx.o
 .bss           0x00000000        0x0 stage_1_intro_alt_bn_gfx.o
 .text          0x00000000        0x0 stage_1_intro_bn_gfx.o
 .data          0x00000000        0x0 stage_1_intro_bn_gfx.o
 .bss           0x00000000        0x0 stage_1_intro_bn_gfx.o
 .text          0x00000000        0x0 stage_1_monsters_1_bn_gfx.o
 .data          0x00000000        0x0 stage_1_monsters_1_bn_gfx.o
 .bss           0x00000000        0x0 stage_1_monsters_1_bn_gfx.o
 .text          0x00000000        0x0 stage_1_monsters_2_bn_gfx.o
 .data          0x00000000        0x0 stage_1_monsters_2_bn_gfx.o
 .bss           0x00000000        0x0 stage_1_monsters_2_bn_gfx.o
 .text          0x00000000        0x0 stage_2_bn_gfx.o
 .data          0x00000000        0x0 stage_2_bn_gfx.o
 .bss           0x00000000        0x0 stage_2_bn_gfx.o
 .text          0x00000000        0x0 stage_2_characters_1_bn_gfx.o
 .data          0x00000000        0x0 stage_2_characters_1_bn_gfx.o
 .bss           0x00000000        0x0 stage_2_characters_1_bn_gfx.o
 .text          0x00000000        0x0 stage_2_characters_2_bn_gfx.o
 .data          0x00000000        0x0 stage_2_characters_2_bn_gfx.o
 .bss           0x00000000        0x0 stage_2_characters_2_bn_gfx.o
 .text          0x00000000        0x0 stage_2_intro_alt_bn_gfx.o
 .data          0x00000000        0x0 stage_2_intro_alt_bn_gfx.o
 .bss           0x00000000        0x0 stage_2_intro_alt_bn_gfx.o
 .text          0x00000000        0x0 stage_2_intro_bn_gfx.o
 .data          0x00000000        0x0 stage_2_intro_bn_gfx.o
 .bss           0x00000000        0x0 stage_2_intro_bn_gfx.o
 .text          0x00000000        0x0 stage_2_monsters_1_bn_gfx.o
 .data          0x00000000        0x0 stage_2_monsters_1_bn_gfx.o
 .bss           0x00000000        0x0 stage_2_monsters_1_bn_gfx.o
 .text          0x00000000        0x0 stage_2_monsters_2_bn_gfx.o
 .data          0x00000000        0x0 stage_2_monsters_2_bn_gfx.o
 .bss           0x00000000        0x0 stage_2_monsters_2_bn_gfx.o
 .text          0x00000000        0x0 stage_2_robot_bn_gfx.o
 .data          0x00000000        0x0 stage_2_robot_bn_gfx.o
 .bss           0x00000000        0x0 stage_2_robot_bn_gfx.o
 .text          0x00000000        0x0 stage_3_blonde_bn_gfx.o
 .data          0x00000000        0x0 stage_3_blonde_bn_gfx.o
 .bss           0x00000000        0x0 stage_3_blonde_bn_gfx.o
 .text          0x00000000        0x0 stage_3_bn_gfx.o
 .data          0x00000000        0x0 stage_3_bn_gfx.o
 .bss           0x00000000        0x0 stage_3_bn_gfx.o
 .text          0x00000000        0x0 stage_3_characters_1_bn_gfx.o
 .data          0x00000000        0x0 stage_3_characters_1_bn_gfx.o
 .bss           0x00000000        0x0 stage_3_characters_1_bn_gfx.o
 .text          0x00000000        0x0 stage_3_characters_2_bn_gfx.o
 .data          0x00000000        0x0 stage_3_characters_2_bn_gfx.o
 .bss           0x00000000        0x0 stage_3_characters_2_bn_gfx.o
 .text          0x00000000        0x0 stage_3_dragon_man_bn_gfx.o
 .data          0x00000000        0x0 stage_3_dragon_man_bn_gfx.o
 .bss           0x00000000        0x0 stage_3_dragon_man_bn_gfx.o
 .text          0x00000000        0x0 stage_3_intro_alt_bn_gfx.o
 .data          0x00000000        0x0 stage_3_intro_alt_bn_gfx.o
 .bss           0x00000000        0x0 stage_3_intro_alt_bn_gfx.o
 .text          0x00000000        0x0 stage_3_intro_bn_gfx.o
 .data          0x00000000        0x0 stage_3_intro_bn_gfx.o
 .bss           0x00000000        0x0 stage_3_intro_bn_gfx.o
 .text          0x00000000        0x0 stage_3_monsters_1_bn_gfx.o
 .data          0x00000000        0x0 stage_3_monsters_1_bn_gfx.o
 .bss           0x00000000        0x0 stage_3_monsters_1_bn_gfx.o
 .text          0x00000000        0x0 stage_3_monsters_2_bn_gfx.o
 .data          0x00000000        0x0 stage_3_monsters_2_bn_gfx.o
 .bss           0x00000000        0x0 stage_3_monsters_2_bn_gfx.o
 .text          0x00000000        0x0 stage_4_bn_gfx.o
 .data          0x00000000        0x0 stage_4_bn_gfx.o
 .bss           0x00000000        0x0 stage_4_bn_gfx.o
 .text          0x00000000        0x0 stage_4_brain_bn_gfx.o
 .data          0x00000000        0x0 stage_4_brain_bn_gfx.o
 .bss           0x00000000        0x0 stage_4_brain_bn_gfx.o
 .text          0x00000000        0x0 stage_4_enemies_1_bn_gfx.o
 .data          0x00000000        0x0 stage_4_enemies_1_bn_gfx.o
 .bss           0x00000000        0x0 stage_4_enemies_1_bn_gfx.o
 .text          0x00000000        0x0 stage_4_enemies_2_bn_gfx.o
 .data          0x00000000        0x0 stage_4_enemies_2_bn_gfx.o
 .bss           0x00000000        0x0 stage_4_enemies_2_bn_gfx.o
 .text          0x00000000        0x0 stage_4_enemies_3_1_bn_gfx.o
 .data          0x00000000        0x0 stage_4_enemies_3_1_bn_gfx.o
 .bss           0x00000000        0x0 stage_4_enemies_3_1_bn_gfx.o
 .text          0x00000000        0x0 stage_4_enemies_3_2_bn_gfx.o
 .data          0x00000000        0x0 stage_4_enemies_3_2_bn_gfx.o
 .bss           0x00000000        0x0 stage_4_enemies_3_2_bn_gfx.o
 .text          0x00000000        0x0 stage_4_enemies_4_bn_gfx.o
 .data          0x00000000        0x0 stage_4_enemies_4_bn_gfx.o
 .bss           0x00000000        0x0 stage_4_enemies_4_bn_gfx.o
 .text          0x00000000        0x0 stage_4_intro_alt_bn_gfx.o
 .data          0x00000000        0x0 stage_4_intro_alt_bn_gfx.o
 .bss           0x00000000        0x0 stage_4_intro_alt_bn_gfx.o
 .text          0x00000000        0x0 stage_4_intro_bn_gfx.o
 .data          0x00000000        0x0 stage_4_intro_bn_gfx.o
 .bss           0x00000000        0x0 stage_4_intro_bn_gfx.o
 .text          0x00000000        0x0 stage_4_meteors_big_bn_gfx.o
 .data          0x00000000        0x0 stage_4_meteors_big_bn_gfx.o
 .bss           0x00000000        0x0 stage_4_meteors_big_bn_gfx.o
 .text          0x00000000        0x0 stage_4_meteors_small_bn_gfx.o
 .data          0x00000000        0x0 stage_4_meteors_small_bn_gfx.o
 .bss           0x00000000        0x0 stage_4_meteors_small_bn_gfx.o
 .text          0x00000000        0x0 stage_4_octopus_bn_gfx.o
 .data          0x00000000        0x0 stage_4_octopus_bn_gfx.o
 .bss           0x00000000        0x0 stage_4_octopus_bn_gfx.o
 .text          0x00000000        0x0 stars_bn_gfx.o
 .data          0x00000000        0x0 stars_bn_gfx.o
 .bss           0x00000000        0x0 stars_bn_gfx.o
 .text          0x00000000        0x0 tank_base_bn_gfx.o
 .data          0x00000000        0x0 tank_base_bn_gfx.o
 .bss           0x00000000        0x0 tank_base_bn_gfx.o
 .text          0x00000000        0x0 tank_cannon_bn_gfx.o
 .data          0x00000000        0x0 tank_cannon_bn_gfx.o
 .bss           0x00000000        0x0 tank_cannon_bn_gfx.o
 .text          0x00000000        0x0 tank_extras_bn_gfx.o
 .data          0x00000000        0x0 tank_extras_bn_gfx.o
 .bss           0x00000000        0x0 tank_extras_bn_gfx.o
 .text          0x00000000        0x0 tank_jelly_bn_gfx.o
 .data          0x00000000        0x0 tank_jelly_bn_gfx.o
 .bss           0x00000000        0x0 tank_jelly_bn_gfx.o
 .text          0x00000000        0x0 wizard_aura_bn_gfx.o
 .data          0x00000000        0x0 wizard_aura_bn_gfx.o
 .bss           0x00000000        0x0 wizard_aura_bn_gfx.o
 .text          0x00000000        0x0 wizard_bn_gfx.o
 .data          0x00000000        0x0 wizard_bn_gfx.o
 .bss           0x00000000        0x0 wizard_bn_gfx.o
 .data          0x00000000        0x0 /tmp/ccwxil6c.ltrans0.ltrans.o
 .bss           0x00000000        0x0 /tmp/ccwxil6c.ltrans0.ltrans.o
 .data          0x00000000        0x0 /tmp/ccwxil6c.ltrans1.ltrans.o
 .bss           0x00000000        0x0 /tmp/ccwxil6c.ltrans1.ltrans.o
 .data          0x00000000        0x0 /tmp/ccwxil6c.ltrans2.ltrans.o
 .bss           0x00000000        0x0 /tmp/ccwxil6c.ltrans2.ltrans.o
 .data          0x00000000        0x0 /tmp/ccwxil6c.ltrans3.ltrans.o
 .bss           0x00000000        0x0 /tmp/ccwxil6c.ltrans3.ltrans.o
 .data          0x00000000        0x0 /tmp/ccwxil6c.ltrans4.ltrans.o
 .data          0x00000000        0x0 /tmp/ccwxil6c.ltrans5.ltrans.o
 .bss           0x00000000        0x0 /tmp/ccwxil6c.ltrans5.ltrans.o
 .data          0x00000000        0x0 /tmp/ccwxil6c.ltrans6.ltrans.o
 .bss           0x00000000        0x0 /tmp/ccwxil6c.ltrans6.ltrans.o
 .data          0x00000000        0x0 /tmp/ccwxil6c.ltrans7.ltrans.o
 .comment       0x00000000       0x24 /tmp/ccLPsu2k.debug.temp.o
 .comment       0x00000000       0x24 /tmp/ccTTmALO.debug.temp.o
 .comment       0x00000000       0x24 /tmp/ccvngEzd.debug.temp.o
 .comment       0x00000000       0x24 /tmp/ccBkzJWB.debug.temp.o
 .comment       0x00000000       0x24 /tmp/ccHQF3rE.debug.temp.o
 .comment       0x00000000       0x24 /tmp/ccyMJ3h4.debug.temp.o
 .comment       0x00000000       0x24 /tmp/cccUqufy.debug.temp.o
 .comment       0x00000000       0x24 /tmp/cc1lJVON.debug.temp.o
 .comment       0x00000000       0x24 /tmp/ccYC9CrR.debug.temp.o
 .comment       0x00000000       0x24 /tmp/ccMBjpkG.debug.temp.o
 .comment       0x00000000       0x24 /tmp/ccLkJh5C.debug.temp.o
 .comment       0x00000000       0x24 /tmp/ccF8matJ.debug.temp.o
 .comment       0x00000000       0x24 /tmp/ccO6CZeV.debug.temp.o
 .comment       0x00000000       0x24 /tmp/ccXTAcEU.debug.temp.o
 .comment       0x00000000       0x24 /tmp/ccU2ROTS.debug.temp.o
 .comment       0x00000000       0x24 /tmp/ccQv4rf1.debug.temp.o
 .comment       0x00000000       0x24 /tmp/ccfH9ZNg.debug.temp.o
 .comment       0x00000000       0x24 /tmp/ccGDx6uD.debug.temp.o
 .comment       0x00000000       0x24 /tmp/ccYD3xfL.debug.temp.o
 .comment       0x00000000       0x24 /tmp/cccFcHe5.debug.temp.o
 .comment       0x00000000       0x24 /tmp/ccQhwUhr.debug.temp.o
 .comment       0x00000000       0x24 /tmp/ccK68Gt6.debug.temp.o
 .comment       0x00000000       0x24 /tmp/ccloJbzs.debug.temp.o
 .comment       0x00000000       0x24 /tmp/ccERXZfz.debug.temp.o
 .comment       0x00000000       0x24 /tmp/ccnOOVEH.debug.temp.o
 .comment       0x00000000       0x24 /tmp/cckyefmF.debug.temp.o
 .comment       0x00000000       0x24 /tmp/ccTLAWHB.debug.temp.o
 .comment       0x00000000       0x24 /tmp/cckt39HZ.debug.temp.o
 .comment       0x00000000       0x24 /tmp/ccOyttn4.debug.temp.o
 .comment       0x00000000       0x24 /tmp/ccgtCrrI.debug.temp.o
 .comment       0x00000000       0x24 /tmp/ccevTyAA.debug.temp.o
 .comment       0x00000000       0x24 /tmp/ccoin7qt.debug.temp.o
 .comment       0x00000000       0x24 /tmp/cckmxhZr.debug.temp.o
 .comment       0x00000000       0x24 /tmp/cc2tkC9W.debug.temp.o
 .comment       0x00000000       0x24 /tmp/cc60W0eU.debug.temp.o
 .comment       0x00000000       0x24 /tmp/ccinOPal.debug.temp.o
 .comment       0x00000000       0x24 /tmp/ccu9D4Lb.debug.temp.o
 .comment       0x00000000       0x24 /tmp/ccmZBs9D.debug.temp.o
 .comment       0x00000000       0x24 /tmp/ccvAOpIO.debug.temp.o
 .comment       0x00000000       0x24 /tmp/cchIVJxn.debug.temp.o
 .comment       0x00000000       0x24 /tmp/cccUuQN0.debug.temp.o
 .comment       0x00000000       0x24 /tmp/ccvm6OfV.debug.temp.o
 .comment       0x00000000       0x24 /tmp/ccjblKH8.debug.temp.o
 .comment       0x00000000       0x24 /tmp/ccbgPEmv.debug.temp.o
 .comment       0x00000000       0x24 /tmp/ccGN3ESM.debug.temp.o
 .comment       0x00000000       0x24 /tmp/ccpX1Wye.debug.temp.o
 .comment       0x00000000       0x24 /tmp/ccBnpy0h.debug.temp.o
 .comment       0x00000000       0x24 /tmp/ccoe9SU4.debug.temp.o
 .comment       0x00000000       0x24 /tmp/ccb23JOW.debug.temp.o
 .comment       0x00000000       0x24 /tmp/ccGSFO42.debug.temp.o
 .comment       0x00000000       0x24 /tmp/ccSA0n3K.debug.temp.o
 .comment       0x00000000       0x24 /tmp/ccui8Fjt.debug.temp.o
 .comment       0x00000000       0x24 /tmp/ccUrz3T5.debug.temp.o
 .comment       0x00000000       0x24 /tmp/ccfPzlbe.debug.temp.o
 .debug_info    0x00000000      0x45f /tmp/ccqtjwdM.debug.temp.o
 .debug_abbrev  0x00000000       0xdc /tmp/ccqtjwdM.debug.temp.o
 .debug_line    0x00000000      0x231 /tmp/ccqtjwdM.debug.temp.o
 .debug_str     0x00000000      0x4ee /tmp/ccqtjwdM.debug.temp.o
 .comment       0x00000000       0x24 /tmp/ccqtjwdM.debug.temp.o
 .debug_info    0x00000000     0xb557 /tmp/cc2DUoRl.debug.temp.o
 .debug_abbrev  0x00000000      0xb2c /tmp/cc2DUoRl.debug.temp.o
 .debug_line    0x00000000      0x7c5 /tmp/cc2DUoRl.debug.temp.o
 .debug_str     0x00000000     0xbb8e /tmp/cc2DUoRl.debug.temp.o
 .comment       0x00000000       0x24 /tmp/cc2DUoRl.debug.temp.o
 .comment       0x00000000       0x24 /tmp/ccqyI1Ps.debug.temp.o
 .comment       0x00000000       0x24 /tmp/cciVk3IR.debug.temp.o
 .comment       0x00000000       0x24 /tmp/ccR8vJRs.debug.temp.o
 .comment       0x00000000       0x24 /tmp/cc9HdzfJ.debug.temp.o
 .comment       0x00000000       0x24 /tmp/ccNgaVBb.debug.temp.o
 .comment       0x00000000       0x24 /tmp/ccmAJapq.debug.temp.o
 .comment       0x00000000       0x24 /tmp/ccbVQ3pJ.debug.temp.o
 .comment       0x00000000       0x24 /tmp/ccbU9q6N.debug.temp.o
 .comment       0x00000000       0x24 /tmp/ccOr1ybF.debug.temp.o
 .comment       0x00000000       0x24 /tmp/cctmeOAo.debug.temp.o
 .comment       0x00000000       0x24 /tmp/ccSAht3d.debug.temp.o
 .debug_info    0x00000000      0x4b0 /tmp/ccD0OlBL.debug.temp.o
 .debug_abbrev  0x00000000      0x133 /tmp/ccD0OlBL.debug.temp.o
 .debug_line    0x00000000      0x2e4 /tmp/ccD0OlBL.debug.temp.o
 .debug_str     0x00000000      0x53f /tmp/ccD0OlBL.debug.temp.o
 .comment       0x00000000       0x24 /tmp/ccD0OlBL.debug.temp.o
 .comment       0x00000000       0x24 /tmp/cc3qvCC8.debug.temp.o
 .comment       0x00000000       0x24 /tmp/ccx1qe0A.debug.temp.o
 .comment       0x00000000       0x24 /tmp/ccIHAlEK.debug.temp.o
 .comment       0x00000000       0x24 /tmp/ccnNxNX9.debug.temp.o
 .comment       0x00000000       0x24 /tmp/ccjoDyMR.debug.temp.o
 .comment       0x00000000       0x24 /tmp/ccncYbAT.debug.temp.o
 .comment       0x00000000       0x24 /tmp/cc9rEgyB.debug.temp.o
 .debug_info    0x00000000      0x830 /tmp/ccxiT1mD.debug.temp.o
 .debug_abbrev  0x00000000      0x1b1 /tmp/ccxiT1mD.debug.temp.o
 .debug_line    0x00000000      0x119 /tmp/ccxiT1mD.debug.temp.o
 .debug_str     0x00000000      0x350 /tmp/ccxiT1mD.debug.temp.o
 .comment       0x00000000       0x24 /tmp/ccxiT1mD.debug.temp.o
 .debug_info    0x00000000      0x728 /tmp/ccSADDCX.debug.temp.o
 .debug_abbrev  0x00000000      0x19e /tmp/ccSADDCX.debug.temp.o
 .debug_line    0x00000000      0x10a /tmp/ccSADDCX.debug.temp.o
 .debug_str     0x00000000      0x301 /tmp/ccSADDCX.debug.temp.o
 .comment       0x00000000       0x24 /tmp/ccSADDCX.debug.temp.o
 .debug_info    0x00000000      0x278 /tmp/ccliXPZf.debug.temp.o
 .debug_abbrev  0x00000000      0x162 /tmp/ccliXPZf.debug.temp.o
 .debug_line    0x00000000      0x137 /tmp/ccliXPZf.debug.temp.o
 .debug_str     0x00000000      0x294 /tmp/ccliXPZf.debug.temp.o
 .comment       0x00000000       0x24 /tmp/ccliXPZf.debug.temp.o
 .comment       0x00000000       0x24 /tmp/cc6C3MIm.debug.temp.o
 .comment       0x00000000       0x24 /tmp/ccVcSD9B.debug.temp.o
 .comment       0x00000000       0x24 /tmp/ccv9YwIu.debug.temp.o
 .comment       0x00000000       0x24 /tmp/ccRFkR96.debug.temp.o
 .debug_info    0x00000000       0xf6 /tmp/ccZRc4OD.debug.temp.o
 .debug_abbrev  0x00000000       0xc8 /tmp/ccZRc4OD.debug.temp.o
 .debug_line    0x00000000       0xe8 /tmp/ccZRc4OD.debug.temp.o
 .debug_str     0x00000000      0x1d4 /tmp/ccZRc4OD.debug.temp.o
 .comment       0x00000000       0x24 /tmp/ccZRc4OD.debug.temp.o
 .debug_info    0x00000000      0x357 /tmp/ccGmbwXd.debug.temp.o
 .debug_abbrev  0x00000000      0x131 /tmp/ccGmbwXd.debug.temp.o
 .debug_line    0x00000000       0xe2 /tmp/ccGmbwXd.debug.temp.o
 .debug_str     0x00000000      0x2e8 /tmp/ccGmbwXd.debug.temp.o
 .comment       0x00000000       0x24 /tmp/ccGmbwXd.debug.temp.o
 .comment       0x00000000       0x24 /tmp/ccjhzTnl.debug.temp.o
 .text          0x00000000        0x0 bn_sprites_manager.bn_iwram.o
 .data          0x00000000        0x0 bn_sprites_manager.bn_iwram.o
 .bss           0x00000000        0x0 bn_sprites_manager.bn_iwram.o
 .group         0x00000000        0xc bn_hw_common.bn_noflto.o
 .group         0x00000000        0xc bn_hw_common.bn_noflto.o
 .text          0x00000000        0x0 bn_hw_common.bn_noflto.o
 .data          0x00000000        0x0 bn_hw_common.bn_noflto.o
 .bss           0x00000000        0x0 bn_hw_common.bn_noflto.o
 .text.__assert_func
                0x00000000       0x10 bn_hw_common.bn_noflto.o
 .text._ZN3_bn6assert9show_argsIA27_cEEvPKcS4_S4_iRKT_
                0x00000000       0x48 bn_hw_common.bn_noflto.o
 .rodata.__aeabi_ldiv0.str1.4
                0x00000000       0x38 bn_hw_common.bn_noflto.o
 .text.__aeabi_ldiv0
                0x00000000       0x24 bn_hw_common.bn_noflto.o
 .bss.__dso_handle
                0x00000000        0x4 bn_hw_common.bn_noflto.o
 .text          0x00000000        0x0 bn_hw_game_pak.bn_ewram.o
 .data          0x00000000        0x0 bn_hw_game_pak.bn_ewram.o
 .bss           0x00000000        0x0 bn_hw_game_pak.bn_ewram.o
 .text          0x00000000        0x0 bn_hw_gpio.bn_noflto.o
 .data          0x00000000        0x0 bn_hw_gpio.bn_noflto.o
 .bss           0x00000000        0x0 bn_hw_gpio.bn_noflto.o
 .text          0x00000000        0x0 bn_hw_palettes.bn_iwram.o
 .data          0x00000000        0x0 bn_hw_palettes.bn_iwram.o
 .bss           0x00000000        0x0 bn_hw_palettes.bn_iwram.o
 .text          0x00000000        0x0 bn_hw_sprite_tiles.bn_iwram.o
 .data          0x00000000        0x0 bn_hw_sprite_tiles.bn_iwram.o
 .bss           0x00000000        0x0 bn_hw_sprite_tiles.bn_iwram.o
 .text          0x00000000        0x0 bn_hw_sram.bn_ewram.o
 .data          0x00000000        0x0 bn_hw_sram.bn_ewram.o
 .bss           0x00000000        0x0 bn_hw_sram.bn_ewram.o
 .ewram         0x00000000       0x10 bn_hw_sram.bn_ewram.o
 .debug_info    0x00000000      0x521 bn_hw_sram.bn_ewram.o
 .debug_abbrev  0x00000000      0x178 bn_hw_sram.bn_ewram.o
 .debug_loc     0x00000000       0xe4 bn_hw_sram.bn_ewram.o
 .debug_aranges
                0x00000000       0x20 bn_hw_sram.bn_ewram.o
 .debug_ranges  0x00000000       0x10 bn_hw_sram.bn_ewram.o
 .debug_line    0x00000000      0x328 bn_hw_sram.bn_ewram.o
 .debug_str     0x00000000      0x54e bn_hw_sram.bn_ewram.o
 .comment       0x00000000       0x24 bn_hw_sram.bn_ewram.o
 .debug_frame   0x00000000       0x20 bn_hw_sram.bn_ewram.o
 .text          0x00000000        0x0 bn_hw_sram.bn_noflto.o
 .data          0x00000000        0x0 bn_hw_sram.bn_noflto.o
 .bss           0x00000000        0x0 bn_hw_sram.bn_noflto.o
 .text          0x00000000        0x0 bn_hw_bg_blocks.o
 .data          0x00000000        0x0 bn_hw_bg_blocks.o
 .bss           0x00000000        0x0 bn_hw_bg_blocks.o
 .data          0x00000000        0x0 bn_hw_core.o
 .bss           0x00000000        0x0 bn_hw_core.o
 .text          0x00000000        0x0 bn_hw_hblank_effects.o
 .data          0x00000000        0x0 bn_hw_hblank_effects.o
 .bss           0x00000000        0x0 bn_hw_hblank_effects.o
 .text          0x00000000        0x0 bn_hw_palettes_asm.o
 .data          0x00000000        0x0 bn_hw_palettes_asm.o
 .bss           0x00000000        0x0 bn_hw_palettes_asm.o
 .text          0x00000000        0x0 clr_blend_fast.o
 .data          0x00000000        0x0 clr_blend_fast.o
 .bss           0x00000000        0x0 clr_blend_fast.o
 .text          0x00000000        0x0 clr_fade_fast.o
 .data          0x00000000        0x0 clr_fade_fast.o
 .bss           0x00000000        0x0 clr_fade_fast.o
 .text          0x00000000        0x0 tonc_bios.o
 .data          0x00000000        0x0 tonc_bios.o
 .bss           0x00000000        0x0 tonc_bios.o
 .text.SoftReset
                0x00000000        0x4 tonc_bios.o
 .text.RegisterRamReset
                0x00000000        0x4 tonc_bios.o
 .text.Halt     0x00000000        0x4 tonc_bios.o
 .text.IntrWait
                0x00000000        0x4 tonc_bios.o
 .text.Div      0x00000000        0x4 tonc_bios.o
 .text.DivArm   0x00000000        0x4 tonc_bios.o
 .text.Sqrt     0x00000000        0x4 tonc_bios.o
 .text.ArcTan   0x00000000        0x4 tonc_bios.o
 .text.ArcTan2  0x00000000        0x4 tonc_bios.o
 .text.CpuSet   0x00000000        0x4 tonc_bios.o
 .text.CpuFastSet
                0x00000000        0x4 tonc_bios.o
 .text.BiosCheckSum
                0x00000000        0x4 tonc_bios.o
 .text.BgAffineSet
                0x00000000        0x4 tonc_bios.o
 .text.ObjAffineSet
                0x00000000        0x4 tonc_bios.o
 .text.BitUnPack
                0x00000000        0x4 tonc_bios.o
 .text.LZ77UnCompWram
                0x00000000        0x4 tonc_bios.o
 .text.LZ77UnCompVram
                0x00000000        0x4 tonc_bios.o
 .text.HuffUnComp
                0x00000000        0x4 tonc_bios.o
 .text.RLUnCompWram
                0x00000000        0x4 tonc_bios.o
 .text.RLUnCompVram
                0x00000000        0x4 tonc_bios.o
 .text.Diff8bitUnFilterWram
                0x00000000        0x4 tonc_bios.o
 .text.Diff8bitUnFilterVram
                0x00000000        0x4 tonc_bios.o
 .text.Diff16bitUnFilter
                0x00000000        0x4 tonc_bios.o
 .text.SoundBias
                0x00000000        0x4 tonc_bios.o
 .text.SoundDriverInit
                0x00000000        0x4 tonc_bios.o
 .text.SoundDriverMode
                0x00000000        0x4 tonc_bios.o
 .text.SoundDriverMain
                0x00000000        0x4 tonc_bios.o
 .text.SoundDriverVSync
                0x00000000        0x4 tonc_bios.o
 .text.SoundChannelClear
                0x00000000        0x4 tonc_bios.o
 .text.MidiKey2Freq
                0x00000000        0x4 tonc_bios.o
 .text.MultiBoot
                0x00000000        0x4 tonc_bios.o
 .text.SoundDriverVSyncOff
                0x00000000        0x4 tonc_bios.o
 .text.SoundDriverVSyncOn
                0x00000000        0x4 tonc_bios.o
 .text          0x00000000        0x0 tonc_memset.o
 .data          0x00000000        0x0 tonc_memset.o
 .bss           0x00000000        0x0 tonc_memset.o
 .text          0x00000000        0x0 tonc_nocash.o
 .data          0x00000000        0x0 tonc_nocash.o
 .bss           0x00000000        0x0 tonc_nocash.o
 .text.nocash_puts
                0x00000000       0x38 tonc_nocash.o
 .ewram.nocash_message
                0x00000000       0x5c tonc_nocash.o
 .debug_line    0x00000000       0xbe tonc_nocash.o
 .debug_info    0x00000000       0x3a tonc_nocash.o
 .debug_abbrev  0x00000000       0x26 tonc_nocash.o
 .debug_aranges
                0x00000000       0x28 tonc_nocash.o
 .debug_str     0x00000000       0xd8 tonc_nocash.o
 .debug_ranges  0x00000000       0x20 tonc_nocash.o
 .text          0x00000000        0x0 verdana9.o
 .data          0x00000000        0x0 verdana9.o
 .bss           0x00000000        0x0 verdana9.o
 .text          0x00000000        0x0 irq_handler.o
 .data          0x00000000        0x0 irq_handler.o
 .bss           0x00000000        0x0 irq_handler.o
 .data          0x00000000        0x0 posprintf.o
 .bss           0x00000000        0x0 posprintf.o
 .text          0x00000000        0x0 atan2.o
 .data          0x00000000        0x0 atan2.o
 .bss           0x00000000        0x0 atan2.o
 .iwram.__agbabi_atan2
                0x00000000       0xd4 atan2.o
 .debug_line    0x00000000       0xbe atan2.o
 .debug_info    0x00000000       0x24 atan2.o
 .debug_abbrev  0x00000000       0x14 atan2.o
 .debug_aranges
                0x00000000       0x20 atan2.o
 .debug_str     0x00000000       0xb6 atan2.o
 .text          0x00000000        0x0 coroutine_asm.o
 .data          0x00000000        0x0 coroutine_asm.o
 .bss           0x00000000        0x0 coroutine_asm.o
 .iwram.__agbabi_coro_resume
                0x00000000       0x20 coroutine_asm.o
 .iwram.__agbabi_coro_yield
                0x00000000       0x1c coroutine_asm.o
 .iwram.__agbabi_coro_pop
                0x00000000       0x34 coroutine_asm.o
 .debug_line    0x00000000       0xcb coroutine_asm.o
 .debug_info    0x00000000       0x22 coroutine_asm.o
 .debug_abbrev  0x00000000       0x12 coroutine_asm.o
 .debug_aranges
                0x00000000       0x30 coroutine_asm.o
 .debug_str     0x00000000       0xbe coroutine_asm.o
 .debug_ranges  0x00000000       0x28 coroutine_asm.o
 .text          0x00000000        0x0 fiq_memcpy.o
 .data          0x00000000        0x0 fiq_memcpy.o
 .bss           0x00000000        0x0 fiq_memcpy.o
 .iwram.__agbabi_fiq_memcpy4
                0x00000000       0x70 fiq_memcpy.o
 .iwram.__agbabi_fiq_memcpy4x4
                0x00000000       0x54 fiq_memcpy.o
 .debug_line    0x00000000       0xce fiq_memcpy.o
 .debug_info    0x00000000       0x22 fiq_memcpy.o
 .debug_abbrev  0x00000000       0x12 fiq_memcpy.o
 .debug_aranges
                0x00000000       0x28 fiq_memcpy.o
 .debug_str     0x00000000       0xbb fiq_memcpy.o
 .debug_ranges  0x00000000       0x20 fiq_memcpy.o
 .text          0x00000000        0x0 lmul.o
 .data          0x00000000        0x0 lmul.o
 .bss           0x00000000        0x0 lmul.o
 .iwram.__aeabi_llsl
                0x00000000       0x1c lmul.o
 .iwram.__aeabi_llsr
                0x00000000       0x1c lmul.o
 .iwram.__aeabi_lasr
                0x00000000       0x1c lmul.o
 .text          0x00000000        0x0 memcpy.o
 .data          0x00000000        0x0 memcpy.o
 .bss           0x00000000        0x0 memcpy.o
 .text          0x00000000        0x0 memmove.o
 .data          0x00000000        0x0 memmove.o
 .bss           0x00000000        0x0 memmove.o
 .iwram.__aeabi_memmove8
                0x00000000        0xc memmove.o
 .iwram.__agbabi_memmove1
                0x00000000        0xc memmove.o
 .text          0x00000000        0x0 memset.o
 .data          0x00000000        0x0 memset.o
 .bss           0x00000000        0x0 memset.o
 .iwram.__aeabi_memclr
                0x00000000       0x10 memset.o
 .text          0x00000000        0x0 rmemcpy.o
 .data          0x00000000        0x0 rmemcpy.o
 .bss           0x00000000        0x0 rmemcpy.o
 .text          0x00000000        0x0 clz.o
 .data          0x00000000        0x0 clz.o
 .bss           0x00000000        0x0 clz.o
 .iwram         0x00000000      0x148 clz.o
 .debug_line    0x00000000       0xa0 clz.o
 .debug_info    0x00000000       0x24 clz.o
 .debug_abbrev  0x00000000       0x14 clz.o
 .debug_aranges
                0x00000000       0x20 clz.o
 .debug_str     0x00000000       0xb8 clz.o
 .text          0x00000000        0x0 sdiv32.o
 .data          0x00000000        0x0 sdiv32.o
 .bss           0x00000000        0x0 sdiv32.o
 .text          0x00000000        0x0 sqrt32.o
 .data          0x00000000        0x0 sqrt32.o
 .bss           0x00000000        0x0 sqrt32.o
 .text          0x00000000        0x0 udiv32.o
 .data          0x00000000        0x0 udiv32.o
 .bss           0x00000000        0x0 udiv32.o
 .text          0x00000000        0x0 huffman.o
 .data          0x00000000        0x0 huffman.o
 .bss           0x00000000        0x0 huffman.o
 .text          0x00000000        0x0 lz77.o
 .data          0x00000000        0x0 lz77.o
 .bss           0x00000000        0x0 lz77.o
 .text          0x00000000        0x0 running_length.o
 .data          0x00000000        0x0 running_length.o
 .bss           0x00000000        0x0 running_length.o
 .data          0x00000000        0x0 mm_effect.o
 .data          0x00000000        0x0 mm_main.o
 .text          0x00000000        0x0 mm_mas_arm.o
 .data          0x00000000        0x0 mm_mas_arm.o
 .bss           0x00000000        0x0 mm_mas_arm.o
 .data          0x00000000        0x0 mm_mas.o
 .text          0x00000000       0x44 mm_init_default.o
 .data          0x00000000        0x0 mm_init_default.o
 .bss           0x00000000      0x420 mm_init_default.o
 .debug_line    0x00000000       0xbd mm_init_default.o
 .debug_info    0x00000000       0x23 mm_init_default.o
 .debug_abbrev  0x00000000       0x14 mm_init_default.o
 .debug_aranges
                0x00000000       0x20 mm_init_default.o
 .debug_str     0x00000000       0xc7 mm_init_default.o
 .data          0x00000000        0x0 mm_main_gba.o
 .data          0x00000000        0x0 mm_mixer_gba.o
 .data          0x00000000        0x0 /opt/devkitpro/devkitARM/bin/../lib/gcc/arm-none-eabi/14.2.0/thumb/libgcc.a(_call_via_rX.o)
 .bss           0x00000000        0x0 /opt/devkitpro/devkitARM/bin/../lib/gcc/arm-none-eabi/14.2.0/thumb/libgcc.a(_call_via_rX.o)
 .text          0x00000000        0x4 /opt/devkitpro/devkitARM/bin/../lib/gcc/arm-none-eabi/14.2.0/thumb/libgcc.a(_sync_none.o)
 .data          0x00000000        0x0 /opt/devkitpro/devkitARM/bin/../lib/gcc/arm-none-eabi/14.2.0/thumb/libgcc.a(_sync_none.o)
 .bss           0x00000000        0x0 /opt/devkitpro/devkitARM/bin/../lib/gcc/arm-none-eabi/14.2.0/thumb/libgcc.a(_sync_none.o)
 .text          0x00000000        0x0 /opt/devkitpro/devkitARM/bin/../lib/gcc/arm-none-eabi/14.2.0/thumb/crtend.o
 .data          0x00000000        0x0 /opt/devkitpro/devkitARM/bin/../lib/gcc/arm-none-eabi/14.2.0/thumb/crtend.o
 .bss           0x00000000        0x0 /opt/devkitpro/devkitARM/bin/../lib/gcc/arm-none-eabi/14.2.0/thumb/crtend.o
 .rodata.all_implied_fbits
                0x00000000       0x24 /opt/devkitpro/devkitARM/bin/../lib/gcc/arm-none-eabi/14.2.0/thumb/crtend.o
 .text          0x00000000        0x0 /opt/devkitpro/devkitARM/bin/../lib/gcc/arm-none-eabi/14.2.0/thumb/crtn.o
 .data          0x00000000        0x0 /opt/devkitpro/devkitARM/bin/../lib/gcc/arm-none-eabi/14.2.0/thumb/crtn.o
 .bss           0x00000000        0x0 /opt/devkitpro/devkitARM/bin/../lib/gcc/arm-none-eabi/14.2.0/thumb/crtn.o

Memory Configuration

Name             Origin             Length             Attributes
rom              0x08000000         0x02000000
iwram            0x03000000         0x00008000
ewram            0x02000000         0x00040000
*default*        0x00000000         0xffffffff

Linker script and memory map

                0x00000000                        __sync_synchronize = __sync_synchronize_none
                0x08000000                        __text_start = ORIGIN (rom)
                0x02040000                        __eheap_end = (ORIGIN (ewram) + LENGTH (ewram))
                0x03000000                        __iwram_start = ORIGIN (iwram)
                0x03008000                        __iwram_top = (ORIGIN (iwram) + LENGTH (iwram))
                0x03007fa0                        __sp_irq = (__iwram_top - 0x60)
                0x03007f00                        __sp_usr = (__sp_irq - 0xa0)
                0x03007ff8                        __irq_flags = 0x3007ff8
                0x08000000                        . = __text_start

.crt0           0x08000000      0x210
 *(.crt0)
 .crt0          0x08000000      0x210 /opt/devkitpro/devkitARM/bin/../lib/gcc/arm-none-eabi/14.2.0/../../../../arm-none-eabi/lib/thumb/gba_crt0.o
                0x08000000                _start
                0x080000c4                __boot_method
                0x080000c5                __slave_number
                0x080000e0                start_vector
                0x08000210                        . = ALIGN (0x4)

.init           0x08000210        0xc
 *(SORT_NONE(.init))
 .init          0x08000210        0x4 /opt/devkitpro/devkitARM/bin/../lib/gcc/arm-none-eabi/14.2.0/thumb/crti.o
                0x08000210                _init
 .init          0x08000214        0x8 /opt/devkitpro/devkitARM/bin/../lib/gcc/arm-none-eabi/14.2.0/thumb/crtn.o

.plt            0x0800021c        0x0
 *(.plt)
                0x0800021c                        . = ALIGN (0x4)

.text           0x08000220    0x3e4f8
 *(EXCLUDE_FILE(*.iwram*) .text*)
 .text.__do_global_dtors_aux
                0x08000220       0x2c /opt/devkitpro/devkitARM/bin/../lib/gcc/arm-none-eabi/14.2.0/thumb/crtbegin.o
 .text.frame_dummy
                0x0800024c       0x24 /opt/devkitpro/devkitARM/bin/../lib/gcc/arm-none-eabi/14.2.0/thumb/crtbegin.o
 .text          0x08000270     0x8df4 /tmp/ccwxil6c.ltrans0.ltrans.o
                0x08000270                bf::game::tank_boss::_position() const
                0x08000298                bf::game::wizard_boss::_position() const
                0x080002ac                bf::game::gigabat_boss::_position() const
                0x080002bc                bf::game::boss::_throw_bomb() const
                0x08000628                bn::sprite_builder::~sprite_builder()
                0x08000628                bn::sprite_builder::~sprite_builder() [clone .lto_priv.0]
                0x080006b8                bn::optional<bn::camera_ptr>::operator=(bn::camera_ptr const&)
                0x0800073c                bn::random::update()
                0x0800075c                bn::fixed_rect_t<12>::intersects(bn::fixed_rect_t<12> const&) const
                0x080007b8                bf::game::direction_vector(bn::fixed_t<12>, bn::fixed_t<12>, bn::fixed_t<12>)
                0x0800083c                void _bn::assert::show_args<char [38]>(char const*, char const*, char const*, int, char const (&) [38])
                0x0800083c                void _bn::assert::show_args<char [42]>(char const*, char const*, char const*, int, char const (&) [42])
                0x0800083c                void _bn::assert::show_args<char [32]>(char const*, char const*, char const*, int, char const (&) [32])
                0x0800083c                void _bn::assert::show_args<char [16]>(char const*, char const*, char const*, int, char const (&) [16])
                0x0800083c                void _bn::assert::show_args<char [66]>(char const*, char const*, char const*, int, char const (&) [66])
                0x0800083c                void _bn::assert::show_args<char [53]>(char const*, char const*, char const*, int, char const (&) [53])
                0x0800083c                void _bn::assert::show_args<char [33]>(char const*, char const*, char const*, int, char const (&) [33])
                0x0800083c                void _bn::assert::show_args<char [17]>(char const*, char const*, char const*, int, char const (&) [17])
                0x0800083c                void _bn::assert::show_args<char [20]>(char const*, char const*, char const*, int, char const (&) [20])
                0x0800083c                void _bn::assert::show_args<char [23]>(char const*, char const*, char const*, int, char const (&) [23])
                0x0800083c                void _bn::assert::show_args<char [63]>(char const*, char const*, char const*, int, char const (&) [63])
                0x0800083c                void _bn::assert::show_args<char [37]>(char const*, char const*, char const*, int, char const (&) [37])
                0x0800083c                void _bn::assert::show_args<char [21]>(char const*, char const*, char const*, int, char const (&) [21])
                0x0800083c                void _bn::assert::show_args<char [25]>(char const*, char const*, char const*, int, char const (&) [25])
                0x0800083c                void _bn::assert::show_args<char [22]>(char const*, char const*, char const*, int, char const (&) [22])
                0x0800083c                void _bn::assert::show_args<char [27]>(char const*, char const*, char const*, int, char const (&) [27])
                0x0800083c                void _bn::assert::show_args<char [14]>(char const*, char const*, char const*, int, char const (&) [14])
                0x0800083c                void _bn::assert::show_args<char [24]>(char const*, char const*, char const*, int, char const (&) [24])
                0x0800083c                void _bn::assert::show_args<char [35]>(char const*, char const*, char const*, int, char const (&) [35])
                0x0800083c                void _bn::assert::show_args<char [55]>(char const*, char const*, char const*, int, char const (&) [55])
                0x0800083c                void _bn::assert::show_args<char [19]>(char const*, char const*, char const*, int, char const (&) [19])
                0x0800083c                void _bn::assert::show_args<char [26]>(char const*, char const*, char const*, int, char const (&) [26])
                0x0800083c                void _bn::assert::show_args<char [13]>(char const*, char const*, char const*, int, char const (&) [13])
                0x0800083c                void _bn::assert::show_args<char [18]>(char const*, char const*, char const*, int, char const (&) [18])
                0x0800083c                void _bn::assert::show_args<char [46]>(char const*, char const*, char const*, int, char const (&) [46])
                0x0800083c                void _bn::assert::show_args<char [31]>(char const*, char const*, char const*, int, char const (&) [31])
                0x0800083c                void _bn::assert::show_args<char [34]>(char const*, char const*, char const*, int, char const (&) [34])
                0x0800083c                void _bn::assert::show_args<char [15]>(char const*, char const*, char const*, int, char const (&) [15])
                0x0800083c                void _bn::assert::show_args<char [54]>(char const*, char const*, char const*, int, char const (&) [54])
                0x0800083c                void _bn::assert::show_args<char [30]>(char const*, char const*, char const*, int, char const (&) [30])
                0x0800087c                bn::iforward_list<bf::game::enemy>::value_node_type& bn::ipool<bn::iforward_list<bf::game::enemy>::value_node_type>::create<bf::game::enemy_event const&, bn::sprite_palette_ptr&, signed char&, bn::camera_ptr const&>(bf::game::enemy_event const&, bn::sprite_palette_ptr&, signed char&, bn::camera_ptr const&) [clone .part.0] [clone .lto_priv.0]
                0x0800087c                bn::iforward_list<bf::game::enemy_bullets::bullet_type>::value_node_type& bn::ipool<bn::iforward_list<bf::game::enemy_bullets::bullet_type>::value_node_type>::create<bf::game::enemy_bullets::bullet_type>(bf::game::enemy_bullets::bullet_type&&) [clone .part.0] [clone .lto_priv.0]
                0x080008a0                bf::game::boss::play_music() const
                0x08000a88                bn::ideque<bn::sprite_animate_action<7> >::push_back(bn::sprite_animate_action<7>&&)
                0x08000b50                bn::to_value_template_action<bn::sprite_ptr, bn::fixed_point_t<12>, bn::sprite_position_manager>::update()
                0x08000bb4                void bn::ostringstream::append<12>(bn::fixed_t<12>)
                0x08000c50                void _bn::assert::show_args<char [22], bn::fixed_t<12> >(char const*, char const*, char const*, int, char const (&) [22], bn::fixed_t<12> const&)
                0x08000c50                void _bn::assert::show_args<char [29], bn::fixed_t<12> >(char const*, char const*, char const*, int, char const (&) [29], bn::fixed_t<12> const&)
                0x08000c50                void _bn::assert::show_args<char [20], bn::fixed_t<12> >(char const*, char const*, char const*, int, char const (&) [20], bn::fixed_t<12> const&)
                0x08000c50                void _bn::assert::show_args<char [18], bn::fixed_t<12> >(char const*, char const*, char const*, int, char const (&) [18], bn::fixed_t<12> const&)
                0x08000c50                void _bn::assert::show_args<char [27], bn::fixed_t<12> >(char const*, char const*, char const*, int, char const (&) [27], bn::fixed_t<12> const&)
                0x08000c50                void _bn::assert::show_args<char [31], bn::fixed_t<12> >(char const*, char const*, char const*, int, char const (&) [31], bn::fixed_t<12> const&)
                0x08000c50                void _bn::assert::show_args<char [19], bn::fixed_t<12> >(char const*, char const*, char const*, int, char const (&) [19], bn::fixed_t<12> const&)
                0x08000c50                void _bn::assert::show_args<char [35], bn::fixed_t<12> >(char const*, char const*, char const*, int, char const (&) [35], bn::fixed_t<12> const&)
                0x08000c50                void _bn::assert::show_args<char [21], bn::fixed_t<12> >(char const*, char const*, char const*, int, char const (&) [21], bn::fixed_t<12> const&)
                0x08000c50                void _bn::assert::show_args<char [16], bn::fixed_t<12> >(char const*, char const*, char const*, int, char const (&) [16], bn::fixed_t<12> const&)
                0x08000c50                void _bn::assert::show_args<char [25], bn::fixed_t<12> >(char const*, char const*, char const*, int, char const (&) [25], bn::fixed_t<12> const&)
                0x08000c50                void _bn::assert::show_args<char [33], bn::fixed_t<12> >(char const*, char const*, char const*, int, char const (&) [33], bn::fixed_t<12> const&)
                0x08000c50                void _bn::assert::show_args<char [38], bn::fixed_t<12> >(char const*, char const*, char const*, int, char const (&) [38], bn::fixed_t<12> const&)
                0x08000c50                void _bn::assert::show_args<char [26], bn::fixed_t<12> >(char const*, char const*, char const*, int, char const (&) [26], bn::fixed_t<12> const&)
                0x08000c50                void _bn::assert::show_args<char [23], bn::fixed_t<12> >(char const*, char const*, char const*, int, char const (&) [23], bn::fixed_t<12> const&)
                0x08000c50                void _bn::assert::show_args<char [32], bn::fixed_t<12> >(char const*, char const*, char const*, int, char const (&) [32], bn::fixed_t<12> const&)
                0x08000c50                void _bn::assert::show_args<char [17], bn::fixed_t<12> >(char const*, char const*, char const*, int, char const (&) [17], bn::fixed_t<12> const&)
                0x08000edc                bn::ivector<signed char>::push_back(signed char&&) [clone .part.0] [clone .lto_priv.0]
                0x08000edc                bn::ivector<bn::sprite_third_attributes_hbe_ptr>::push_back(bn::sprite_third_attributes_hbe_ptr&&) [clone .part.0] [clone .lto_priv.0]
                0x08000edc                bn::ivector<bn::sprite_ptr>::push_back(bn::sprite_ptr&&) [clone .part.0] [clone .lto_priv.0]
                0x08000edc                bn::ivector<unsigned short>::push_back(unsigned short&&) [clone .part.0] [clone .lto_priv.0]
                0x08000f04                bn::ivector<bn::sprite_ptr>::push_back(bn::sprite_ptr&&)
                0x08000f4c                bn::fixed_rect_t<12>& bn::ivector<bn::fixed_rect_t<12> >::emplace_back<bn::fixed_point_t<12>&, bn::fixed_size_t<12> >(bn::fixed_point_t<12>&, bn::fixed_size_t<12>&&) [clone .part.0] [clone .lto_priv.0]
                0x08000f4c                bn::sprite_vertical_scale_to_action& bn::ivector<bn::sprite_vertical_scale_to_action>::emplace_back<bn::sprite_ptr&, int, bn::fixed_t<12> >(bn::sprite_ptr&, int&&, bn::fixed_t<12>&&) [clone .part.0] [clone .lto_priv.0]
                0x08000f4c                bn::sprite_vertical_scale_to_action& bn::ivector<bn::sprite_vertical_scale_to_action>::emplace_back<bn::sprite_ptr, int, int>(bn::sprite_ptr&&, int&&, int&&) [clone .part.0] [clone .lto_priv.0]
                0x08000f74                bf::game::butano_boss::_update_rects()
                0x080011bc                bn::optional<bf::game::explosion>::operator->() [clone .part.0] [clone .lto_priv.1] [clone .lto_priv.0]
                0x080011bc                bn::optional<bn::sprite_cached_animate_action<2> >::operator->() [clone .part.0] [clone .lto_priv.0]
                0x080011bc                bn::optional<bn::sprite_scale_to_action>::operator->() [clone .part.0] [clone .lto_priv.0]
                0x080011bc                bn::optional<bn::sprite_palette_ptr>::operator->() [clone .part.0] [clone .lto_priv.0]
                0x080011bc                bn::optional<bf::game::explosion>::operator->() [clone .part.0] [clone .lto_priv.3] [clone .lto_priv.0]
                0x080011bc                bn::optional<bf::game::explosion>::operator->() [clone .part.0] [clone .lto_priv.0] [clone .lto_priv.0]
                0x080011bc                bn::optional<bn::bg_palette_ptr>::operator->() [clone .part.0] [clone .lto_priv.0]
                0x080011bc                bn::optional<bn::regular_bg_move_by_action>::operator->() [clone .part.0] [clone .lto_priv.1] [clone .lto_priv.0]
                0x080011bc                bn::optional<bn::sprite_visible_toggle_action>::operator->() [clone .part.0] [clone .lto_priv.0]
                0x080011bc                bn::optional<bn::sprite_ptr>::operator->() [clone .part.0] [clone .lto_priv.0] [clone .lto_priv.0]
                0x080011bc                bn::optional<bf::game::object>::operator->() [clone .part.0] [clone .lto_priv.0]
                0x080011bc                bn::optional<bn::sprite_animate_action<7> >::operator->() [clone .part.0] [clone .lto_priv.0]
                0x080011bc                bn::optional<bn::sprite_horizontal_scale_to_action>::operator->() [clone .part.0] [clone .lto_priv.0]
                0x080011bc                bn::optional<bn::rect_window_move_bottom_to_action>::operator->() [clone .part.0] [clone .lto_priv.0]
                0x080011bc                bn::optional<bn::blending_transparency_alpha_to_action>::operator->() [clone .part.0] [clone .lto_priv.4] [clone .lto_priv.0]
                0x080011bc                bn::optional<bn::blending_intensity_alpha_to_action>::operator->() [clone .part.0] [clone .lto_priv.1] [clone .lto_priv.0]
                0x080011bc                bn::optional<bn::blending_intensity_alpha_to_action>::operator->() [clone .part.0] [clone .lto_priv.0] [clone .lto_priv.0]
                0x080011bc                bn::optional<bn::blending_transparency_alpha_to_action>::operator->() [clone .part.0] [clone .lto_priv.3] [clone .lto_priv.0]
                0x080011bc                bn::optional<bn::music_volume_to_action>::operator->() [clone .part.0] [clone .lto_priv.4] [clone .lto_priv.0]
                0x080011bc                bn::optional<bn::sprite_move_to_action>::operator->() [clone .part.0] [clone .lto_priv.0] [clone .lto_priv.0]
                0x080011bc                bn::optional<bn::rect_window_move_bottom_by_action>::operator->() [clone .part.0] [clone .lto_priv.1] [clone .lto_priv.0]
                0x080011bc                bn::optional<bf::game::explosion>::operator->() [clone .part.0] [clone .lto_priv.2] [clone .lto_priv.0]
                0x080011bc                bn::optional<bn::sprite_move_to_action>::operator->() [clone .part.0] [clone .lto_priv.1] [clone .lto_priv.0]
                0x080011bc                bn::optional<bn::sprite_tiles_ptr>::operator->() [clone .part.0] [clone .lto_priv.0]
                0x080011bc                bn::optional<bn::rect_window_move_top_to_action>::operator->() [clone .part.0] [clone .lto_priv.0]
                0x080011bc                bn::optional<bn::rect_window_boundaries_hbe_ptr>::operator->() [clone .part.0] [clone .lto_priv.1] [clone .lto_priv.0]
                0x080011bc                bn::optional<bn::blending_transparency_alpha_to_action>::operator->() [clone .part.0] [clone .lto_priv.5] [clone .lto_priv.0]
                0x080011bc                bn::optional<bn::sprite_palette_fade_to_action>::operator->() [clone .part.0] [clone .lto_priv.0]
                0x080011bc                bn::optional<bn::sprite_vertical_scale_to_action>::operator->() [clone .part.0] [clone .lto_priv.0]
                0x080011bc                bn::optional<bf::game::explosion>::operator->() [clone .part.0] [clone .lto_priv.4] [clone .lto_priv.0]
                0x080011bc                bn::optional<bn::regular_bg_move_by_action>::operator->() [clone .part.0] [clone .lto_priv.0] [clone .lto_priv.0]
                0x080011bc                bn::optional<bn::music_volume_to_action>::operator->() [clone .part.0] [clone .lto_priv.2] [clone .lto_priv.0]
                0x080011bc                bn::optional<bn::sprite_ptr>::operator->() [clone .part.0] [clone .lto_priv.1] [clone .lto_priv.0]
                0x080011bc                bn::optional<bn::sprite_position_hbe_ptr>::operator->() [clone .part.0] [clone .lto_priv.0]
                0x080011bc                bn::optional<bn::music_volume_to_action>::operator->() [clone .part.0] [clone .lto_priv.3] [clone .lto_priv.0]
                0x080011bc                bn::optional<bn::sprite_affine_mat_rotate_by_action>::operator->() [clone .part.0] [clone .lto_priv.0]
                0x080011bc                bn::optional<bn::sprite_rotate_by_action>::operator->() [clone .part.0] [clone .lto_priv.0] [clone .lto_priv.0]
                0x080011bc                bn::optional<bn::sprite_rotate_by_action>::operator->() [clone .part.0] [clone .lto_priv.1] [clone .lto_priv.0]
                0x080011bc                bn::optional<bn::rect_window_move_top_by_action>::operator->() [clone .part.0] [clone .lto_priv.1] [clone .lto_priv.0]
                0x080011e4                void _bn::assert::show_args<char [18], int>(char const*, char const*, char const*, int, char const (&) [18], int const&)
                0x080011e4                void _bn::assert::show_args<char [27], int>(char const*, char const*, char const*, int, char const (&) [27], int const&)
                0x080011e4                void _bn::assert::show_args<char [24], int>(char const*, char const*, char const*, int, char const (&) [24], int const&)
                0x080011e4                void _bn::assert::show_args<char [17], int>(char const*, char const*, char const*, int, char const (&) [17], int const&)
                0x080011e4                void _bn::assert::show_args<char [15], int>(char const*, char const*, char const*, int, char const (&) [15], int const&)
                0x080011e4                void _bn::assert::show_args<char [23], int>(char const*, char const*, char const*, int, char const (&) [23], int const&)
                0x080011e4                void _bn::assert::show_args<char [22], int>(char const*, char const*, char const*, int, char const (&) [22], int const&)
                0x080011e4                void _bn::assert::show_args<char [33], int>(char const*, char const*, char const*, int, char const (&) [33], int const&)
                0x080011e4                void _bn::assert::show_args<char [14], int>(char const*, char const*, char const*, int, char const (&) [14], int const&)
                0x080011e4                void _bn::assert::show_args<char [21], int>(char const*, char const*, char const*, int, char const (&) [21], int const&)
                0x080011e4                void _bn::assert::show_args<char [39], int>(char const*, char const*, char const*, int, char const (&) [39], int const&)
                0x080011e4                void _bn::assert::show_args<char [25], int>(char const*, char const*, char const*, int, char const (&) [25], int const&)
                0x080011e4                void _bn::assert::show_args<char [28], int>(char const*, char const*, char const*, int, char const (&) [28], int const&)
                0x080011e4                void _bn::assert::show_args<char [16], int>(char const*, char const*, char const*, int, char const (&) [16], int const&)
                0x080011e4                void _bn::assert::show_args<char [20], int>(char const*, char const*, char const*, int, char const (&) [20], int const&)
                0x080011e4                void _bn::assert::show_args<char [26], int>(char const*, char const*, char const*, int, char const (&) [26], int const&)
                0x080011e4                void _bn::assert::show_args<char [47], int>(char const*, char const*, char const*, int, char const (&) [47], int const&)
                0x08001234                bf::circle_generator::generate(bn::span<std::pair<bn::fixed_t<12>, bn::fixed_t<12> > >) const
                0x080013a0                bf::wave_generator::generate(bn::span<bn::fixed_t<12> >) const
                0x08001b38                bf::game::background::show_hero_dying()
                0x08001c68                void _bn::assert::show_args<char [23], int, char [4], int>(char const*, char const*, char const*, int, char const (&) [23], int const&, char const (&) [4], int const&)
                0x08001c68                void _bn::assert::show_args<char [32], int, char [4], int>(char const*, char const*, char const*, int, char const (&) [32], int const&, char const (&) [4], int const&)
                0x08001c68                void _bn::assert::show_args<char [39], int, char [4], int>(char const*, char const*, char const*, int, char const (&) [39], int const&, char const (&) [4], int const&)
                0x08001c68                void _bn::assert::show_args<char [27], int, char [4], int>(char const*, char const*, char const*, int, char const (&) [27], int const&, char const (&) [4], int const&)
                0x08001c68                void _bn::assert::show_args<char [58], int, char [4], int>(char const*, char const*, char const*, int, char const (&) [58], int const&, char const (&) [4], int const&)
                0x08001c68                void _bn::assert::show_args<char [14], int, char [4], int>(char const*, char const*, char const*, int, char const (&) [14], int const&, char const (&) [4], int const&)
                0x08001c68                void _bn::assert::show_args<char [20], int, char [4], int>(char const*, char const*, char const*, int, char const (&) [20], int const&, char const (&) [4], int const&)
                0x08001c68                void _bn::assert::show_args<char [37], int, char [4], int>(char const*, char const*, char const*, int, char const (&) [37], int const&, char const (&) [4], int const&)
                0x08001c68                void _bn::assert::show_args<char [33], int, char [4], int>(char const*, char const*, char const*, int, char const (&) [33], int const&, char const (&) [4], int const&)
                0x08001c68                void _bn::assert::show_args<char [46], int, char [4], int>(char const*, char const*, char const*, int, char const (&) [46], int const&, char const (&) [4], int const&)
                0x08001c68                void _bn::assert::show_args<char [29], int, char [4], int>(char const*, char const*, char const*, int, char const (&) [29], int const&, char const (&) [4], int const&)
                0x08001c68                void _bn::assert::show_args<char [22], int, char [4], int>(char const*, char const*, char const*, int, char const (&) [22], int const&, char const (&) [4], int const&)
                0x08001c68                void _bn::assert::show_args<char [17], int, char [4], int>(char const*, char const*, char const*, int, char const (&) [17], int const&, char const (&) [4], int const&)
                0x08001c68                void _bn::assert::show_args<char [16], int, char [4], int>(char const*, char const*, char const*, int, char const (&) [16], int const&, char const (&) [4], int const&)
                0x08001c68                void _bn::assert::show_args<char [25], int, char [4], int>(char const*, char const*, char const*, int, char const (&) [25], int const&, char const (&) [4], int const&)
                0x08001c68                void _bn::assert::show_args<char [19], int, char [4], int>(char const*, char const*, char const*, int, char const (&) [19], int const&, char const (&) [4], int const&)
                0x08001ccc                bf::game::(anonymous namespace)::_create_sprite(int, int, bn::sprite_affine_mat_ptr const&) [clone .lto_priv.0]
                0x08001de4                bf::butano_background::_set_visible() [clone .part.0]
                0x08001fb0                bf::butano_background::put_under_all()
                0x08002024                bn::ivector<bn::sprite_ptr>::operator[](int)
                0x08002128                bf::game::butano_boss::_update_sprites()
                0x080028a0                bf::butano_background::show(bn::fixed_point_t<12> const&, bn::camera_ptr const&)
                0x08002f24                _ZN2bn7ivectorINS_10sprite_ptrEE5clearEvQnt27is_trivially_destructible_vIT_E.lto_priv.0
 .text          0x08009064     0x600c /tmp/ccwxil6c.ltrans1.ltrans.o
                0x080090c8                bn::by_value_template_action<bn::sprite_ptr, bn::fixed_point_t<12>, bn::sprite_position_manager>::update()
                0x08009140                bn::cyclic_by_value_template_action<bn::sprite_ptr, bn::fixed_t<12>, bn::sprite_rotation_manager>::update()
                0x08009220                bn::ideque<bn::sprite_animate_action<5> >::push_back(bn::sprite_animate_action<5>&&)
                0x080092ec                bn::to_value_template_action<bn::sprite_ptr, bn::fixed_t<12>, bn::sprite_vertical_scale_manager>::update()
                0x080093f4                bn::optional<bn::sprite_affine_mat_ptr>::operator*() [clone .part.0] [clone .lto_priv.0]
                0x080093f4                bn::optional<bn::sprite_palette_ptr>::operator*() [clone .part.0] [clone .lto_priv.0]
                0x080093f4                bn::optional<bn::fixed_t<12> >::operator*() [clone .part.0] [clone .lto_priv.0]
                0x080094e0                bf::game::enemy_bullets::clear()
                0x080095c8                bf::game::explosion::update()
                0x08009694                bf::game::(anonymous namespace)::_create_mini_explosion(bn::fixed_t<12>, bn::fixed_t<12>, bn::camera_ptr const&) [clone .lto_priv.1] [clone .lto_priv.0]
                0x08009694                bf::game::(anonymous namespace)::_create_mini_explosion(bn::fixed_t<12>, bn::fixed_t<12>, bn::camera_ptr const&) [clone .lto_priv.0] [clone .lto_priv.0]
                0x08009c48                bf::game::enemy_bullets::add_bullet(bn::fixed_point_t<12> const&, bn::fixed_point_t<12> const&, bf::game::enemy_bullet_event const&, bn::camera_ptr const&)
                0x0800a2e4                bf::game::enemies::update(bf::game::hero_bomb const&, bf::game::intro const&, bn::camera_ptr const&, bf::game::hero&, bf::game::enemy_bullets&, bf::game::objects&, bf::game::boss_intro&, bf::game::scoreboard&, bf::game::background&, bf::game::rumble_manager&) [clone .part.0]
                0x0800c120                bn::loop_value_template_action<bn::sprite_palette_ptr, bn::fixed_t<12>, bn::sprite_palette_fade_manager>::update()
                0x0800c1ec                bf::game::gigabat_boss::_update_sprites(bn::fixed_point_t<12> const&, bool)
                0x0800d380                bf::game::enemy::_add_damage(bn::fixed_point_t<12> const&, bn::fixed_t<12>, int, bn::camera_ptr const&)
                0x0800e498                bf::game::hero_bomb::update(bf::game::intro const&, bf::game::boss_intro const&, bn::camera_ptr const&, bf::game::hero&, bf::game::enemies&, bf::game::enemy_bullets&, bf::game::background&, bf::game::rumble_manager&)
 .text          0x0800f070     0x7414 /tmp/ccwxil6c.ltrans2.ltrans.o
                0x0800f1dc                bf::game::object::update()
                0x0800f278                bf::game::scoreboard::set_visible(bool)
                0x0800f50c                bf::game::tank_boss::_update_cannon_sprite(bn::fixed_t<12>, bn::fixed_point_t<12> const&)
                0x0800f740                bf::game::tank_boss::_update_base_sprites(bn::fixed_t<12>)
                0x0800f944                bf::game::tank_boss::_update_footprint_sprites(bn::fixed_t<12>)
                0x08010700                bf::game::objects::spawn_hero_bomb_without_sound(bn::fixed_point_t<12> const&, bn::camera_ptr const&) [clone .part.0]
                0x08010acc                bf::game::tank_boss::_update_jelly_sprite(bn::fixed_t<12>, bn::fixed_point_t<12> const&)
                0x080120f4                bf::game::intro::update(bf::butano_background const&)
                0x08013e5c                bf::game::objects::spawn_hero_weapon_without_sound(bn::fixed_point_t<12> const&, int, bn::camera_ptr const&) [clone .part.0]
                0x08014154                bf::game::hero::update(bf::game::hero_bomb const&, bf::game::enemies const&, bf::game::enemy_bullets&, bf::game::objects&, bf::game::background&, bf::butano_background&, bn::camera_ptr&, bf::game::rumble_manager&)
 .text          0x08016484     0x6c04 /tmp/ccwxil6c.ltrans3.ltrans.o
                0x080164e8                bn::unique_ptr<bf::scene, bn::default_delete<bf::scene> >::reset()
                0x08016504                bf::status::add_experience(int)
                0x08016564                bf::game::wizard_boss::_update_sprites(bn::fixed_point_t<12> const&)
                0x08016a9c                bn::istring::_append(char const*, int)
                0x08016b08                bf::(anonymous namespace)::_write_sram(bf::status&) [clone .lto_priv.0]
                0x08016c7c                bn::ivector<bf::how_to_play::entry_type>::push_back(bf::how_to_play::entry_type&&)
                0x08016d34                bf::(anonymous namespace)::_enable_blending(bn::ivector<bn::sprite_ptr>&) [clone .lto_priv.0]
                0x08016dd8                bf::how_to_play::entry_type::setup(int, int)
                0x08016ec0                bf::game::(anonymous namespace)::_add_wizard_sprite(bn::camera_ptr const&, bn::ivector<bn::sprite_ptr>&) [clone .lto_priv.0]
                0x08019120                bf::how_to_play::entry_type::~entry_type() [clone .lto_priv.0]
 .text          0x0801d088     0x6714 /tmp/ccwxil6c.ltrans4.ltrans.o
                0x0801d548                bn::audio_manager::(anonymous namespace)::static_data::~static_data() [clone .lto_priv.0]
                0x0801d548                bn::audio_manager::(anonymous namespace)::static_data::~static_data() [clone .lto_priv.0]
                0x0801d54c                bn::bg_blocks_manager::decrease_usages(int)
                0x0801d5f4                bn::bg_blocks_manager::(anonymous namespace)::static_data::~static_data() [clone .lto_priv.0]
                0x0801d5f4                bn::bg_blocks_manager::(anonymous namespace)::static_data::~static_data() [clone .lto_priv.0]
                0x0801d654                bn::camera_ptr::position() const
                0x0801d668                bn::bgs_manager::fill_hblank_effect_regular_positions(int, bn::fixed_t<12> const*, unsigned short*)
                0x0801d708                bn::bgs_manager::(anonymous namespace)::static_data::~static_data() [clone .lto_priv.0]
                0x0801d708                bn::bgs_manager::(anonymous namespace)::static_data::~static_data() [clone .lto_priv.0]
                0x0801d738                bn::audio_manager::stop_music()
                0x0801d79c                bn::core::(anonymous namespace)::stop(bool) [clone .lto_priv.0]
                0x0801da6c                bn::audio_manager::play_sound(int, bn::sound_item)
                0x0801db2c                bn::sound_item::play() const
                0x0801e80c                bn::bgs_manager::(anonymous namespace)::_insert_item(bn::bgs_manager::(anonymous namespace)::item_type&) [clone .lto_priv.0]
                0x0801f848                bn::optional<bn::affine_bg_map_ptr>::operator*() const [clone .part.0] [clone .lto_priv.0]
                0x0801f848                bn::optional<bn::regular_bg_tiles_ptr>::operator*() const [clone .part.0] [clone .lto_priv.0]
                0x0801f848                bn::optional<bn::affine_bg_tiles_ptr>::operator*() const [clone .part.0] [clone .lto_priv.0]
                0x0801f870                bn::bgs_manager::create(bn::regular_bg_builder&&)
                0x080236d4                bn::music::set_volume(bn::fixed_t<12>)
 .text.startup  0x0802379c     0x23dc /tmp/ccwxil6c.ltrans4.ltrans.o
                0x0802379c                main
 .text          0x08025b78     0x7254 /tmp/ccwxil6c.ltrans5.ltrans.o
                0x08025f14                _bn::assert::show(char const*, char const*, char const*, int)
                0x08025f44                _bn::assert::show(char const*, char const*, char const*, int, bn::istring_base const&)
                0x08025f5c                bn::display_manager::(anonymous namespace)::_update_rect_windows_hw_boundaries(int) [clone .lto_priv.0]
                0x08025fe0                bn::rect_window::set_top(bn::fixed_t<12>)
                0x08026044                bn::rect_window::set_boundaries(bn::fixed_point_t<12> const&, bn::fixed_point_t<12> const&)
                0x0802611c                bn::rect_window::set_bottom(bn::fixed_t<12>)
                0x08026180                bn::rect_window::set_camera(bn::camera_ptr const&)
                0x08026210                bn::display_manager::(anonymous namespace)::static_data::~static_data() [clone .lto_priv.0]
                0x08026210                bn::display_manager::(anonymous namespace)::static_data::~static_data() [clone .lto_priv.0]
                0x0802625c                bn::rumble::set_enabled(bool)
                0x0802629c                bn::hdma_manager::commit(bool)
                0x080263bc                operator new(unsigned int)
                0x080263ec                operator new[](unsigned int)
                0x0802641c                operator new(unsigned int, std::nothrow_t const&)
                0x0802644c                operator new[](unsigned int, std::nothrow_t const&)
                0x0802647c                operator delete(void*)
                0x08026488                operator delete[](void*)
                0x08026494                operator delete(void*, unsigned int)
                0x080264a0                operator delete[](void*, unsigned int)
                0x080264ac                operator delete(void*, std::nothrow_t const&)
                0x080264b8                operator delete[](void*, std::nothrow_t const&)
                0x080264c4                bn::sprite_palette_ptr::sprite_palette_ptr(bn::sprite_palette_ptr const&)
                0x080264c4                bn::sprite_palette_ptr::sprite_palette_ptr(bn::sprite_palette_ptr const&)
                0x080264e0                bn::palettes_bank::find_bpp_4(bn::span<bn::color const> const&, unsigned short)
                0x080265fc                bn::palettes_bank::update()
                0x08026730                bn::palettes_bank::_on_global_effect_updated(bool)
                0x080267b0                bn::palettes_manager::(anonymous namespace)::static_data::~static_data() [clone .lto_priv.0]
                0x080267b0                bn::palettes_manager::(anonymous namespace)::static_data::~static_data() [clone .lto_priv.0]
                0x080267b4                bn::sprite_affine_mats_manager::(anonymous namespace)::_update_flipped_identity(int) [clone .lto_priv.0]
                0x08026870                bool bn::sprite_affine_mats_manager::(anonymous namespace)::_sprite_double_size<32, 16>(int, int, int, int, int) [clone .lto_priv.0]
                0x080268f4                bool bn::sprite_affine_mats_manager::(anonymous namespace)::_sprite_double_size<16, 32>(int, int, int, int, int) [clone .lto_priv.0]
                0x08026978                bn::sprite_affine_mats_manager::(anonymous namespace)::static_data::~static_data() [clone .lto_priv.0]
                0x08026978                bn::sprite_affine_mats_manager::(anonymous namespace)::static_data::~static_data() [clone .lto_priv.0]
                0x080269b4                bn::sprite_ptr::set_y(bn::fixed_t<12>)
                0x080269fc                bn::sprite_ptr::set_visible(bool)
                0x08026a60                bn::sprites_manager::(anonymous namespace)::_always_update_indexes_to_commit(bn::sprites_manager_item const&) [clone .lto_priv.0]
                0x08026aa8                bn::sprite_ptr::set_vertical_flip(bool)
                0x08026b70                bn::sprites_manager::set_vertical_flip(void*, bool)
                0x08026d0c                bn::sprites_manager::(anonymous namespace)::_update_item_dimensions(bn::sprites_manager_item&) [clone .lto_priv.0]
                0x08026de4                bn::sprites_manager::set_horizontal_flip(void*, bool)
                0x08026eac                bn::sprites_manager::set_double_size_mode(void*, bn::sprite_double_size_mode) [clone .part.0]
                0x08026f20                bn::sprite_text_generator::generate(bn::fixed_t<12>, bn::fixed_t<12>, bn::string_view const&, bn::ivector<bn::sprite_ptr>&) const
                0x08026f60                bn::sprite_affine_mats_manager::decrease_usages(int)
                0x08026fd8                bn::memory_manager::(anonymous namespace)::static_data::~static_data() [clone .lto_priv.0]
                0x08026fd8                bn::memory_manager::(anonymous namespace)::static_data::~static_data() [clone .lto_priv.0]
                0x08027010                bn::sprite_affine_mats_manager::(anonymous namespace)::_new_item_index() [clone .lto_priv.0]
                0x080270b4                bn::sprite_affine_mat_ptr::create()
                0x08027164                bn::sprite_affine_mat_ptr::create(bn::affine_mat_attributes const&)
                0x08027270                bn::sprites_manager::(anonymous namespace)::_assign_affine_mat(bool, bn::sprites_manager_item&, bn::sprite_affine_mat_ptr&&) [clone .lto_priv.0]
                0x080273b8                bn::sprites_manager::set_new_affine_mat(void*, bn::affine_mat_attributes&)
                0x0802752c                bn::sprite_ptr::set_blending_enabled(bool)
                0x080275c8                bn::sprites_manager::create(bn::fixed_point_t<12> const&, bn::sprite_shape_size const&, bn::sprite_tiles_ptr&&, bn::sprite_palette_ptr&&)
                0x08027798                bn::sprites_manager::(anonymous namespace)::static_data::~static_data() [clone .lto_priv.0]
                0x08027798                bn::sprites_manager::(anonymous namespace)::static_data::~static_data() [clone .lto_priv.0]
                0x080277fc                bn::sprites_manager::(anonymous namespace)::_remove_affine_mat(bn::sprites_manager_item&) [clone .lto_priv.0]
                0x08027910                bn::hblank_effects_manager::create(void const*, int, int, bn::hblank_effects_manager::handler_type)
                0x08027964                bn::sprite_builder::sprite_builder(bn::sprite_item const&, int)
                0x08027964                bn::sprite_builder::sprite_builder(bn::sprite_item const&, int)
                0x080279f8                bn::keypad_manager::update()
                0x08027aa0                bn::hblank_effects_manager::(anonymous namespace)::_is_uint32(bn::hblank_effects_manager::handler_type) [clone .lto_priv.0]
                0x08027b04                bn::hblank_effects_manager::(anonymous namespace)::item_type::cleanup() [clone .lto_priv.0]
                0x08027c4c                bn::hblank_effects_manager::decrease_usages(int) [clone .part.0]
                0x08027da0                bn::hbe_ptr::~hbe_ptr()
                0x08027dd4                bn::sprite_affine_mat_attributes_hbe_ptr::create(bn::sprite_affine_mat_ptr const&, bn::span<bn::affine_mat_attributes const> const&)
                0x08027fd0                bn::hblank_effects_manager::(anonymous namespace)::_update_visible_item_index(int) [clone .lto_priv.0]
                0x08028084                bn::hblank_effects_manager::(anonymous namespace)::item_type::check_update() [clone .lto_priv.0]
                0x0802a390                bn::sprites_manager::set_tiles(void*, bn::sprite_tiles_ptr const&)
                0x0802a5d0                bn::isprite_cached_animate_action::update()
                0x0802a678                bn::sprites_manager::set_tiles(void*, bn::sprite_tiles_ptr&&)
                0x0802a894                bn::palettes_bank::_erase_bpp_4_indexes_map_index(unsigned short)
                0x0802aa74                bn::palettes_bank::decrease_usages(int)
                0x0802aaf8                bn::sprite_palette_ptr::~sprite_palette_ptr()
                0x0802aaf8                bn::sprite_palette_ptr::~sprite_palette_ptr()
                0x0802ab18                bn::sprite_ptr::~sprite_ptr()
                0x0802ab18                bn::sprite_ptr::~sprite_ptr()
                0x0802ad04                bn::sprite_ptr::set_palette(bn::sprite_palette_ptr const&)
                0x0802adec                bn::sprite_ptr::set_tiles(bn::sprite_tiles_item const&, int)
                0x0802aef8                bn::isprite_animate_action::update()
                0x0802afb0                bn::palettes_bank::log_status() const
                0x0802b380                bn::(anonymous namespace)::_setup_builder(bn::sprite_text_generator const&, bn::sprite_builder&) [clone .lto_priv.0]
                0x0802b4ac                bn::(anonymous namespace)::_graphics_index(char, bn::utf8_characters_map_ref const&, char const*, int&) [clone .part.0] [clone .lto_priv.0]
                0x0802b650                bn::sprite_text_generator::width(bn::string_view const&) const
                0x0802b860                bn::bg_palette_ptr::create(bn::bg_palette_item const&)
                0x0802b99c                bn::sprite_palette_item::decompress(bn::span<bn::color>) const
                0x0802bb04                bn::sprite_palette_ptr::find(bn::sprite_palette_item const&)
                0x0802bbf8                bn::sprite_palette_ptr::create(bn::sprite_palette_item const&)
                0x0802bc3c                bn::sprites_manager::create(bn::sprite_builder&&)
                0x0802c1c4                bn::sprite_ptr::create(bn::sprite_builder const&)
                0x0802c334                bn::tile* bn::(anonymous namespace)::_build_sprite_assert<(bn::sprite_size)1>(bn::sprite_text_generator const&, bn::sprite_palette_ptr const&, bn::fixed_point_t<12> const&, bn::ivector<bn::sprite_ptr>&) [clone .lto_priv.0]
                0x0802c520                bn::tile* bn::(anonymous namespace)::_build_sprite_assert<(bn::sprite_size)2>(bn::sprite_text_generator const&, bn::sprite_palette_ptr const&, bn::fixed_point_t<12> const&, bn::ivector<bn::sprite_ptr>&) [clone .lto_priv.0]
                0x0802c70c                bn::sprite_palette_ptr::set_colors(bn::sprite_palette_item const&) [clone .part.0]
                0x0802c748                bn::blending::set_transparency_alpha(bn::fixed_t<12>)
                0x0802c7dc                bn::blending::set_intensity_alpha(bn::fixed_t<12>)
                0x0802c870                bn::bgs_mosaic::set_stretch(bn::fixed_t<12>)
                0x0802c8e0                bn::palettes_bank::set_fade_intensity(int, bn::fixed_t<12>)
                0x0802c950                bn::palettes_bank::set_fade_intensity(bn::fixed_t<12>)
                0x0802c9b0                bn::palettes_bank::set_brightness(bn::fixed_t<12>)
                0x0802ca14                bn::palettes_bank::set_contrast(bn::fixed_t<12>)
                0x0802ca78                bn::sprite_affine_mats_manager::set_rotation_angle(int, bn::fixed_t<12>)
                0x0802cbbc                bn::sprite_affine_mats_manager::set_scale(int, bn::fixed_t<12>)
                0x0802cd08                bn::sprite_ptr::set_scale(bn::fixed_t<12>)
 .text          0x0802cdcc     0x5e04 /tmp/ccwxil6c.ltrans6.ltrans.o
                0x0802cdcc                bn::hw::link::(anonymous namespace)::_resetStateCallback() [clone .lto_priv.0]
                0x0802d6d0                bn::ostringstream::ostringstream(bn::istring_base&)
                0x0802d6d0                bn::ostringstream::ostringstream(bn::istring_base&)
                0x0802d6d8                bn::hw::link::disable()
                0x0802d75c                bn::lc::LinkConnection::stop() [clone .constprop.0]
                0x0802d788                bn::hw::palettes::hue_shift(bn::color const*, int, int, bn::color*)
                0x0802d8d4                VgmStop()
                0x0802d994                clr_grayscale
                0x0802da08                gbt_refresh_pattern_ptr.lto_priv.0
                0x0802da8c                gbt_run_startup_commands.part.0.lto_priv.0
                0x0802db20                bn::hw::audio::(anonymous namespace)::_commit() [clone .lto_priv.0]
                0x0802e280                bn::hw::audio::(anonymous namespace)::_vblank_handler() [clone .lto_priv.0]
                0x0802e2f8                bn::best_fit_allocator::free(void*) [clone .constprop.0]
                0x0802e414                bn::bg_blocks_manager::(anonymous namespace)::items_list::insert_after(int, bn::bg_blocks_manager::(anonymous namespace)::item_type const&) [clone .constprop.0]
                0x0802e6d0                bn::hw::bgs::commit_data::commit_data() [clone .constprop.0] [clone .isra.0]
                0x0802e72c                bn::bg_blocks_manager::(anonymous namespace)::items_list::items_list() [clone .constprop.0] [clone .isra.0]
                0x0802e778                bn::sprite_affine_mats_manager::(anonymous namespace)::static_data::static_data() [clone .constprop.0] [clone .isra.0]
                0x0802e81c                bn::sprite_tiles_manager::(anonymous namespace)::static_data::static_data() [clone .constprop.0] [clone .isra.0]
                0x0802e948                bn::display_manager::(anonymous namespace)::static_data::static_data() [clone .constprop.0] [clone .isra.0]
                0x0802e9d8                bn::hdma_manager::(anonymous namespace)::static_data::static_data() [clone .constprop.0] [clone .isra.0]
                0x0802ea0c                bn::hblank_effects_manager::(anonymous namespace)::static_external_data::static_external_data() [clone .constprop.0] [clone .isra.0]
                0x0802eae4                bn::core::(anonymous namespace)::static_data::static_data() [clone .constprop.0] [clone .isra.0]
                0x0802eb4c                bn::sprite_tiles_manager::vram(int)
                0x0802eb98                bn::best_fit_allocator::alloc(int) [clone .constprop.0]
                0x0802ecfc                malloc
                0x0802ed08                bn::sprite_tiles_manager::(anonymous namespace)::_hw_commit(bn::tile const*, bn::compression_type, int, int) [clone .lto_priv.0]
                0x0802eda0                bn::ostringstream::append(void const*)
                0x0802ef94                bn::sprite_tiles_manager::(anonymous namespace)::_insert_to_commit_item(int, bn::sprite_tiles_manager::(anonymous namespace)::item_type&) [clone .part.0] [clone .lto_priv.0]
                0x0802f000                bn::hw::link::_timer_intr()
                0x0802f0f4                bn::hw::link::_serial_intr()
                0x0802f390                bn::sprite_tiles_manager::(anonymous namespace)::_erase_to_commit_item(int, bn::sprite_tiles_manager::(anonymous namespace)::item_type&) [clone .part.0] [clone .lto_priv.0]
                0x0802f434                bn::sprite_tiles_manager::decrease_usages(int)
                0x0802f570                bn::iunordered_map<unsigned int, bn::audio_manager::sound_data_type, bn::identity_hasher, bn::equal_to<unsigned int> >::operator()(unsigned int, unsigned int const&) [clone .constprop.0]
                0x0802f6a8                bn::sprite_tiles_manager::(anonymous namespace)::_erase_items_map_item(bn::tile const*) [clone .lto_priv.0]
                0x0802f8c8                bn::sprite_tiles_manager::update()
                0x0802fa78                bn::sprite_tiles_manager::(anonymous namespace)::_insert_items_map_item(bn::tile const*, int) [clone .lto_priv.0]
                0x0802ff58                bn::istring::append(char const*, int) [clone .isra.0]
                0x08030008                bn::ostringstream::append(char const*)
                0x080300ac                bn::ostringstream::append(int)
                0x08030220                bn::hw::show::error(bn::system_font const&, bn::string_view const&, bn::string_view const&, bn::string_view const&, int, bn::string_view const&, bn::string_view const&) [clone .constprop.0]
                0x080305a8                bn::hw::text::parse(unsigned int, bn::array<char, 32>&)
                0x08030648                bn::ostringstream::append(unsigned int)
                0x080306f8                bn::ostringstream::_append_fraction(unsigned int, int)
                0x0803080c                bn::istring::append(char const*) [clone .isra.0]
                0x08030e38                void _bn::assert::show_args<char [16], int, char [4], signed char>(char const*, char const*, char const*, int, char const (&) [16], int const&, char const (&) [4], signed char const&) [clone .constprop.0]
                0x08030ea8                void _bn::assert::show_args<char [14], bn::fixed_t<12>, char [4], bn::fixed_t<12> >(char const*, char const*, char const*, int, char const (&) [14], bn::fixed_t<12> const&, char const (&) [4], bn::fixed_t<12> const&) [clone .constprop.0]
                0x08030f0c                void _bn::assert::show_args<char [35], unsigned int>(char const*, char const*, char const*, int, char const (&) [35], unsigned int const&) [clone .constprop.0]
                0x08030fbc                bn::sprite_tiles_manager::allocate(int, bn::bpp_mode) [clone .constprop.0]
                0x08031114                void _bn::assert::show_args<char [20], char, char [9], bn::string_view, char [2]>(char const*, char const*, char const*, int, char const (&) [20], char const&, char const (&) [9], bn::string_view const&, char const (&) [2]) [clone .constprop.0]
                0x08031298                bn::sprite_tiles_manager::(anonymous namespace)::_find_impl(bn::tile const*, bn::compression_type, int) [clone .lto_priv.0]
                0x0803156c                bn::sprite_tiles_manager::create(bn::span<bn::tile const> const&, bn::compression_type) [clone .isra.0]
                0x080315b8                bn::sprite_tiles_ptr::create(bn::sprite_tiles_item const&)
                0x08031634                void _bn::assert::show_args<char [27], unsigned char>(char const*, char const*, char const*, int, char const (&) [27], unsigned char const&) [clone .constprop.0]
                0x0803168c                void _bn::assert::show_args<char [52], unsigned short>(char const*, char const*, char const*, int, char const (&) [52], unsigned short const&) [clone .constprop.0]
                0x080316e0                void _bn::assert::show_args<char [20], int, char [4], unsigned short>(char const*, char const*, char const*, int, char const (&) [20], int const&, char const (&) [4], unsigned short const&) [clone .constprop.0]
                0x08031748                bn::sprite_tiles_ptr::create(bn::sprite_tiles_item const&, int)
                0x080317f8                void _bn::assert::show_args<char [32], char [15], unsigned short const*, char [16], int, char [17], int, char [34], bn::string_view>(char const*, char const*, char const*, int, char const (&) [32], char const (&) [15], unsigned short const* const&, char const (&) [16], int const&, char const (&) [17], int const&, char const (&) [34], bn::string_view const&) [clone .constprop.0]
                0x080318f8                bn::palettes_bank::create_bpp_4(bn::span<bn::color const> const&, unsigned short, bool) [clone .constprop.0]
                0x08031a28                void _bn::assert::show_args<char [30], char [13], unsigned short const*, char [14], int, char [15], int, char [17], int, char [34], bn::string_view>(char const*, char const*, char const*, int, char const (&) [30], char const (&) [13], unsigned short const* const&, char const (&) [14], int const&, char const (&) [15], int const&, char const (&) [17], int const&, char const (&) [34], bn::string_view const&) [clone .constprop.0]
                0x08031adc                bn::igeneric_pool_base::_allocate()
                0x08031b24                bn::hw::audio::(anonymous namespace)::_add_sound_to_queue(int, unsigned short) [clone .lto_priv.0]
                0x08031bf0                bn::sorted_sprites::sorter::insert(bn::sprites_manager_item&) [clone .constprop.0]
                0x08031df8                bn::hw::link::(anonymous namespace)::_sendDataCallback() [clone .lto_priv.0]
                0x08031edc                bn::hw::link::(anonymous namespace)::_receiveResponseCallback(bn::lc::LinkResponse const&) [clone .lto_priv.0]
                0x08032038                bn::ivector<bn::bgs_manager::(anonymous namespace)::item_type*>::size_type bn::erase<bn::bgs_manager::(anonymous namespace)::item_type*>(bn::ivector<bn::bgs_manager::(anonymous namespace)::item_type*>&, bn::bgs_manager::(anonymous namespace)::item_type* const&) [clone .constprop.0] [clone .isra.0]
                0x08032174                bn::hw::audio::(anonymous namespace)::_erase_sound_from_queue(unsigned short) [clone .lto_priv.0]
                0x0803220c                bn::hw::audio::(anonymous namespace)::_check_sounds_queue() [clone .part.0] [clone .lto_priv.0]
                0x080322ac                bn::audio_manager::play_music(bn::music_item, bn::fixed_t<12>, bool) [clone .constprop.0]
                0x0803234c                bn::hw::audio::(anonymous namespace)::static_data::~static_data() [clone .lto_priv.0]
                0x0803234c                bn::hw::audio::(anonymous namespace)::static_data::~static_data() [clone .lto_priv.0]
                0x08032350                bn::palettes_bank::set_colors(int, bn::span<bn::color const> const&) [clone .constprop.0]
                0x08032460                bn::palettes_bank::create_bpp_8(bn::span<bn::color const> const&, bn::compression_type, bool) [clone .constprop.0]
                0x08032668                bn::(anonymous namespace)::_create_impl(bn::sprite_palette_item const&, bool) [clone .constprop.0]
                0x080326e0                bn::(anonymous namespace)::_create_impl(bn::bg_palette_item const&, bool) [clone .constprop.0]
                0x08032770                bn::hblank_effects_manager::(anonymous namespace)::_create(void const*, int, bn::hblank_effects_manager::handler_type, bool) [clone .constprop.0]
                0x08032a30                bn::palettes_bank::set_grayscale_intensity(int, bn::fixed_t<12>) [clone .constprop.0]
                0x08032ab0                bn::sprite_builder::set_vertical_scale(bn::fixed_t<12>) [clone .constprop.0] [clone .isra.0]
 .text          0x08032bd0     0x96f0 /tmp/ccwxil6c.ltrans7.ltrans.o
                0x08032bd0                bn::camera_ptr::~camera_ptr() [clone .isra.0]
                0x08032bfc                bn::sprite_ptr::set_horizontal_flip(bool) [clone .isra.0]
                0x08032cc4                bn::sprite_ptr::set_position(bn::fixed_point_t<12> const&) [clone .isra.0]
                0x08032d3c                bn::sprite_builder::set_horizontal_flip(bool) [clone .isra.0]
                0x08032dd0                bn::sprite_affine_mats_manager::(anonymous namespace)::item_type::sprite_double_size(int, bn::sprite_shape_size const&) const [clone .isra.0]
                0x08032f7c                bn::sprite_affine_mats_manager::sprite_double_size(int, bn::sprite_shape_size const&) [clone .isra.0]
                0x08032fc8                bn::bg_palette_ptr::~bg_palette_ptr() [clone .isra.0]
                0x08032fe0                bn::palettes_bank::palettes_bank() [clone .isra.0]
                0x080330b4                bf::game::(anonymous namespace)::_set_visible(bool, bn::ivector<bn::sprite_ptr>&) [clone .isra.0]
                0x08033154                bn::sprite_affine_mat_ptr::~sprite_affine_mat_ptr() [clone .isra.0]
                0x080331cc                bn::sprite_affine_mat_attributes_hbe_ptr::~sprite_affine_mat_attributes_hbe_ptr() [clone .isra.0]
                0x08033284                bn::iunordered_map<unsigned short, short, bn::identity_hasher, bn::equal_to<unsigned short> >::insert_or_assign_hash(unsigned int, std::pair<unsigned short const, short>&&) [clone .isra.0]
                0x08033394                bn::palettes_bank::colors_hash(bn::span<bn::color const> const&) [clone .isra.0]
                0x080333d8                bn::regular_bg_ptr::~regular_bg_ptr() [clone .isra.0]
                0x080334c4                bn::string_view::string_view(char const*) [clone .isra.0]
                0x08033504                bn::regular_bg_ptr::palette() const [clone .isra.0]
                0x08033558                bf::intro::intro(bn::sprite_text_generator&, bf::butano_background&) [clone .isra.0]
                0x080338f0                bn::isprite_cached_animate_action::_assign_graphics_indexes(bn::sprite_tiles_item const&, bn::span<unsigned short const> const&) [clone .isra.0]
                0x08033a30                bn::sprite_shape_size::height() const [clone .isra.0]
                0x08033b00                bn::sprite_shape_size::width() const [clone .isra.0]
                0x08033bcc                bn::sprite_text_generator::sprite_text_generator(bn::sprite_font const&) [clone .isra.0]
                0x08033c84                bn::sprite_shape_size::tiles_count(bn::bpp_mode) const [clone .isra.0]
                0x08033dd4                bf::status::status() [clone .isra.0]
                0x08033ea0                bn::isprite_animate_action::_assign_graphics_indexes(bn::span<unsigned short const> const&) [clone .isra.0]
                0x08033f20                bn::sprite_builder::sprite_builder(bn::sprite_shape_size const&, bn::sprite_tiles_ptr, bn::sprite_palette_ptr) [clone .isra.0]
                0x08034184                bn::sprite_ptr::set_vertical_scale(bn::fixed_t<12>) [clone .isra.0]
                0x080342fc                bn::sprite_builder::set_scale(bn::fixed_t<12>) [clone .isra.0]
                0x08034404                bn::sprite_builder::set_horizontal_scale(bn::fixed_t<12>) [clone .isra.0]
                0x080345c4                bn::sprite_ptr::set_horizontal_scale(bn::fixed_t<12>) [clone .isra.0]
                0x0803473c                bn::sprite_ptr::set_rotation_angle(bn::fixed_t<12>) [clone .isra.0]
                0x080347f0                bn::sprite_palette_ptr::set_fade_intensity(bn::fixed_t<12>) [clone .isra.0]
                0x08034864                bool bn::(anonymous namespace)::_generate<false>(bn::sprite_text_generator const&, bn::fixed_point_t<12> const&, bn::string_view const&, bn::utf8_characters_map_ref const&, int, int, bool, bn::ivector<bn::sprite_ptr>&) [clone .isra.0]
                0x0803598c                bf::how_to_play::entry_type::entry_type(bf::how_to_play::entry_type&&) [clone .isra.0]
                0x08035c60                bf::how_to_play::how_to_play(bf::scene_type, bf::status&, bn::sprite_text_generator&, bf::butano_background&) [clone .isra.0]
                0x08036ab4                bf::game::wizard_boss::wizard_boss(bn::fixed_point_t<12> const&, bn::sprite_palette_ptr const&, bn::camera_ptr const&) [clone .isra.0]
                0x08037954                bn::sprite_move_to_action& bn::optional<bn::sprite_move_to_action>::emplace<bn::sprite_ptr&, int const&, bn::fixed_t<12>, bn::fixed_t<12> >(bn::sprite_ptr&, int const&, bn::fixed_t<12>&&, bn::fixed_t<12>&&) [clone .isra.0]
                0x08037a10                bf::game::tank_boss::tank_boss(bn::fixed_point_t<12> const&, bn::sprite_palette_ptr const&, bn::camera_ptr const&) [clone .isra.0]
                0x08038eac                bf::game::object_message::object_message(bn::fixed_point_t<12> const&, int, bn::camera_ptr const&) [clone .isra.0]
                0x08039078                bf::game::gigabat_boss::gigabat_boss(bn::fixed_point_t<12> const&, bn::sprite_palette_ptr const&, bn::camera_ptr const&) [clone .isra.0]
                0x08039a54                bf::game::explosion::explosion(bn::sprite_item const&, bn::fixed_point_t<12> const&, int, int, bool, bn::camera_ptr const&) [clone .isra.0]
                0x0803a4c4                bf::game::game::game(bf::status&, bn::sprite_text_generator&, bf::butano_background&) [clone .isra.0]
 .text.startup  0x0803c2c0      0x318 /tmp/ccwxil6c.ltrans7.ltrans.o
 .text.__libc_init_array
                0x0803c5d8       0x50 bn_hw_common.bn_noflto.o
                0x0803c5d8                __libc_init_array
 .text.__aeabi_atexit
                0x0803c628        0x4 bn_hw_common.bn_noflto.o
                0x0803c628                __aeabi_atexit
 .text.__cxa_pure_virtual
                0x0803c62c       0x24 bn_hw_common.bn_noflto.o
                0x0803c62c                __cxa_pure_virtual
 .text._ZN3_bn6assert9show_argsIA40_cEEvPKcS4_S4_iRKT_
                0x0803c650       0x48 bn_hw_common.bn_noflto.o
                0x0803c650                void _bn::assert::show_args<char [40]>(char const*, char const*, char const*, int, char const (&) [40])
 .text.__aeabi_idiv0
                0x0803c698       0x24 bn_hw_common.bn_noflto.o
                0x0803c698                __aeabi_idiv0
 .text._ZN2bn2hw4gpio4initEv
                0x0803c6bc        0x8 bn_hw_gpio.bn_noflto.o
                0x0803c6bc                bn::hw::gpio::init()
 .text._ZN2bn2hw4sram4initEv
                0x0803c6c4       0x18 bn_hw_sram.bn_noflto.o
                0x0803c6c4                bn::hw::sram::init()
 .text          0x0803c6dc       0x1c bn_hw_core.o
                0x0803c6dc                bn_hw_soft_reset
                0x0803c6f4                bn_hw_hard_reset
 .text.Stop     0x0803c6f8        0x4 tonc_bios.o
                0x0803c6f8                Stop
 .text.VBlankIntrWait
                0x0803c6fc        0x4 tonc_bios.o
                0x0803c6fc                VBlankIntrWait
 .text.memset16
                0x0803c700       0x3c tonc_memset.o
                0x0803c700                memset16
 .text          0x0803c73c      0x26c posprintf.o
                0x0803c740                posprintf
 .text          0x0803c9a8      0x314 mm_effect.o
                0x0803c9a8                mmResetEffects
                0x0803c9d4                mmEffect
                0x0803c9ea                mmEffectEx
                0x0803caea                mmEffectActive
                0x0803cb1e                mmEffectVolume
                0x0803cb3a                mmEffectPanning
                0x0803cb4e                mmEffectRate
                0x0803cb62                mmEffectCancel
                0x0803cb9c                mmEffectRelease
                0x0803cbc2                mmEffectScaleRate
                0x0803cbd6                mmSetEffectsVolume
                0x0803cbe4                mmEffectCancelAll
                0x0803cc24                mmUpdateEffects
 .text          0x0803ccbc       0x14 mm_main.o
                0x0803ccbc                mpp_call_r7
                0x0803ccbe                mpp_call_r1
                0x0803ccc0                mpp_call_r2
                0x0803ccc2                mpp_call_r3
                0x0803ccc4                mmSetEventHandler
 .text          0x0803ccd0     0x1570 mm_mas.o
                0x0803cd44                mmStart
                0x0803cd64                mmJingle
                0x0803cd6a                mmPlayModule
                0x0803ce34                mmPause
                0x0803ce50                mmResume
                0x0803ce60                mmActive
                0x0803ce66                mmActiveSub
                0x0803ce6c                mmSetModuleVolume
                0x0803ce7c                mmSetJingleVolume
                0x0803ceb8                mmGetPositionTick
                0x0803cebe                mmGetPositionRow
                0x0803cec4                mmGetPosition
                0x0803ceca                mmPosition
                0x0803cee4                mmSetModuleTempo
                0x0803cf16                mmSetModulePitch
                0x0803cf58                mmStop
                0x0803d01e                mppUpdateSub
                0x0803d17a                mpp_Process_VolumeCommand
                0x0803d3b2                mpp_Process_Effect
                0x0803db00                ST3_FREQTABLE
                0x0803df20                IT_PitchTable
 .text          0x0803e240      0x12c mm_main_gba.o
                0x0803e240                mmInit
                0x0803e294                mmSetVBlankHandler
                0x0803e29a                mmFrame
 .text          0x0803e36c      0x1e0 mm_mixer_gba.o
                0x0803e36c                mmMixerSetSource
                0x0803e380                mmMixerSetRead
                0x0803e38e                mmMixerSetFreq
                0x0803e39e                mmMixerMulFreq
                0x0803e3b2                mmMixerStopChannel
                0x0803e3c4                mmMixerChannelActive
                0x0803e3d6                mmMixerSetVolume
                0x0803e3e4                mmMixerSetPan
                0x0803e3f2                mmMixerInit
 .text          0x0803e54c       0x3c /opt/devkitpro/devkitARM/bin/../lib/gcc/arm-none-eabi/14.2.0/thumb/libgcc.a(_call_via_rX.o)
                0x0803e54c                _call_via_r0
                0x0803e550                _call_via_r1
                0x0803e554                _call_via_r2
                0x0803e558                _call_via_r3
                0x0803e55c                _call_via_r4
                0x0803e560                _call_via_r5
                0x0803e564                _call_via_r6
                0x0803e568                _call_via_r7
                0x0803e56c                _call_via_r8
                0x0803e570                _call_via_r9
                0x0803e574                _call_via_sl
                0x0803e578                _call_via_fp
                0x0803e57c                _call_via_ip
                0x0803e580                _call_via_sp
                0x0803e584                _call_via_lr
 .text.__stub   0x0803e588      0x130 linker stubs
 *(.gnu.linkonce.t.*)
 *(.text.*personality*)
 *(.gnu.warning)
 *(.glue_7t)
 .glue_7t       0x0803e718        0x0 linker stubs
 *(.glue_7)
 .glue_7        0x0803e718        0x0 linker stubs
 *(.vfp11_veneer)
 .vfp11_veneer  0x0803e718        0x0 linker stubs
                0x0803e718                        . = ALIGN (0x4)
                0x0803e718                        __text_end = .

.v4_bx          0x0803e718        0x0
 .v4_bx         0x0803e718        0x0 linker stubs

.iplt           0x0803e718        0x0
 .iplt          0x0803e718        0x0 /opt/devkitpro/devkitARM/bin/../lib/gcc/arm-none-eabi/14.2.0/../../../../arm-none-eabi/lib/thumb/gba_crt0.o

.fini           0x0803e718        0xc
 *(.fini)
 .fini          0x0803e718        0x4 /opt/devkitpro/devkitARM/bin/../lib/gcc/arm-none-eabi/14.2.0/thumb/crti.o
                0x0803e718                _fini
 .fini          0x0803e71c        0x8 /opt/devkitpro/devkitARM/bin/../lib/gcc/arm-none-eabi/14.2.0/thumb/crtn.o
                0x0803e724                        . = ALIGN (0x4)

.rodata         0x0803e724   0x308a70
 *(.rodata)
 .rodata        0x0803e724     0x1ba0 big_font_bn_gfx.o
                0x0803e724                big_font_bn_gfxTiles
                0x080402a4                big_font_bn_gfxPal
 .rodata        0x080402c4      0xe20 boss_intro_bn_gfx.o
                0x080402c4                boss_intro_bn_gfxTiles
                0x080410c4                boss_intro_bn_gfxPal
 .rodata        0x080410e4     0x1220 brightness_bn_gfx.o
                0x080410e4                brightness_bn_gfxTiles
                0x080422e4                brightness_bn_gfxPal
 .rodata        0x08042304      0xc60 butano_background_bn_gfx.o
                0x08042304                butano_background_bn_gfxTiles
                0x08042744                butano_background_bn_gfxMap
                0x08042f44                butano_background_bn_gfxPal
 .rodata        0x08042f64     0x1020 butano_big_silhouette_bn_gfx.o
                0x08042f64                butano_big_silhouette_bn_gfxTiles
                0x08043f64                butano_big_silhouette_bn_gfxPal
 .rodata        0x08043f84     0x20c0 butano_big_sprite_bn_gfx.o
                0x08043f84                butano_big_sprite_bn_gfxTiles
                0x08045f84                butano_big_sprite_bn_gfxPal
 .rodata        0x08046044      0x820 butano_fire_bn_gfx.o
                0x08046044                butano_fire_bn_gfxTiles
                0x08046844                butano_fire_bn_gfxPal
 .rodata        0x08046864      0x100 butano_flash_palette_bn_gfx.o
                0x08046864                butano_flash_palette_bn_gfxTiles
                0x080468a4                butano_flash_palette_bn_gfxPal
 .rodata        0x08046964      0xc20 butano_font_bn_gfx.o
                0x08046964                butano_font_bn_gfxTiles
                0x08047564                butano_font_bn_gfxPal
 .rodata        0x08047584     0xce20 butano_huge_bn_gfx.o
                0x08047584                butano_huge_bn_gfxTiles
                0x080531c4                butano_huge_bn_gfxMap
                0x080541c4                butano_huge_bn_gfxPal
 .rodata        0x080543a4     0x15e0 clouds_bn_gfx.o
                0x080543a4                clouds_bn_gfxTiles
                0x08055164                clouds_bn_gfxMap
                0x08055964                clouds_bn_gfxPal
 .rodata        0x08055984      0x120 enemy_bullets_bn_gfx.o
                0x08055984                enemy_bullets_bn_gfxTiles
                0x08055a84                enemy_bullets_bn_gfxPal
 .rodata        0x08055aa4    0x10020 enemy_explosion_bn_gfx.o
                0x08055aa4                enemy_explosion_bn_gfxTiles
                0x08065aa4                enemy_explosion_bn_gfxPal
 .rodata        0x08065ac4       0xa0 experience_bar_bn_gfx.o
                0x08065ac4                experience_bar_bn_gfxTiles
                0x08065b44                experience_bar_bn_gfxPal
 .rodata        0x08065b64       0xa0 experience_frame_back_bn_gfx.o
                0x08065b64                experience_frame_back_bn_gfxTiles
                0x08065be4                experience_frame_back_bn_gfxPal
 .rodata        0x08065c04      0x120 experience_frame_front_bn_gfx.o
                0x08065c04                experience_frame_front_bn_gfxTiles
                0x08065d04                experience_frame_front_bn_gfxPal
 .rodata        0x08065d24      0xe20 fighter_font_bn_gfx.o
                0x08065d24                fighter_font_bn_gfxTiles
                0x08066b24                fighter_font_bn_gfxPal
 .rodata        0x08066b44       0x40 flash_palette_bn_gfx.o
                0x08066b44                flash_palette_bn_gfxTiles
                0x08066b64                flash_palette_bn_gfxPal
 .rodata        0x08066b84      0x220 gem_bn_gfx.o
                0x08066b84                gem_bn_gfxTiles
                0x08066d84                gem_bn_gfxPal
 .rodata        0x08066da4     0xf020 gigabat_bn_gfx.o
                0x08066da4                gigabat_bn_gfxTiles
                0x08075da4                gigabat_bn_gfxPal
 .rodata        0x08075dc4      0x420 gigabat_shadow_bn_gfx.o
                0x08075dc4                gigabat_shadow_bn_gfxTiles
                0x080761c4                gigabat_shadow_bn_gfxPal
 .rodata        0x080761e4     0x1020 hero_body_flying_bn_gfx.o
                0x080761e4                hero_body_flying_bn_gfxTiles
                0x080771e4                hero_body_flying_bn_gfxPal
 .rodata        0x08077204     0x1020 hero_body_walking_bn_gfx.o
                0x08077204                hero_body_walking_bn_gfxTiles
                0x08078204                hero_body_walking_bn_gfxPal
 .rodata        0x08078224      0xa20 hero_bomb_bn_gfx.o
                0x08078224                hero_bomb_bn_gfxTiles
                0x08078424                hero_bomb_bn_gfxMap
                0x08078c24                hero_bomb_bn_gfxPal
 .rodata        0x08078c44       0xa0 hero_bomb_icon_bn_gfx.o
                0x08078c44                hero_bomb_icon_bn_gfxTiles
                0x08078cc4                hero_bomb_icon_bn_gfxPal
 .rodata        0x08078ce4      0x220 hero_bomb_mini_bn_gfx.o
                0x08078ce4                hero_bomb_mini_bn_gfxTiles
                0x08078ee4                hero_bomb_mini_bn_gfxPal
 .rodata        0x08078f04     0x1220 hero_bullets_bn_gfx.o
                0x08078f04                hero_bullets_bn_gfxTiles
                0x0807a104                hero_bullets_bn_gfxPal
 .rodata        0x0807a124     0xc020 hero_death_bn_gfx.o
                0x0807a124                hero_death_bn_gfxTiles
                0x08086124                hero_death_bn_gfxPal
 .rodata        0x08086144      0x220 hero_head_bn_gfx.o
                0x08086144                hero_head_bn_gfxTiles
                0x08086344                hero_head_bn_gfxPal
 .rodata        0x08086364      0x820 hero_shield_bn_gfx.o
                0x08086364                hero_shield_bn_gfxTiles
                0x08086b64                hero_shield_bn_gfxPal
 .rodata        0x08086b84      0x120 hero_weapon_big_2_bn_gfx.o
                0x08086b84                hero_weapon_big_2_bn_gfxTiles
                0x08086c84                hero_weapon_big_2_bn_gfxPal
 .rodata        0x08086ca4      0x420 hero_weapon_big_3_bn_gfx.o
                0x08086ca4                hero_weapon_big_3_bn_gfxTiles
                0x080870a4                hero_weapon_big_3_bn_gfxPal
 .rodata        0x080870c4      0x120 hero_weapon_big_4_bn_gfx.o
                0x080870c4                hero_weapon_big_4_bn_gfxTiles
                0x080871c4                hero_weapon_big_4_bn_gfxPal
 .rodata        0x080871e4      0x120 hero_weapon_big_5_bn_gfx.o
                0x080871e4                hero_weapon_big_5_bn_gfxTiles
                0x080872e4                hero_weapon_big_5_bn_gfxPal
 .rodata        0x08087304      0x120 hero_weapon_big_6_bn_gfx.o
                0x08087304                hero_weapon_big_6_bn_gfxTiles
                0x08087404                hero_weapon_big_6_bn_gfxPal
 .rodata        0x08087424      0x220 hero_weapon_big_7_bn_gfx.o
                0x08087424                hero_weapon_big_7_bn_gfxTiles
                0x08087624                hero_weapon_big_7_bn_gfxPal
 .rodata        0x08087644      0x420 hero_weapon_big_8_bn_gfx.o
                0x08087644                hero_weapon_big_8_bn_gfxTiles
                0x08087a44                hero_weapon_big_8_bn_gfxPal
 .rodata        0x08087a64      0x120 hero_weapon_big_9_bn_gfx.o
                0x08087a64                hero_weapon_big_9_bn_gfxTiles
                0x08087b64                hero_weapon_big_9_bn_gfxPal
 .rodata        0x08087b84      0x4a0 hero_weapons_bn_gfx.o
                0x08087b84                hero_weapons_bn_gfxTiles
                0x08088004                hero_weapons_bn_gfxPal
 .rodata        0x08088024      0xa20 mini_explosion_2_bn_gfx.o
                0x08088024                mini_explosion_2_bn_gfxTiles
                0x08088a24                mini_explosion_2_bn_gfxPal
 .rodata        0x08088a44      0xe20 mini_explosion_bn_gfx.o
                0x08088a44                mini_explosion_bn_gfxTiles
                0x08089844                mini_explosion_bn_gfxPal
 .rodata        0x08089864     0x1f00 mountain_clouds_bn_gfx.o
                0x08089864                mountain_clouds_bn_gfxTiles
                0x0808a744                mountain_clouds_bn_gfxMap
                0x0808b744                mountain_clouds_bn_gfxPal
 .rodata        0x0808b764      0xf20 object_messages_bn_gfx.o
                0x0808b764                object_messages_bn_gfxTiles
                0x0808c664                object_messages_bn_gfxPal
 .rodata        0x0808c684     0x1720 pause_bn_gfx.o
                0x0808c684                pause_bn_gfxTiles
                0x0808d584                pause_bn_gfxMap
                0x0808dd84                pause_bn_gfxPal
 .rodata        0x0808dda4      0xde0 small_font_bn_gfx.o
                0x0808dda4                small_font_bn_gfxTiles
                0x0808eb64                small_font_bn_gfxPal
 .rodata        0x0808eb84      0x420 stage_1_animals_bn_gfx.o
                0x0808eb84                stage_1_animals_bn_gfxTiles
                0x0808ef84                stage_1_animals_bn_gfxPal
 .rodata        0x0808efa4     0x8140 stage_1_bn_gfx.o
                0x0808efa4                stage_1_bn_gfxTiles
                0x08095024                stage_1_bn_gfxMap
                0x08097024                stage_1_bn_gfxPal
 .rodata        0x080970e4      0x420 stage_1_characters_1_bn_gfx.o
                0x080970e4                stage_1_characters_1_bn_gfxTiles
                0x080974e4                stage_1_characters_1_bn_gfxPal
 .rodata        0x08097504     0x1020 stage_1_characters_1_team_bn_gfx.o
                0x08097504                stage_1_characters_1_team_bn_gfxTiles
                0x08098504                stage_1_characters_1_team_bn_gfxPal
 .rodata        0x08098524      0x420 stage_1_characters_2_bn_gfx.o
                0x08098524                stage_1_characters_2_bn_gfxTiles
                0x08098924                stage_1_characters_2_bn_gfxPal
 .rodata        0x08098944       0x40 stage_1_intro_alt_bn_gfx.o
                0x08098944                stage_1_intro_alt_bn_gfxTiles
                0x08098964                stage_1_intro_alt_bn_gfxPal
 .rodata        0x08098984     0x1020 stage_1_intro_bn_gfx.o
                0x08098984                stage_1_intro_bn_gfxTiles
                0x08099984                stage_1_intro_bn_gfxPal
 .rodata        0x080999a4      0x220 stage_1_monsters_1_bn_gfx.o
                0x080999a4                stage_1_monsters_1_bn_gfxTiles
                0x08099ba4                stage_1_monsters_1_bn_gfxPal
 .rodata        0x08099bc4      0x220 stage_1_monsters_2_bn_gfx.o
                0x08099bc4                stage_1_monsters_2_bn_gfxTiles
                0x08099dc4                stage_1_monsters_2_bn_gfxPal
 .rodata        0x08099de4     0x5b00 stage_2_bn_gfx.o
                0x08099de4                stage_2_bn_gfxTiles
                0x0809d7a4                stage_2_bn_gfxMap
                0x0809f7a4                stage_2_bn_gfxPal
 .rodata        0x0809f8e4     0x1920 stage_2_characters_1_bn_gfx.o
                0x0809f8e4                stage_2_characters_1_bn_gfxTiles
                0x080a11e4                stage_2_characters_1_bn_gfxPal
 .rodata        0x080a1204     0x2020 stage_2_characters_2_bn_gfx.o
                0x080a1204                stage_2_characters_2_bn_gfxTiles
                0x080a3204                stage_2_characters_2_bn_gfxPal
 .rodata        0x080a3224       0x40 stage_2_intro_alt_bn_gfx.o
                0x080a3224                stage_2_intro_alt_bn_gfxTiles
                0x080a3244                stage_2_intro_alt_bn_gfxPal
 .rodata        0x080a3264     0x1020 stage_2_intro_bn_gfx.o
                0x080a3264                stage_2_intro_bn_gfxTiles
                0x080a4264                stage_2_intro_bn_gfxPal
 .rodata        0x080a4284     0x2020 stage_2_monsters_1_bn_gfx.o
                0x080a4284                stage_2_monsters_1_bn_gfxTiles
                0x080a6284                stage_2_monsters_1_bn_gfxPal
 .rodata        0x080a62a4     0x2020 stage_2_monsters_2_bn_gfx.o
                0x080a62a4                stage_2_monsters_2_bn_gfxTiles
                0x080a82a4                stage_2_monsters_2_bn_gfxPal
 .rodata        0x080a82c4     0x1020 stage_2_robot_bn_gfx.o
                0x080a82c4                stage_2_robot_bn_gfxTiles
                0x080a92c4                stage_2_robot_bn_gfxPal
 .rodata        0x080a92e4     0x1820 stage_3_blonde_bn_gfx.o
                0x080a92e4                stage_3_blonde_bn_gfxTiles
                0x080aaae4                stage_3_blonde_bn_gfxPal
 .rodata        0x080aab04     0x59a0 stage_3_bn_gfx.o
                0x080aab04                stage_3_bn_gfxTiles
                0x080ae424                stage_3_bn_gfxMap
                0x080b0424                stage_3_bn_gfxPal
 .rodata        0x080b04a4     0x8020 stage_3_characters_1_bn_gfx.o
                0x080b04a4                stage_3_characters_1_bn_gfxTiles
                0x080b84a4                stage_3_characters_1_bn_gfxPal
 .rodata        0x080b84c4     0x6020 stage_3_characters_2_bn_gfx.o
                0x080b84c4                stage_3_characters_2_bn_gfxTiles
                0x080be4c4                stage_3_characters_2_bn_gfxPal
 .rodata        0x080be4e4     0x1820 stage_3_dragon_man_bn_gfx.o
                0x080be4e4                stage_3_dragon_man_bn_gfxTiles
                0x080bfce4                stage_3_dragon_man_bn_gfxPal
 .rodata        0x080bfd04       0x40 stage_3_intro_alt_bn_gfx.o
                0x080bfd04                stage_3_intro_alt_bn_gfxTiles
                0x080bfd24                stage_3_intro_alt_bn_gfxPal
 .rodata        0x080bfd44     0x1020 stage_3_intro_bn_gfx.o
                0x080bfd44                stage_3_intro_bn_gfxTiles
                0x080c0d44                stage_3_intro_bn_gfxPal
 .rodata        0x080c0d64     0x4020 stage_3_monsters_1_bn_gfx.o
                0x080c0d64                stage_3_monsters_1_bn_gfxTiles
                0x080c4d64                stage_3_monsters_1_bn_gfxPal
 .rodata        0x080c4d84     0x3020 stage_3_monsters_2_bn_gfx.o
                0x080c4d84                stage_3_monsters_2_bn_gfxTiles
                0x080c7d84                stage_3_monsters_2_bn_gfxPal
 .rodata        0x080c7da4     0x3bc0 stage_4_bn_gfx.o
                0x080c7da4                stage_4_bn_gfxTiles
                0x080c98e4                stage_4_bn_gfxMap
                0x080cb8e4                stage_4_bn_gfxPal
 .rodata        0x080cb964      0x820 stage_4_brain_bn_gfx.o
                0x080cb964                stage_4_brain_bn_gfxTiles
                0x080cc164                stage_4_brain_bn_gfxPal
 .rodata        0x080cc184     0x1820 stage_4_enemies_1_bn_gfx.o
                0x080cc184                stage_4_enemies_1_bn_gfxTiles
                0x080cd984                stage_4_enemies_1_bn_gfxPal
 .rodata        0x080cd9a4     0x1020 stage_4_enemies_2_bn_gfx.o
                0x080cd9a4                stage_4_enemies_2_bn_gfxTiles
                0x080ce9a4                stage_4_enemies_2_bn_gfxPal
 .rodata        0x080ce9c4      0x820 stage_4_enemies_3_1_bn_gfx.o
                0x080ce9c4                stage_4_enemies_3_1_bn_gfxTiles
                0x080cf1c4                stage_4_enemies_3_1_bn_gfxPal
 .rodata        0x080cf1e4      0x220 stage_4_enemies_3_2_bn_gfx.o
                0x080cf1e4                stage_4_enemies_3_2_bn_gfxTiles
                0x080cf3e4                stage_4_enemies_3_2_bn_gfxPal
 .rodata        0x080cf404      0x620 stage_4_enemies_4_bn_gfx.o
                0x080cf404                stage_4_enemies_4_bn_gfxTiles
                0x080cfa04                stage_4_enemies_4_bn_gfxPal
 .rodata        0x080cfa24       0x40 stage_4_intro_alt_bn_gfx.o
                0x080cfa24                stage_4_intro_alt_bn_gfxTiles
                0x080cfa44                stage_4_intro_alt_bn_gfxPal
 .rodata        0x080cfa64     0x1020 stage_4_intro_bn_gfx.o
                0x080cfa64                stage_4_intro_bn_gfxTiles
                0x080d0a64                stage_4_intro_bn_gfxPal
 .rodata        0x080d0a84     0x1020 stage_4_meteors_big_bn_gfx.o
                0x080d0a84                stage_4_meteors_big_bn_gfxTiles
                0x080d1a84                stage_4_meteors_big_bn_gfxPal
 .rodata        0x080d1aa4      0x620 stage_4_meteors_small_bn_gfx.o
                0x080d1aa4                stage_4_meteors_small_bn_gfxTiles
                0x080d20a4                stage_4_meteors_small_bn_gfxPal
 .rodata        0x080d20c4      0x220 stage_4_octopus_bn_gfx.o
                0x080d20c4                stage_4_octopus_bn_gfxTiles
                0x080d22c4                stage_4_octopus_bn_gfxPal
 .rodata        0x080d22e4     0x2c00 stars_bn_gfx.o
                0x080d22e4                stars_bn_gfxTiles
                0x080d3ec4                stars_bn_gfxMap
                0x080d4ec4                stars_bn_gfxPal
 .rodata        0x080d4ee4     0x1220 tank_base_bn_gfx.o
                0x080d4ee4                tank_base_bn_gfxTiles
                0x080d60e4                tank_base_bn_gfxPal
 .rodata        0x080d6104      0x820 tank_cannon_bn_gfx.o
                0x080d6104                tank_cannon_bn_gfxTiles
                0x080d6904                tank_cannon_bn_gfxPal
 .rodata        0x080d6924      0xa20 tank_extras_bn_gfx.o
                0x080d6924                tank_extras_bn_gfxTiles
                0x080d7324                tank_extras_bn_gfxPal
 .rodata        0x080d7344      0x220 tank_jelly_bn_gfx.o
                0x080d7344                tank_jelly_bn_gfxTiles
                0x080d7544                tank_jelly_bn_gfxPal
 .rodata        0x080d7564     0x8020 wizard_aura_bn_gfx.o
                0x080d7564                wizard_aura_bn_gfxTiles
                0x080df564                wizard_aura_bn_gfxPal
 .rodata        0x080df584     0xe020 wizard_bn_gfx.o
                0x080df584                wizard_bn_gfxTiles
                0x080ed584                wizard_bn_gfxPal
 .rodata        0x080ed5a4     0x26c8 /tmp/ccwxil6c.ltrans0.ltrans.o
                0x080ed6b8                bn::sprite_items::butano_big_sprite
                0x080ed6d4                bn::sprite_items::butano_big_silhouette
                0x080ed6f8                vtable for bf::credits
                0x080ed70c                vtable for bf::ending
                0x080ed720                bn::sprite_items::mini_explosion
                0x080ed73c                bn::sound_items::explosion_3
                0x080ed740                bn::sound_items::explosion_1
                0x080ed760                bn::sound_items::explosion_2
                0x080ed764                bn::sound_items::flame_thrower
                0x080ed768                vtable for bf::game::butano_boss
                0x080ed798                vtable for bf::game::boss
                0x080ed7f8                bn::sound_items::power_up_1
                0x080ed7fc                bn::sprite_items::gem
                0x080ed818                bn::sound_items::cure
                0x080ed81c                bn::sprite_items::hero_bullets
                0x080ed838                bn::sprite_items::hero_bomb_icon
                0x080ed858                vtable for bf::game::game
                0x080ed86c                _ZN2bf4game12_GLOBAL__N_1L14_level8_eventsE.lto_priv.0
                0x080ed98c                _ZN2bf4game12_GLOBAL__N_1L14_level7_eventsE.lto_priv.0
                0x080eda94                _ZN2bf4game12_GLOBAL__N_1L14_level6_eventsE.lto_priv.0
                0x080edb84                _ZN2bf4game12_GLOBAL__N_1L14_level5_eventsE.lto_priv.0
                0x080edc44                _ZN2bf4game12_GLOBAL__N_1L14_level4_eventsE.lto_priv.0
                0x080edcd4                _ZN2bf4game12_GLOBAL__N_1L14_level3_eventsE.lto_priv.0
                0x080edd4c                _ZN2bf4game12_GLOBAL__N_1L14_level2_eventsE.lto_priv.0
                0x080eddac                _ZN2bf4game12_GLOBAL__N_1L14_level1_eventsE.lto_priv.0
                0x080eddd0                _ZN2bf4game12_GLOBAL__N_1L14_level0_eventsE.lto_priv.0
                0x080edddc                _ZN2bn12_GLOBAL__N_1L12sin_lut_implE.lto_priv.0
                0x080eede0                bn::sprite_items::stage_4_meteors_small
                0x080eedfc                bn::sprite_items::stage_4_meteors_big
                0x080eee18                bn::sprite_items::stage_4_enemies_4
                0x080eee34                bn::sprite_items::stage_4_enemies_3_2
                0x080eee50                bn::sprite_items::stage_4_enemies_3_1
                0x080eee6c                bn::sprite_items::stage_4_enemies_2
                0x080eee88                bn::sprite_items::stage_4_enemies_1
                0x080eeea4                bn::sprite_items::stage_4_brain
                0x080eeec0                bn::sprite_items::stage_3_dragon_man
                0x080eeedc                bn::sprite_items::stage_3_monsters_2
                0x080eeef8                bn::sprite_items::stage_3_monsters_1
                0x080eef14                bn::sprite_items::stage_3_characters_2
                0x080eef30                bn::sprite_items::stage_3_characters_1
                0x080eef4c                bn::sprite_items::stage_3_blonde
                0x080eef68                bn::sprite_items::stage_2_robot
                0x080eef84                bn::sprite_items::stage_2_monsters_2
                0x080eefa0                bn::sprite_items::stage_2_monsters_1
                0x080eefbc                bn::sprite_items::stage_2_characters_2
                0x080eefd8                bn::sprite_items::stage_2_characters_1
                0x080eeff4                bn::sprite_items::stage_1_characters_1_team
                0x080ef010                bn::sprite_items::stage_1_monsters_2
                0x080ef02c                bn::sprite_items::stage_1_monsters_1
                0x080ef048                bn::sprite_items::stage_1_characters_2
                0x080ef064                bn::sprite_items::stage_1_characters_1
                0x080ef080                bn::sprite_items::stage_1_animals
                0x080ef09c                _ZN2bf4game12_GLOBAL__N_1L7_levelsE.lto_priv.0
                0x080ef198                _ZN2bn6colorsL5blackE.lto_priv.0.lto_priv.0
                0x080ef198                _ZN2bn6colorsL5blackE.lto_priv.1.lto_priv.0
                0x080ef19c                _ZN2bn6colorsL5whiteE.lto_priv.0.lto_priv.0
                0x080ef19c                _ZN2bn6colorsL5whiteE.lto_priv.1.lto_priv.0
                0x080ef1a0                bn::sin_lut
                0x080ef64c                _ZN2bf12_GLOBAL__N_1L15blending_framesE.lto_priv.0
                0x080efc68                _ZN2bf12_GLOBAL__N_1L16show_hide_framesE.lto_priv.0
 .rodata        0x080efc6c     0x1d10 /tmp/ccwxil6c.ltrans1.ltrans.o
                0x080efd0c                vtable for bf::game::gigabat_boss
                0x080efd3c                bn::sprite_items::enemy_bullets
                0x080efd74                bn::sprite_items::gigabat
                0x080efd90                bn::sprite_items::enemy_explosion
                0x080efdac                bn::sprite_items::hero_death
                0x080efdf4                _ZN2bn6colorsL3redE.lto_priv.2.lto_priv.0
                0x080efdf4                _ZN2bn6colorsL3redE.lto_priv.0.lto_priv.0
                0x080efdf4                _ZN2bn6colorsL3redE.lto_priv.3.lto_priv.0
                0x080efdf8                _ZN2bf4game12_GLOBAL__N_1L21blending_transparencyE.lto_priv.0
 .rodata        0x080f197c     0x8ac8 /tmp/ccwxil6c.ltrans2.ltrans.o
                0x080f1d1c                bn::sprite_items::tank_extras
                0x080f1d38                bn::sprite_items::tank_jelly
                0x080f1d54                vtable for bf::game::tank_boss
                0x080f1ec0                bn::sprite_items::hero_weapons
                0x080f1f18                _ZN2bf4game7stage_112_GLOBAL__N_1L7stage_1E.lto_priv.0
                0x080f202c                bn::sprite_items::hero_weapon_big_2
                0x080f2064                _ZN2bf4game7stage_112_GLOBAL__N_1L18blacksmith_bulletsE.lto_priv.0
                0x080f20a4                _ZN2bf4game7stage_112_GLOBAL__N_1L24blacksmith_flipped_movesE.lto_priv.0
                0x080f20b0                _ZN2bf4game7stage_112_GLOBAL__N_1L11horse_movesE.lto_priv.0
                0x080f20bc                _ZN2bf4game7stage_112_GLOBAL__N_1L19jelly_flipped_movesE.lto_priv.0
                0x080f20c8                _ZN2bf4game7stage_112_GLOBAL__N_1L11jelly_movesE.lto_priv.0
                0x080f20d4                _ZN2bf4game7stage_112_GLOBAL__N_1L5jellyE.lto_priv.0
                0x080f2118                _ZN2bf4game7stage_112_GLOBAL__N_1L22skeleton_flipped_movesE.lto_priv.0
                0x080f2124                _ZN2bf4game7stage_112_GLOBAL__N_1L14skeleton_movesE.lto_priv.0
                0x080f2130                _ZN2bf4game7stage_112_GLOBAL__N_1L8skeletonE.lto_priv.0
                0x080f2174                _ZN2bf4game7stage_112_GLOBAL__N_1L23wild_boar_flipped_movesE.lto_priv.0
                0x080f2180                _ZN2bf4game7stage_112_GLOBAL__N_1L26blacksmith_flipped_bulletsE.lto_priv.0
                0x080f21c0                _ZN2bf4game7stage_112_GLOBAL__N_1L16blacksmith_movesE.lto_priv.0
                0x080f21cc                _ZN2bf4game7stage_112_GLOBAL__N_1L10blacksmithE.lto_priv.0
                0x080f2210                _ZN2bf4game7stage_112_GLOBAL__N_1L19thief_flipped_movesE.lto_priv.0
                0x080f2228                _ZN2bf4game7stage_112_GLOBAL__N_1L15chinese_bulletsE.lto_priv.0
                0x080f2278                _ZN2bf4game7stage_112_GLOBAL__N_1L21chinese_flipped_movesE.lto_priv.0
                0x080f2290                _ZN2bf4game7stage_112_GLOBAL__N_1L7chineseE.lto_priv.0
                0x080f22d4                _ZN2bf4game7stage_112_GLOBAL__N_1L11thief_movesE.lto_priv.0
                0x080f22ec                _ZN2bf4game7stage_112_GLOBAL__N_1L5thiefE.lto_priv.0
                0x080f2330                _ZN2bf4game7stage_112_GLOBAL__N_1L14cowboy_bulletsE.lto_priv.0
                0x080f2340                _ZN2bf4game7stage_112_GLOBAL__N_1L12cowboy_movesE.lto_priv.0
                0x080f2358                _ZN2bf4game7stage_112_GLOBAL__N_1L6cowboyE.lto_priv.0
                0x080f239c                _ZN2bf4game7stage_112_GLOBAL__N_1L19horse_flipped_movesE.lto_priv.0
                0x080f23a8                _ZN2bf4game7stage_112_GLOBAL__N_1L5horseE.lto_priv.0
                0x080f23ec                _ZN2bf4game7stage_112_GLOBAL__N_1L15wild_boar_movesE.lto_priv.0
                0x080f23f8                _ZN2bf4game7stage_112_GLOBAL__N_1L9wild_boarE.lto_priv.0
                0x080f243c                _ZN2bf4game7stage_112_GLOBAL__N_1L25characters_1_team_bulletsE.lto_priv.0
                0x080f25fc                _ZN2bf4game7stage_112_GLOBAL__N_1L23characters_1_team_movesE.lto_priv.0
                0x080f262c                _ZN2bf4game7stage_112_GLOBAL__N_1L17characters_1_teamE.lto_priv.0
                0x080f2670                _ZN2bf4game7stage_112_GLOBAL__N_1L12goblin_movesE.lto_priv.0
                0x080f267c                _ZN2bf4game7stage_112_GLOBAL__N_1L14goblin_bulletsE.lto_priv.0
                0x080f26dc                _ZN2bf4game7stage_112_GLOBAL__N_1L20goblin_flipped_movesE.lto_priv.0
                0x080f26e8                _ZN2bf4game7stage_112_GLOBAL__N_1L6goblinE.lto_priv.0
                0x080f272c                _ZN2bf4game7stage_112_GLOBAL__N_1L11sheep_movesE.lto_priv.0
                0x080f2738                _ZN2bf4game7stage_112_GLOBAL__N_1L20outlaw_flipped_movesE.lto_priv.0
                0x080f2750                _ZN2bf4game7stage_112_GLOBAL__N_1L17pig_flipped_movesE.lto_priv.0
                0x080f275c                _ZN2bf4game7stage_112_GLOBAL__N_1L14outlaw_bulletsE.lto_priv.0
                0x080f277c                _ZN2bf4game7stage_112_GLOBAL__N_1L12outlaw_movesE.lto_priv.0
                0x080f2794                _ZN2bf4game7stage_112_GLOBAL__N_1L6outlawE.lto_priv.0
                0x080f27d8                _ZN2bf4game7stage_112_GLOBAL__N_1L17man_flipped_movesE.lto_priv.0
                0x080f27f0                _ZN2bf4game7stage_112_GLOBAL__N_1L9bat_movesE.lto_priv.0
                0x080f27fc                _ZN2bf4game7stage_112_GLOBAL__N_1L17bat_flipped_movesE.lto_priv.0
                0x080f2808                _ZN2bf4game7stage_112_GLOBAL__N_1L3batE.lto_priv.0
                0x080f284c                _ZN2bf4game7stage_112_GLOBAL__N_1L11woman_movesE.lto_priv.0
                0x080f2864                _ZN2bf4game7stage_112_GLOBAL__N_1L5womanE.lto_priv.0
                0x080f28a8                _ZN2bf4game7stage_112_GLOBAL__N_1L20knight_flipped_movesE.lto_priv.0
                0x080f28b4                _ZN2bf4game7stage_112_GLOBAL__N_1L6knightE.lto_priv.0
                0x080f28f8                _ZN2bf4game7stage_112_GLOBAL__N_1L11man_bulletsE.lto_priv.0
                0x080f2908                _ZN2bf4game7stage_112_GLOBAL__N_1L9man_movesE.lto_priv.0
                0x080f2920                _ZN2bf4game7stage_112_GLOBAL__N_1L3manE.lto_priv.0
                0x080f2964                _ZN2bf4game7stage_112_GLOBAL__N_1L19sheep_flipped_movesE.lto_priv.0
                0x080f2970                _ZN2bf4game7stage_112_GLOBAL__N_1L5sheepE.lto_priv.0
                0x080f29b4                _ZN2bf4game7stage_112_GLOBAL__N_1L9pig_movesE.lto_priv.0
                0x080f29c0                _ZN2bf4game7stage_112_GLOBAL__N_1L3pigE.lto_priv.0
                0x080f51dc                _ZN2bf4game7stage_112_GLOBAL__N_1L12enemy_eventsE.lto_priv.0
                0x080f6a9c                bn::sprite_items::stage_1_intro_alt
                0x080f6ab8                bn::sprite_items::stage_1_intro
                0x080f6ad4                bn::regular_bg_items::stage_1
                0x080f7d34                bn::regular_bg_items::clouds
 .rodata        0x080fa444     0x1d48 /tmp/ccwxil6c.ltrans3.ltrans.o
                0x080fa48c                bn::sprite_items::wizard
                0x080fa4a8                vtable for bf::game::wizard_boss
                0x080fa4d8                _ZN2bf12_GLOBAL__N_1L19left_text_sprites_xE.lto_priv.0
                0x080fa4f8                bn::sprite_items::hero_body_walking
                0x080fa514                bn::sprite_items::hero_shield
                0x080fa530                bn::sprite_items::brightness
                0x080fa54c                bn::sprite_items::experience_frame_back
                0x080fa568                bn::sprite_items::experience_bar
                0x080fa584                bn::sprite_items::experience_frame_front
                0x080fa5a0                bn::sprite_items::flash_palette
                0x080fa5bc                vtable for bf::how_to_play
                0x080fa5d0                vtable for bf::intro
                0x080fa5e8                _ZN2bf12_GLOBAL__N_1L7_text_xE.lto_priv.0
                0x080fa5f0                vtable for bf::title
                0x080fc184                _ZN2bf12_GLOBAL__N_1L20right_text_sprites_xE.lto_priv.0
                0x080fc188                _ZN2bf12_GLOBAL__N_1L15blending_framesE.lto_priv.1
 .rodata        0x080fc18c     0x1de4 /tmp/ccwxil6c.ltrans4.ltrans.o
                0x080fc358                bn::music_items::battle_clean
                0x080fc668                _ZN2bn17bg_blocks_manager12_GLOBAL__N_1L19_status_log_messageE.lto_priv.0
 .rodata        0x080fdf70     0x11d0 /tmp/ccwxil6c.ltrans5.ltrans.o
                0x080fe0f8                _ZN2bn12_GLOBAL__N_1L22reciprocal_16_lut_implE.lto_priv.0
                0x080fe8fc                bn::reciprocal_16_lut
 .rodata        0x080ff140      0x7a4 /tmp/ccwxil6c.ltrans6.ltrans.o
 .rodata        0x080ff8e4       0xd0 /tmp/ccwxil6c.ltrans7.ltrans.o
 .rodata        0x080ff9b4      0xef8 verdana9.o
                0x080ff9b4                verdana9Font
                0x080ff9cc                verdana9Glyphs
                0x081007cc                verdana9Widths
 *all.rodata*(*)
 *(.roda)
 *(.rodata.*)
 .rodata._bn_audio_soundbank_bin
                0x081008ac   0x242e08 _bn_audio_soundbank.bin.o
                0x081008ac                _bn_audio_soundbank_bin
                0x083436b4                _bn_audio_soundbank_bin_end
 .rodata.str1.4
                0x083436b4      0xe55 /tmp/ccwxil6c.ltrans0.ltrans.o
 .rodata.str1.4
                0x083436b4      0x88d /tmp/ccwxil6c.ltrans1.ltrans.o
 .rodata.str1.4
                0x083436b4      0x7d5 /tmp/ccwxil6c.ltrans2.ltrans.o
 .rodata.str1.4
                0x083436b4      0x7b9 /tmp/ccwxil6c.ltrans3.ltrans.o
 .rodata.str1.4
                0x083436b4      0xdf1 /tmp/ccwxil6c.ltrans4.ltrans.o
 .rodata.str1.4
                0x083436b4     0x1094 /tmp/ccwxil6c.ltrans5.ltrans.o
 .rodata.str1.4
                0x083436b4      0xcd9 /tmp/ccwxil6c.ltrans6.ltrans.o
 .rodata.str1.4
                0x083436b4      0xca5 /tmp/ccwxil6c.ltrans7.ltrans.o
 .rodata.__cxa_pure_virtual.str1.4
                0x083436b4     0x3ab9 bn_hw_common.bn_noflto.o
                                 0x4f (size before relaxing)
 .rodata.__aeabi_idiv0.str1.4
                0x0834716d       0x38 bn_hw_common.bn_noflto.o
 *fill*         0x0834716d        0x3 ff
 .rodata._ZN2bn2hw8game_pak12_GLOBAL__N_1L8rom_dataE
                0x08347170        0xc bn_hw_game_pak.bn_ewram.o
 .rodata._ZN2bn2hw4gpio12_GLOBAL__N_1L10rtc_stringE
                0x0834717c        0xc bn_hw_gpio.bn_noflto.o
 .rodata._ZN2bn2hw4sram12_GLOBAL__N_1L11save_stringE
                0x08347188        0xa bn_hw_sram.bn_noflto.o
 *(.gnu.linkonce.r*)
                0x08347194                        . = ALIGN (0x4)
 *fill*         0x08347192        0x2 ff

.ARM.extab
 *(.ARM.extab* .gnu.linkonce.armextab.*)
                0x08347194                        __exidx_start = .

.ARM.exidx
 *(.ARM.exidx* .gnu.linkonce.armexidx.*)
                0x08347194                        __exidx_end = .

.ctors          0x08347194        0x0
 *crtbegin.o(.ctors)
 *(EXCLUDE_FILE(*crtend.o) .ctors)
 *(SORT_BY_NAME(.ctors.*))
 *(.ctors)
                0x08347194                        . = ALIGN (0x4)

.dtors          0x08347194        0x0
 *crtbegin.o(.dtors)
 *(EXCLUDE_FILE(*crtend.o) .dtors)
 *(SORT_BY_NAME(.dtors.*))
 *(.dtors)
                0x08347194                        . = ALIGN (0x4)

.eh_frame       0x08347194        0x4
 *(.eh_frame)
 .eh_frame      0x08347194        0x0 /opt/devkitpro/devkitARM/bin/../lib/gcc/arm-none-eabi/14.2.0/thumb/crtbegin.o
 .eh_frame      0x08347194        0x4 /opt/devkitpro/devkitARM/bin/../lib/gcc/arm-none-eabi/14.2.0/thumb/crtend.o
                0x08347198                        . = ALIGN (0x4)

.gcc_except_table
                0x08347198        0x0
 *(.gcc_except_table)
                0x08347198                        . = ALIGN (0x4)
                0x08347198                        __iwram_lma = .

.iwram          0x03000000     0x24b0 load address 0x08347198
                0x03000000                        __iwram_start__ = ABSOLUTE (.)
 *(.iwram .iwram*)
 .iwram         0x03000000      0x28c bn_sprites_manager.bn_iwram.o
                0x03000000                bn::sprites_manager::_check_items_on_screen(bn::intrusive_list<bn::sorted_sprites::layer>&)
                0x03000100                bn::sprites_manager::_rebuild_handles_impl(int, void*, bn::intrusive_list<bn::sorted_sprites::layer>&)
                0x03000198                bn::sprites_manager::_update_cameras_impl(bn::intrusive_list<bn::sorted_sprites::layer>&)
 .iwram         0x0300028c       0xc4 bn_hw_palettes.bn_iwram.o
                0x0300028c                bn::hw::palettes::brightness(bn::color const*, int, int, bn::color*)
                0x030002f4                bn::hw::palettes::_lut_effect(bn::color const*, unsigned char const*, int, bn::color*)
 .iwram         0x03000350       0xa8 bn_hw_sprite_tiles.bn_iwram.o
                0x03000350                bn::hw::sprite_tiles::_plot_hideous_tiles(int, unsigned int const*, int, unsigned int*)
 .iwram         0x030003f8       0x6c bn_hw_bg_blocks.o
                0x030003f8                bn_hw_bg_blocks_commit_half_words
                0x03000410                bn_hw_bg_blocks_commit_words
                0x03000428                bn_hw_bg_blocks_commit_blocks
 .iwram         0x03000464       0xd0 bn_hw_hblank_effects.o
                0x03000464                bn::hw::hblank_effects::_intr()
                0x03000530                bn::hw::hblank_effects::data
 .iwram         0x03000534       0x30 bn_hw_palettes_asm.o
                0x03000534                bn_hw_palettes_different_words
 .iwram.clr_blend_fast
                0x03000564       0x70 clr_blend_fast.o
                0x03000564                clr_blend_fast
 .iwram         0x030005d4       0x70 clr_fade_fast.o
                0x030005d4                clr_fade_fast
 .iwram.memset32
                0x03000644       0x4c tonc_memset.o
                0x03000644                memset32
 .iwram         0x03000690      0x134 irq_handler.o
                0x03000690                IRQ_GlobalInterruptHandler
 .iwram.__aeabi_lmul
                0x030007c4       0x14 lmul.o
                0x030007c4                __aeabi_lmul
 .iwram.__aeabi_memcpy
                0x030007d8       0xc8 memcpy.o
                0x030007d8                __aeabi_memcpy
                0x03000810                __aeabi_memcpy4
                0x03000810                __aeabi_memcpy8
                0x0300087c                __agbabi_memcpy2
 .iwram.__agbabi_memcpy1
                0x030008a0       0x14 memcpy.o
                0x030008a0                __agbabi_memcpy1
 .iwram.memcpy  0x030008b4       0x10 memcpy.o
                0x030008b4                memcpy
 .iwram.__aeabi_memmove
                0x030008c4        0xc memmove.o
                0x030008c4                __aeabi_memmove
 .iwram.memmove
                0x030008d0       0x10 memmove.o
                0x030008d0                memmove
 .iwram.__aeabi_memset
                0x030008e0       0x9c memset.o
                0x030008e0                __aeabi_memset
                0x03000904                __aeabi_memset4
                0x03000904                __aeabi_memset8
                0x03000910                __agbabi_wordset4
                0x03000914                __agbabi_lwordset4
 .iwram.__agbabi_memset1
                0x0300097c       0x10 memset.o
                0x0300097c                __agbabi_memset1
 .iwram.memset  0x0300098c       0x1c memset.o
                0x0300098c                memset
 .iwram.__agbabi_rmemcpy
                0x030009a8       0xcc rmemcpy.o
                0x030009a8                __agbabi_rmemcpy
 .iwram.__agbabi_rmemcpy1
                0x03000a74       0x14 rmemcpy.o
                0x03000a74                __agbabi_rmemcpy1
 .iwram         0x03000a88       0x3c sdiv32.o
                0x03000a88                __aeabi_idivmod
                0x03000a88                __aeabi_idiv
 .iwram         0x03000ac4       0xec sqrt32.o
                0x03000ac4                isqrt32
 .iwram         0x03000bb0      0x1e0 udiv32.o
                0x03000bb0                __aeabi_uidivmod
                0x03000bb0                __aeabi_uidiv
                0x03000bb8                udiv32pastzero
                0x03000c0c                div32Iteration
 .iwram         0x03000d90       0x98 huffman.o
                0x03000d90                swi_HuffUnCompReadNormal
 .iwram         0x03000e28      0x1ac lz77.o
                0x03000e28                swi_LZ77UnCompWrite8bit
                0x03000e28                swi_LZ77UnCompWrite16bit
 .iwram         0x03000fd4       0xec running_length.o
                0x03000fd4                swi_RLUnCompReadNormalWrite8bit
                0x03001034                swi_RLUnCompReadNormalWrite16bit
 .iwram         0x030010c0      0x648 mm_mas_arm.o
                0x030010c0                mmAllocChannel
                0x03001134                mmReadPattern
                0x03001220                mmUpdateChannel_T0
                0x03001460                mmUpdateChannel_TN
                0x03001600                mmGetPeriod
                0x03001644                note_table_oct
                0x03001662                note_table_mod
 .iwram         0x03001708      0x554 mm_mas.o
                0x03001708                mppProcessTick
                0x030017ec                mpp_Channel_NewNote
                0x030018cc                mpp_Update_ACHN_notest
 .iwram         0x03001c5c        0x8 mm_main_gba.o
                0x03001c5c                mpp_call_r7i
                0x03001c5e                mpp_call_r2i
                0x03001c60                mpp_call_r1i
 .iwram         0x03001c64      0x838 mm_mixer_gba.o
                0x03001c68                mmVBlank
                0x03001cec                mmMixerMix
 *fill*         0x0300249c        0x4 ff
 .iwram.__stub  0x030024a0        0xc linker stubs
 *iwram.*(.text* .data*)
                0x030024ac                        . = ALIGN (0x4)
                0x030024b0                        __iwram_end__ = ABSOLUTE (.)
                0x08349648                        __data_lma = (__iwram_lma + SIZEOF (.iwram))

.bss            0x030024b0      0x86c
                0x030024b0                        __bss_start = ABSOLUTE (.)
                0x030024b0                        __bss_start__ = ABSOLUTE (.)
 *(.dynbss)
 *(.gnu.linkonce.b*)
 *(.bss*)
 .bss.completed.1
                0x030024b0        0x1 /opt/devkitpro/devkitARM/bin/../lib/gcc/arm-none-eabi/14.2.0/thumb/crtbegin.o
 *fill*         0x030024b1        0x3 
 .bss.object.0  0x030024b4       0x18 /opt/devkitpro/devkitARM/bin/../lib/gcc/arm-none-eabi/14.2.0/thumb/crtbegin.o
 .bss           0x030024cc      0x508 /tmp/ccwxil6c.ltrans4.ltrans.o
                0x030024cc                IRQ_VectorTable
                0x03002924                _ZN2bn22hblank_effects_manager12_GLOBAL__N_113internal_dataE.lto_priv.0
 .bss           0x030029d4        0x4 /tmp/ccwxil6c.ltrans7.ltrans.o
                0x030029d4                fake_heap_end
 .bss           0x030029d8       0x2d mm_effect.o
                0x030029fc                mm_sfx_bitmask
                0x03002a00                mm_sfx_clearmask
 *fill*         0x03002a05        0x3 
 .bss           0x03002a08        0x8 mm_main.o
                0x03002a08                mmCallback
                0x03002a0c                mm_ch_mask
 .bss           0x03002a10      0x148 mm_mas.o
                0x03002a10                mmLayerMain
                0x03002a48                mmLayerSub
                0x03002a80                mpp_vars
                0x03002a90                mpp_layerp
                0x03002a94                mpp_channels
                0x03002aa4                mpp_nchannels
                0x03002aa5                mpp_clayer
                0x03002aa8                mm_achannels
                0x03002aac                mm_pchannels
                0x03002ab0                mm_num_mch
                0x03002ab4                mm_num_ach
                0x03002ab8                mm_schannels
 .bss           0x03002b58        0x8 mm_main_gba.o
                0x03002b58                mm_vblank_function
                0x03002b5c                mp_solution
 .bss           0x03002b60      0x1bc mm_mixer_gba.o
                0x03002b60                mp_writepos
                0x03002b68                mm_mixchannels
                0x03002b70                mm_mixlen
                0x03002b84                mm_bpmdv
                0x03002b88                mp_mix_seg
 *(COMMON)
                0x03002d1c                        . = ALIGN (0x4)
                0x03002d1c                        __bss_end__ = ABSOLUTE (.)

.data           0x03002d1c        0x4 load address 0x08349648
                0x03002d1c                        __data_start__ = ABSOLUTE (.)
 *(.data*)
 .data.__dso_handle
                0x03002d1c        0x4 /opt/devkitpro/devkitARM/bin/../lib/gcc/arm-none-eabi/14.2.0/thumb/crtbegin.o
                0x03002d1c                __dso_handle
 *(.gnu.linkonce.d*)
                0x03002d20                        . = ALIGN (0x4)
                0x0834964c                        __preinit_lma = (__data_lma + SIZEOF (.data))

.igot.plt       0x03002d20        0x0 load address 0x0834964c
 .igot.plt      0x03002d20        0x0 /opt/devkitpro/devkitARM/bin/../lib/gcc/arm-none-eabi/14.2.0/../../../../arm-none-eabi/lib/thumb/gba_crt0.o

.preinit_array  0x03002d20        0x0 load address 0x0834964c
                0x03002d20                        __preinit_array_start = ABSOLUTE (.)
 *(.preinit_array)
                0x03002d20                        __preinit_array_end = ABSOLUTE (.)
                0x0834964c                        __init_lma = (__preinit_lma + SIZEOF (.preinit_array))

.init_array     0x03002d20        0x8 load address 0x0834964c
                0x03002d20                        __init_array_start = ABSOLUTE (.)
 *(SORT_BY_NAME(.init_array.*))
 *(.init_array)
 .init_array    0x03002d20        0x4 /opt/devkitpro/devkitARM/bin/../lib/gcc/arm-none-eabi/14.2.0/thumb/crtbegin.o
 .init_array    0x03002d24        0x4 /tmp/ccwxil6c.ltrans7.ltrans.o
                0x03002d28                        __init_array_end = ABSOLUTE (.)
                0x08349654                        __fini_lma = (__init_lma + SIZEOF (.init_array))

.fini_array     0x03002d28        0x4 load address 0x08349654
                0x03002d28                        __fini_array_start = ABSOLUTE (.)
 *(SORT_BY_NAME(.fini_array.*))
 *(.fini_array)
 .fini_array    0x03002d28        0x4 /opt/devkitpro/devkitARM/bin/../lib/gcc/arm-none-eabi/14.2.0/thumb/crtbegin.o
                0x03002d2c                        __fini_array_end = ABSOLUTE (.)
                0x08349658                        __jcr_lma = (__fini_lma + SIZEOF (.fini_array))

.jcr
 *(.jcr)
                0x03002d2c                        __data_end__ = ABSOLUTE (.)
                0x08349658                        __iwram_overlay_lma = (__jcr_lma + SIZEOF (.jcr))
                0x03002d2c                        __iwram_overlay_start = .

.iwram0         0x03002d2c        0x0 load address 0x08349658
 *(.iwram0)
                0x03002d2c                        . = ALIGN (0x4)
                0x08349658                        PROVIDE (__load_start_iwram0 = LOADADDR (.iwram0))
                0x08349658                        PROVIDE (__load_stop_iwram0 = (LOADADDR (.iwram0) + SIZEOF (.iwram0)))

.iwram1         0x03002d2c        0x0
 *(.iwram1)
                0x03002d2c                        . = ALIGN (0x4)
                [!provide]                        PROVIDE (__load_start_iwram1 = LOADADDR (.iwram1))
                [!provide]                        PROVIDE (__load_stop_iwram1 = (LOADADDR (.iwram1) + SIZEOF (.iwram1)))

.iwram2         0x03002d2c        0x0
 *(.iwram2)
                0x03002d2c                        . = ALIGN (0x4)
                [!provide]                        PROVIDE (__load_start_iwram2 = LOADADDR (.iwram2))
                [!provide]                        PROVIDE (__load_stop_iwram2 = (LOADADDR (.iwram2) + SIZEOF (.iwram2)))

.iwram3         0x03002d2c        0x0
 *(.iwram3)
                0x03002d2c                        . = ALIGN (0x4)
                [!provide]                        PROVIDE (__load_start_iwram3 = LOADADDR (.iwram3))
                [!provide]                        PROVIDE (__load_stop_iwram3 = (LOADADDR (.iwram3) + SIZEOF (.iwram3)))

.iwram4         0x03002d2c        0x0
 *(.iwram4)
                0x03002d2c                        . = ALIGN (0x4)
                [!provide]                        PROVIDE (__load_start_iwram4 = LOADADDR (.iwram4))
                [!provide]                        PROVIDE (__load_stop_iwram4 = (LOADADDR (.iwram4) + SIZEOF (.iwram4)))

.iwram5         0x03002d2c        0x0
 *(.iwram5)
                0x03002d2c                        . = ALIGN (0x4)
                [!provide]                        PROVIDE (__load_start_iwram5 = LOADADDR (.iwram5))
                [!provide]                        PROVIDE (__load_stop_iwram5 = (LOADADDR (.iwram5) + SIZEOF (.iwram5)))

.iwram6         0x03002d2c        0x0
 *(.iwram6)
                0x03002d2c                        . = ALIGN (0x4)
                [!provide]                        PROVIDE (__load_start_iwram6 = LOADADDR (.iwram6))
                [!provide]                        PROVIDE (__load_stop_iwram6 = (LOADADDR (.iwram6) + SIZEOF (.iwram6)))

.iwram7         0x03002d2c        0x0
 *(.iwram7)
                0x03002d2c                        . = ALIGN (0x4)
                [!provide]                        PROVIDE (__load_start_iwram7 = LOADADDR (.iwram7))
                [!provide]                        PROVIDE (__load_stop_iwram7 = (LOADADDR (.iwram7) + SIZEOF (.iwram7)))

.iwram8         0x03002d2c        0x0
 *(.iwram8)
                0x03002d2c                        . = ALIGN (0x4)
                [!provide]                        PROVIDE (__load_start_iwram8 = LOADADDR (.iwram8))
                [!provide]                        PROVIDE (__load_stop_iwram8 = (LOADADDR (.iwram8) + SIZEOF (.iwram8)))

.iwram9         0x03002d2c        0x0
 *(.iwram9)
                0x03002d2c                        . = ALIGN (0x4)
                [!provide]                        PROVIDE (__load_start_iwram9 = LOADADDR (.iwram9))
                [!provide]                        PROVIDE (__load_stop_iwram9 = (LOADADDR (.iwram9) + SIZEOF (.iwram9)))
                0x03002d2c                        __iwram_overlay_end = .
                0x08349658                        __ewram_lma = (__iwram_overlay_lma + (__iwram_overlay_end - __iwram_overlay_start))
                0x03002d2c                        __iheap_start = .
                0x02000000                        __ewram_start = ORIGIN (ewram)

.ewram          0x02000000       0xf4 load address 0x08349658
 *(.ewram*)
 .ewram         0x02000000        0x2 /tmp/ccwxil6c.ltrans0.ltrans.o
                0x02000000                _ZN2bn12gpio_manager12_GLOBAL__N_14dataE.lto_priv.0
 *fill*         0x02000002        0x2 ff
 .ewram         0x02000004        0xc /tmp/ccwxil6c.ltrans4.ltrans.o
                0x02000004                Vgm
 .ewram         0x02000010       0x48 /tmp/ccwxil6c.ltrans6.ltrans.o
 .ewram         0x02000058       0x9c bn_hw_game_pak.bn_ewram.o
                0x02000058                bn::hw::game_pak::_slow_game_pak()
                0x020000f4                        . = ALIGN (0x4)
                0x020000f4                        __ewram_end = ABSOLUTE (.)
                0x0834974c                        __pad_lma = (__ewram_lma + SIZEOF (.ewram))

.sbss           0x020000f4     0x8208
                0x020000f4                        __sbss_start__ = ABSOLUTE (.)
 *(.sbss*)
 .sbss          0x020000f4     0x7240 /tmp/ccwxil6c.ltrans0.ltrans.o
                0x020000f4                _ZN2bn15cameras_manager12_GLOBAL__N_14dataE.lto_priv.0
                0x0200012c                _ZN2bn14keypad_manager12_GLOBAL__N_14dataE.lto_priv.0
                0x02000144                _ZN2bn20sprite_tiles_manager12_GLOBAL__N_14dataE.lto_priv.0
                0x020017b8                _ZN2bn14memory_manager12_GLOBAL__N_14dataE.lto_priv.0
                0x020017cc                _ZN2bn15sprites_manager12_GLOBAL__N_14dataE.lto_priv.0
                0x02003e1c                _ZN2bn13audio_manager12_GLOBAL__N_14dataE.lto_priv.0
                0x02003f90                _ZN2bn22hblank_effects_manager12_GLOBAL__N_113external_dataE.lto_priv.0
                0x020059d4                _ZN2bn11bgs_manager12_GLOBAL__N_14dataE.lto_priv.0
                0x02005c80                _ZN2bn15display_manager12_GLOBAL__N_14dataE.lto_priv.0
                0x02005d24                _ZN2bn26sprite_affine_mats_manager12_GLOBAL__N_14dataE.lto_priv.0
                0x020065ec                _ZN2bn16palettes_manager12_GLOBAL__N_14dataE.lto_priv.0
 .sbss          0x02007334      0xfc8 /tmp/ccwxil6c.ltrans4.ltrans.o
                0x02007334                _ZN2bn2hw5audio12_GLOBAL__N_14dataE.lto_priv.0
                0x02007380                _ZN2bn12hdma_manager12_GLOBAL__N_14dataE.lto_priv.0
                0x020073b8                _ZN2bn4core12_GLOBAL__N_14dataE.lto_priv.0
                0x02007400                gbt.lto_priv.0
                0x02007498                _ZN2bn17bg_blocks_manager12_GLOBAL__N_14dataE.lto_priv.0
                0x020081cc                _ZN2bn2hw4link12_GLOBAL__N_14dataE.lto_priv.0
                0x020082fc                        . = ALIGN (0x4)
                0x020082fc                        __sbss_end__ = ABSOLUTE (.)
                0x020082fc                        __end__ = ABSOLUTE (.)
                0x020082fc                        __eheap_start = ABSOLUTE (.)

.pad            0x020082fc        0x8 load address 0x0834974c
                0x020082fc        0x4 LONG 0x52416b64
                0x02008300        0x4 LONG 0x4d
                0x02008304                        . = ALIGN (0x4)
                0x08349754                        __rom_end__ = (__pad_lma + SIZEOF (.pad))

.rel.dyn        0x02008304        0x0 load address 0x08349754
 .rel.iplt      0x02008304        0x0 /opt/devkitpro/devkitARM/bin/../lib/gcc/arm-none-eabi/14.2.0/../../../../arm-none-eabi/lib/thumb/gba_crt0.o

.stab
 *(.stab)

.stabstr
 *(.stabstr)

.stab.excl
 *(.stab.excl)

.stab.exclstr
 *(.stab.exclstr)

.stab.index
 *(.stab.index)

.stab.indexstr
 *(.stab.indexstr)

.comment        0x00000000       0x23
 *(.comment)
 .comment       0x00000000       0x23 /opt/devkitpro/devkitARM/bin/../lib/gcc/arm-none-eabi/14.2.0/thumb/crtbegin.o
                                 0x24 (size before relaxing)
 .comment       0x00000023       0x24 /tmp/ccwxil6c.ltrans0.ltrans.o
 .comment       0x00000023       0x24 /tmp/ccwxil6c.ltrans1.ltrans.o
 .comment       0x00000023       0x24 /tmp/ccwxil6c.ltrans2.ltrans.o
 .comment       0x00000023       0x24 /tmp/ccwxil6c.ltrans3.ltrans.o
 .comment       0x00000023       0x24 /tmp/ccwxil6c.ltrans4.ltrans.o
 .comment       0x00000023       0x24 /tmp/ccwxil6c.ltrans5.ltrans.o
 .comment       0x00000023       0x24 /tmp/ccwxil6c.ltrans6.ltrans.o
 .comment       0x00000023       0x24 /tmp/ccwxil6c.ltrans7.ltrans.o
 .comment       0x00000023       0x24 bn_sprites_manager.bn_iwram.o
 .comment       0x00000023       0x24 bn_hw_common.bn_noflto.o
 .comment       0x00000023       0x24 bn_hw_game_pak.bn_ewram.o
 .comment       0x00000023       0x24 bn_hw_gpio.bn_noflto.o
 .comment       0x00000023       0x24 bn_hw_palettes.bn_iwram.o
 .comment       0x00000023       0x24 bn_hw_sprite_tiles.bn_iwram.o
 .comment       0x00000023       0x24 bn_hw_sram.bn_noflto.o
 .comment       0x00000023       0x24 /opt/devkitpro/devkitARM/bin/../lib/gcc/arm-none-eabi/14.2.0/thumb/crtend.o

.debug
 *(.debug)

.line
 *(.line)

.debug_srcinfo
 *(.debug_srcinfo)

.debug_sfnames
 *(.debug_sfnames)

.debug_aranges  0x00000000      0x728
 *(.debug_aranges)
 .debug_aranges
                0x00000000       0x20 /tmp/ccwxil6c.ltrans0.ltrans.o
 .debug_aranges
                0x00000020       0x20 /tmp/ccwxil6c.ltrans1.ltrans.o
 .debug_aranges
                0x00000040       0x20 /tmp/ccwxil6c.ltrans2.ltrans.o
 .debug_aranges
                0x00000060       0x20 /tmp/ccwxil6c.ltrans3.ltrans.o
 .debug_aranges
                0x00000080       0x28 /tmp/ccwxil6c.ltrans4.ltrans.o
 .debug_aranges
                0x000000a8       0x20 /tmp/ccwxil6c.ltrans5.ltrans.o
 .debug_aranges
                0x000000c8       0x20 /tmp/ccwxil6c.ltrans6.ltrans.o
 .debug_aranges
                0x000000e8       0x20 /tmp/ccwxil6c.ltrans7.ltrans.o
 .debug_aranges
                0x00000108       0x30 bn_sprites_manager.bn_iwram.o
 .debug_aranges
                0x00000138       0x58 bn_hw_common.bn_noflto.o
 .debug_aranges
                0x00000190       0x20 bn_hw_game_pak.bn_ewram.o
 .debug_aranges
                0x000001b0       0x20 bn_hw_gpio.bn_noflto.o
 .debug_aranges
                0x000001d0       0x28 bn_hw_palettes.bn_iwram.o
 .debug_aranges
                0x000001f8       0x20 bn_hw_sprite_tiles.bn_iwram.o
 .debug_aranges
                0x00000218       0x20 bn_hw_sram.bn_noflto.o
 .debug_aranges
                0x00000238       0x20 bn_hw_bg_blocks.o
 .debug_aranges
                0x00000258       0x20 bn_hw_core.o
 .debug_aranges
                0x00000278       0x20 bn_hw_hblank_effects.o
 .debug_aranges
                0x00000298       0x20 bn_hw_palettes_asm.o
 .debug_aranges
                0x000002b8       0x20 clr_blend_fast.o
 .debug_aranges
                0x000002d8       0x20 clr_fade_fast.o
 .debug_aranges
                0x000002f8      0x130 tonc_bios.o
 .debug_aranges
                0x00000428       0x28 tonc_memset.o
 .debug_aranges
                0x00000450       0x20 irq_handler.o
 .debug_aranges
                0x00000470       0x20 posprintf.o
 .debug_aranges
                0x00000490       0x38 lmul.o
 .debug_aranges
                0x000004c8       0x30 memcpy.o
 .debug_aranges
                0x000004f8       0x38 memmove.o
 .debug_aranges
                0x00000530       0x38 memset.o
 .debug_aranges
                0x00000568       0x28 rmemcpy.o
 .debug_aranges
                0x00000590       0x20 sdiv32.o
 .debug_aranges
                0x000005b0       0x20 sqrt32.o
 .debug_aranges
                0x000005d0       0x20 udiv32.o
 .debug_aranges
                0x000005f0       0x20 huffman.o
 .debug_aranges
                0x00000610       0x20 lz77.o
 .debug_aranges
                0x00000630       0x20 running_length.o
 .debug_aranges
                0x00000650       0x20 mm_effect.o
 .debug_aranges
                0x00000670       0x20 mm_main.o
 .debug_aranges
                0x00000690       0x20 mm_mas_arm.o
 .debug_aranges
                0x000006b0       0x28 mm_mas.o
 .debug_aranges
                0x000006d8       0x28 mm_main_gba.o
 .debug_aranges
                0x00000700       0x28 mm_mixer_gba.o

.debug_pubnames
 *(.debug_pubnames)

.debug_info     0x00000000   0x62db89
 *(.debug_info)
 .debug_info    0x00000000    0x2f112 /tmp/ccwxil6c.ltrans0.ltrans.o
 .debug_info    0x0002f112    0x20490 /tmp/ccwxil6c.ltrans1.ltrans.o
 .debug_info    0x0004f5a2    0x2556a /tmp/ccwxil6c.ltrans2.ltrans.o
 .debug_info    0x00074b0c    0x2080b /tmp/ccwxil6c.ltrans3.ltrans.o
 .debug_info    0x00095317    0x20f31 /tmp/ccwxil6c.ltrans4.ltrans.o
 .debug_info    0x000b6248    0x1db31 /tmp/ccwxil6c.ltrans5.ltrans.o
 .debug_info    0x000d3d79    0x15156 /tmp/ccwxil6c.ltrans6.ltrans.o
 .debug_info    0x000e8ecf    0x2558f /tmp/ccwxil6c.ltrans7.ltrans.o
 .debug_info    0x0010e45e    0x12584 /tmp/ccLPsu2k.debug.temp.o
                0x0010e45e                bf_butano_background.cpp.185311a2
 .debug_info    0x001209e2     0x6083 /tmp/ccTTmALO.debug.temp.o
                0x001209e2                bf_circle_generator.cpp.d9bb9842
 .debug_info    0x00126a65    0x1aaea /tmp/ccvngEzd.debug.temp.o
                0x00126a65                bf_credits.cpp.b5495a63
 .debug_info    0x0014154f    0x10c47 /tmp/ccBkzJWB.debug.temp.o
                0x0014154f                bf_ending.cpp.b5d3e727
 .debug_info    0x00152196    0x1668e /tmp/ccHQF3rE.debug.temp.o
                0x00152196                bf_game_background.cpp.c6fb3e73
 .debug_info    0x00168824    0x23eee /tmp/ccyMJ3h4.debug.temp.o
                0x00168824                bf_game_boss.cpp.13e7fdb5
 .debug_info    0x0018c712    0x11e37 /tmp/cccUqufy.debug.temp.o
                0x0018c712                bf_game_boss_intro.cpp.f55dd9cc
 .debug_info    0x0019e549    0x20033 /tmp/cc1lJVON.debug.temp.o
                0x0019e549                bf_game_butano_boss.cpp.cff3b3e5
 .debug_info    0x001be57c    0x32a82 /tmp/ccYC9CrR.debug.temp.o
                0x001be57c                bf_game.cpp.b5ad9e6c
 .debug_info    0x001f0ffe    0x25ee2 /tmp/ccMBjpkG.debug.temp.o
                0x001f0ffe                bf_game_enemies.cpp.193599c9
 .debug_info    0x00216ee0    0x111c0 /tmp/ccLkJh5C.debug.temp.o
                0x00216ee0                bf_game_enemies_grid.cpp.9dabe667
 .debug_info    0x002280a0    0x121ef /tmp/ccF8matJ.debug.temp.o
                0x002280a0                bf_game_enemy_bullets.cpp.faca353d
 .debug_info    0x0023a28f    0x21908 /tmp/ccO6CZeV.debug.temp.o
                0x0023a28f                bf_game_enemy.cpp.22aa2d0f
 .debug_info    0x0025bb97     0xf22f /tmp/ccXTAcEU.debug.temp.o
                0x0025bb97                bf_game_explosion.cpp.b3b7059a
 .debug_info    0x0026adc6     0xe154 /tmp/ccU2ROTS.debug.temp.o
                0x0026adc6                bf_game_gem.cpp.6c4a118f
 .debug_info    0x00278f1a    0x1f457 /tmp/ccQv4rf1.debug.temp.o
                0x00278f1a                bf_game_gigabat_boss.cpp.88ee1750
 .debug_info    0x00298371    0x2dab7 /tmp/ccfH9ZNg.debug.temp.o
                0x00298371                bf_game_hero_bomb.cpp.1755d5a3
 .debug_info    0x002c5e28     0x537c /tmp/ccGDx6uD.debug.temp.o
                0x002c5e28                bf_game_hero_bullet_level.cpp.51e3c5f8
 .debug_info    0x002cb1a4    0x1fd19 /tmp/ccYD3xfL.debug.temp.o
                0x002cb1a4                bf_game_hero_bullets.cpp.44751fd4
 .debug_info    0x002eaebd    0x2d0b9 /tmp/cccFcHe5.debug.temp.o
                0x002eaebd                bf_game_hero.cpp.cf0e95d5
 .debug_info    0x00317f76    0x1dd74 /tmp/ccQhwUhr.debug.temp.o
                0x00317f76                bf_game_intro.cpp.6a437325
 .debug_info    0x00335cea     0xe2b1 /tmp/ccK68Gt6.debug.temp.o
                0x00335cea                bf_game_object.cpp.c461dac5
 .debug_info    0x00343f9b     0xeafa /tmp/ccloJbzs.debug.temp.o
                0x00343f9b                bf_game_object_message.cpp.eee797fd
 .debug_info    0x00352a95    0x10311 /tmp/ccERXZfz.debug.temp.o
                0x00352a95                bf_game_objects.cpp.2282f601
 .debug_info    0x00362da6     0xdc53 /tmp/ccnOOVEH.debug.temp.o
                0x00362da6                bf_game_pause.cpp.272e9103
 .debug_info    0x003709f9    0x1d411 /tmp/cckyefmF.debug.temp.o
                0x003709f9                bf_game_scoreboard.cpp.d2f7a023
 .debug_info    0x0038de0a     0xbc49 /tmp/ccTLAWHB.debug.temp.o
                0x0038de0a                bf_game_stage_1.cpp.5ce14d41
 .debug_info    0x00399a53     0xc364 /tmp/cckt39HZ.debug.temp.o
                0x00399a53                bf_game_stage_2.cpp.b8679c64
 .debug_info    0x003a5db7     0xc0b3 /tmp/ccOyttn4.debug.temp.o
                0x003a5db7                bf_game_stage_3.cpp.b300c214
 .debug_info    0x003b1e6a     0xbf88 /tmp/ccgtCrrI.debug.temp.o
                0x003b1e6a                bf_game_stage_4.cpp.acd3a244
 .debug_info    0x003bddf2    0x2089b /tmp/ccevTyAA.debug.temp.o
                0x003bddf2                bf_game_tank_boss.cpp.4b2b5e6e
 .debug_info    0x003de68d    0x1fc6c /tmp/ccoin7qt.debug.temp.o
                0x003de68d                bf_game_wizard_boss.cpp.9fe74993
 .debug_info    0x003fe2f9    0x1f98f /tmp/cckmxhZr.debug.temp.o
                0x003fe2f9                bf_how_to_play.cpp.17fa72ec
 .debug_info    0x0041dc88    0x12008 /tmp/cc2tkC9W.debug.temp.o
                0x0041dc88                bf_intro.cpp.bc03995c
 .debug_info    0x0042fc90     0xb89d /tmp/cc60W0eU.debug.temp.o
                0x0042fc90                bf_keypad_shortcuts.cpp.8636713c
 .debug_info    0x0043b52d     0xcabf /tmp/ccinOPal.debug.temp.o
                0x0043b52d                bf_stats.cpp.3a2a13a6
 .debug_info    0x00447fec     0xd1b0 /tmp/ccu9D4Lb.debug.temp.o
                0x00447fec                bf_status.cpp.1c4db436
 .debug_info    0x0045519c    0x22e92 /tmp/ccmZBs9D.debug.temp.o
                0x0045519c                bf_title.cpp.59c6cc08
 .debug_info    0x0047802e    0x15cef /tmp/ccvAOpIO.debug.temp.o
                0x0047802e                main.cpp.57d40222
 .debug_info    0x0048dd1d     0xb85a /tmp/cchIVJxn.debug.temp.o
                0x0048dd1d                bn_affine_bg_animate_actions.cpp.8a5ecdb3
 .debug_info    0x00499577     0xf6ec /tmp/cccUuQN0.debug.temp.o
                0x00499577                bn_audio_manager.cpp.087d1275
 .debug_info    0x004a8c63     0x6157 /tmp/ccvm6OfV.debug.temp.o
                0x004a8c63                bn_best_fit_allocator.cpp.d7f29479
 .debug_info    0x004aedba    0x1dc78 /tmp/ccjblKH8.debug.temp.o
                0x004aedba                bn_bg_blocks_manager.cpp.46649fdb
 .debug_info    0x004cca32    0x2254c /tmp/ccbgPEmv.debug.temp.o
                0x004cca32                bn_bgs_manager.cpp.b1785581
 .debug_info    0x004eef7e     0x693f /tmp/ccGN3ESM.debug.temp.o
                0x004eef7e                bn_cameras_manager.cpp.03cbd51b
 .debug_info    0x004f58bd     0x830b /tmp/ccpX1Wye.debug.temp.o
                0x004f58bd                bn_core.cpp.4ffede01
 .debug_info    0x004fdbc8    0x1628f /tmp/ccBnpy0h.debug.temp.o
                0x004fdbc8                bn_display_manager.cpp.0fbef1d9
 .debug_info    0x00513e57     0x67da /tmp/ccoe9SU4.debug.temp.o
                0x00513e57                bn_gpio_manager.cpp.82c1831f
 .debug_info    0x0051a631    0x3bf72 /tmp/ccb23JOW.debug.temp.o
                0x0051a631                bn_hblank_effects_manager.cpp.42645f64
 .debug_info    0x005565a3     0x3dc1 /tmp/ccGSFO42.debug.temp.o
                0x005565a3                bn_hdma_manager.cpp.cc5235ed
 .debug_info    0x0055a364     0x4bef /tmp/ccSA0n3K.debug.temp.o
                0x0055a364                bn_keypad_manager.cpp.4d101111
 .debug_info    0x0055ef53     0x68ea /tmp/ccui8Fjt.debug.temp.o
                0x0055ef53                bn_link_manager.cpp.9a889bcc
 .debug_info    0x0056583d     0x699a /tmp/ccUrz3T5.debug.temp.o
                0x0056583d                bn_memory_manager.cpp.14ef48d8
 .debug_info    0x0056c1d7    0x10c61 /tmp/ccfPzlbe.debug.temp.o
                0x0056c1d7                bn_palettes_manager.cpp.d0352358
 .debug_info    0x0057ce38    0x11f2f /tmp/ccqyI1Ps.debug.temp.o
                0x0057ce38                bn_sprite_affine_mats_manager.cpp.5ae2fce9
 .debug_info    0x0058ed67     0xab3c /tmp/cciVk3IR.debug.temp.o
                0x0058ed67                bn_sprite_animate_actions.cpp.3657d9a6
 .debug_info    0x005998a3    0x1d5ed /tmp/ccR8vJRs.debug.temp.o
                0x005998a3                bn_sprites_manager.cpp.5387ca74
 .debug_info    0x005b6e90    0x170cb /tmp/cc9HdzfJ.debug.temp.o
                0x005b6e90                bn_sprite_text_generator.cpp.9878217f
 .debug_info    0x005cdf5b     0xf797 /tmp/ccNgaVBb.debug.temp.o
                0x005cdf5b                bn_sprite_tiles_manager.cpp.3135f590
 .debug_info    0x005dd6f2     0x63d4 /tmp/ccmAJapq.debug.temp.o
                0x005dd6f2                bn_sstream.cpp.f3623159
 .debug_info    0x005e3ac6    0x12cbf /tmp/ccbVQ3pJ.debug.temp.o
                0x005e3ac6                bn_translation_unit.cpp.f20e6bad
 .debug_info    0x005f6785     0x5997 /tmp/ccbU9q6N.debug.temp.o
                0x005f6785                bn_hw_audio.cpp.3a6b34a0
 .debug_info    0x005fc11c     0x17d4 /tmp/ccOr1ybF.debug.temp.o
                0x005fc11c                bn_hw_cstdlib.cpp.1cac9c5a
 .debug_info    0x005fd8f0      0x52b /tmp/cctmeOAo.debug.temp.o
                0x005fd8f0                bn_hw_cstring.cpp.7acb1910
 .debug_info    0x005fde1b     0x5b59 /tmp/ccSAht3d.debug.temp.o
                0x005fde1b                bn_hw_link.cpp.674c540c
 .debug_info    0x00603974     0x49d6 /tmp/cc3qvCC8.debug.temp.o
                0x00603974                bn_hw_palettes.cpp.a7f7d025
 .debug_info    0x0060834a     0x80ec /tmp/ccx1qe0A.debug.temp.o
                0x0060834a                bn_hw_show.cpp.bd0fbeed
 .debug_info    0x00610436      0x6c7 /tmp/ccIHAlEK.debug.temp.o
                0x00610436                bn_hw_system_font.cpp.80668bb5
 .debug_info    0x00610afd     0x4acc /tmp/ccnNxNX9.debug.temp.o
                0x00610afd                bn_hw_text.cpp.ea8ca3fb
 .debug_info    0x006155c9      0x64e /tmp/ccjoDyMR.debug.temp.o
                0x006155c9                vgm.cpp.87a0f2bc
 .debug_info    0x00615c17      0x594 /tmp/ccncYbAT.debug.temp.o
                0x00615c17                tonc_color.c.2f415208
 .debug_info    0x006161ab      0x5e1 /tmp/cc9rEgyB.debug.temp.o
                0x006161ab                tonc_sbmp16.c.454f3ba0
 .debug_info    0x0061678c      0x596 /tmp/cc6C3MIm.debug.temp.o
                0x0061678c                bmp16_drawg_b1cs.c.1cefe251
 .debug_info    0x00616d22      0x4cf /tmp/ccVcSD9B.debug.temp.o
                0x00616d22                tte_init_bmp.c.32c7aa3c
 .debug_info    0x006171f1      0x9be /tmp/ccv9YwIu.debug.temp.o
                0x006171f1                tte_main.c.21549617
 .debug_info    0x00617baf      0x1b3 /tmp/ccRFkR96.debug.temp.o
                0x00617baf                interrupts_gba.c.a72fc5d1
 .debug_info    0x00617d62     0x119b /tmp/ccjhzTnl.debug.temp.o
                0x00617d62                gbt_player.c.2d5880d3
 .debug_info    0x00618efd     0xc3c4 bn_sprites_manager.bn_iwram.o
 .debug_info    0x006252c1     0x1c5b bn_hw_common.bn_noflto.o
 .debug_info    0x00626f1c      0x614 bn_hw_game_pak.bn_ewram.o
 .debug_info    0x00627530     0x4067 bn_hw_gpio.bn_noflto.o
 .debug_info    0x0062b597     0x1378 bn_hw_palettes.bn_iwram.o
 .debug_info    0x0062c90f      0x7a3 bn_hw_sprite_tiles.bn_iwram.o
 .debug_info    0x0062d0b2      0x55b bn_hw_sram.bn_noflto.o
 .debug_info    0x0062d60d       0x23 bn_hw_bg_blocks.o
 .debug_info    0x0062d630       0x23 bn_hw_core.o
 .debug_info    0x0062d653       0x24 bn_hw_hblank_effects.o
 .debug_info    0x0062d677       0x23 bn_hw_palettes_asm.o
 .debug_info    0x0062d69a       0x30 clr_blend_fast.o
 .debug_info    0x0062d6ca       0x23 clr_fade_fast.o
 .debug_info    0x0062d6ed      0x1c8 tonc_bios.o
 .debug_info    0x0062d8b5       0x3a tonc_memset.o
 .debug_info    0x0062d8ef       0x24 irq_handler.o
 .debug_info    0x0062d913       0x24 posprintf.o
 .debug_info    0x0062d937       0x22 lmul.o
 .debug_info    0x0062d959       0x22 memcpy.o
 .debug_info    0x0062d97b       0x22 memmove.o
 .debug_info    0x0062d99d       0x22 memset.o
 .debug_info    0x0062d9bf       0x22 rmemcpy.o
 .debug_info    0x0062d9e1       0x23 sdiv32.o
 .debug_info    0x0062da04       0x24 sqrt32.o
 .debug_info    0x0062da28       0x24 udiv32.o
 .debug_info    0x0062da4c       0x24 huffman.o
 .debug_info    0x0062da70       0x24 lz77.o
 .debug_info    0x0062da94       0x24 running_length.o
 .debug_info    0x0062dab8       0x24 mm_effect.o
 .debug_info    0x0062dadc       0x23 mm_main.o
 .debug_info    0x0062daff       0x24 mm_mas_arm.o
 .debug_info    0x0062db23       0x22 mm_mas.o
 .debug_info    0x0062db45       0x22 mm_main_gba.o
 .debug_info    0x0062db67       0x22 mm_mixer_gba.o

.debug_abbrev   0x00000000    0x3a57d
 *(.debug_abbrev)
 .debug_abbrev  0x00000000      0x328 /tmp/ccwxil6c.ltrans0.ltrans.o
 .debug_abbrev  0x00000328      0x302 /tmp/ccwxil6c.ltrans1.ltrans.o
 .debug_abbrev  0x0000062a      0x2ee /tmp/ccwxil6c.ltrans2.ltrans.o
 .debug_abbrev  0x00000918      0x2f9 /tmp/ccwxil6c.ltrans3.ltrans.o
 .debug_abbrev  0x00000c11      0x363 /tmp/ccwxil6c.ltrans4.ltrans.o
 .debug_abbrev  0x00000f74      0x34b /tmp/ccwxil6c.ltrans5.ltrans.o
 .debug_abbrev  0x000012bf      0x34f /tmp/ccwxil6c.ltrans6.ltrans.o
 .debug_abbrev  0x0000160e      0x235 /tmp/ccwxil6c.ltrans7.ltrans.o
 .debug_abbrev  0x00001843      0xc76 /tmp/ccLPsu2k.debug.temp.o
 .debug_abbrev  0x000024b9      0x997 /tmp/ccTTmALO.debug.temp.o
 .debug_abbrev  0x00002e50     0x1063 /tmp/ccvngEzd.debug.temp.o
 .debug_abbrev  0x00003eb3      0xe2f /tmp/ccBkzJWB.debug.temp.o
 .debug_abbrev  0x00004ce2      0xd9c /tmp/ccHQF3rE.debug.temp.o
 .debug_abbrev  0x00005a7e      0xf16 /tmp/ccyMJ3h4.debug.temp.o
 .debug_abbrev  0x00006994      0xd42 /tmp/cccUqufy.debug.temp.o
 .debug_abbrev  0x000076d6      0xff5 /tmp/cc1lJVON.debug.temp.o
 .debug_abbrev  0x000086cb     0x101c /tmp/ccYC9CrR.debug.temp.o
 .debug_abbrev  0x000096e7      0xeb3 /tmp/ccMBjpkG.debug.temp.o
 .debug_abbrev  0x0000a59a      0xd22 /tmp/ccLkJh5C.debug.temp.o
 .debug_abbrev  0x0000b2bc      0xe35 /tmp/ccF8matJ.debug.temp.o
 .debug_abbrev  0x0000c0f1      0xee8 /tmp/ccO6CZeV.debug.temp.o
 .debug_abbrev  0x0000cfd9      0xc71 /tmp/ccXTAcEU.debug.temp.o
 .debug_abbrev  0x0000dc4a      0xb80 /tmp/ccU2ROTS.debug.temp.o
 .debug_abbrev  0x0000e7ca     0x100f /tmp/ccQv4rf1.debug.temp.o
 .debug_abbrev  0x0000f7d9      0xf41 /tmp/ccfH9ZNg.debug.temp.o
 .debug_abbrev  0x0001071a      0x7f1 /tmp/ccGDx6uD.debug.temp.o
 .debug_abbrev  0x00010f0b      0xf1e /tmp/ccYD3xfL.debug.temp.o
 .debug_abbrev  0x00011e29      0xfec /tmp/cccFcHe5.debug.temp.o
 .debug_abbrev  0x00012e15      0xe4b /tmp/ccQhwUhr.debug.temp.o
 .debug_abbrev  0x00013c60      0xba2 /tmp/ccK68Gt6.debug.temp.o
 .debug_abbrev  0x00014802      0xcb1 /tmp/ccloJbzs.debug.temp.o
 .debug_abbrev  0x000154b3      0xe06 /tmp/ccERXZfz.debug.temp.o
 .debug_abbrev  0x000162b9      0xb4e /tmp/ccnOOVEH.debug.temp.o
 .debug_abbrev  0x00016e07      0xead /tmp/cckyefmF.debug.temp.o
 .debug_abbrev  0x00017cb4      0xa11 /tmp/ccTLAWHB.debug.temp.o
 .debug_abbrev  0x000186c5      0xa11 /tmp/cckt39HZ.debug.temp.o
 .debug_abbrev  0x000190d6      0x9fd /tmp/ccOyttn4.debug.temp.o
 .debug_abbrev  0x00019ad3      0x9fd /tmp/ccgtCrrI.debug.temp.o
 .debug_abbrev  0x0001a4d0     0x108b /tmp/ccevTyAA.debug.temp.o
 .debug_abbrev  0x0001b55b      0xff9 /tmp/ccoin7qt.debug.temp.o
 .debug_abbrev  0x0001c554     0x101c /tmp/cckmxhZr.debug.temp.o
 .debug_abbrev  0x0001d570      0xe2f /tmp/cc2tkC9W.debug.temp.o
 .debug_abbrev  0x0001e39f      0xabe /tmp/cc60W0eU.debug.temp.o
 .debug_abbrev  0x0001ee5d      0xbef /tmp/ccinOPal.debug.temp.o
 .debug_abbrev  0x0001fa4c      0xbe5 /tmp/ccu9D4Lb.debug.temp.o
 .debug_abbrev  0x00020631      0xf8d /tmp/ccmZBs9D.debug.temp.o
 .debug_abbrev  0x000215be      0xdf1 /tmp/ccvAOpIO.debug.temp.o
 .debug_abbrev  0x000223af      0xb2c /tmp/cchIVJxn.debug.temp.o
 .debug_abbrev  0x00022edb      0xe39 /tmp/cccUuQN0.debug.temp.o
 .debug_abbrev  0x00023d14      0x9eb /tmp/ccvm6OfV.debug.temp.o
 .debug_abbrev  0x000246ff      0xed5 /tmp/ccjblKH8.debug.temp.o
 .debug_abbrev  0x000255d4     0x1137 /tmp/ccbgPEmv.debug.temp.o
 .debug_abbrev  0x0002670b      0xb4d /tmp/ccGN3ESM.debug.temp.o
 .debug_abbrev  0x00027258      0xc88 /tmp/ccpX1Wye.debug.temp.o
 .debug_abbrev  0x00027ee0      0xd24 /tmp/ccBnpy0h.debug.temp.o
 .debug_abbrev  0x00028c04      0xa42 /tmp/ccoe9SU4.debug.temp.o
 .debug_abbrev  0x00029646     0x10c7 /tmp/ccb23JOW.debug.temp.o
 .debug_abbrev  0x0002a70d      0x845 /tmp/ccGSFO42.debug.temp.o
 .debug_abbrev  0x0002af52      0x919 /tmp/ccSA0n3K.debug.temp.o
 .debug_abbrev  0x0002b86b      0xac0 /tmp/ccui8Fjt.debug.temp.o
 .debug_abbrev  0x0002c32b      0xaa2 /tmp/ccUrz3T5.debug.temp.o
 .debug_abbrev  0x0002cdcd      0xe23 /tmp/ccfPzlbe.debug.temp.o
 .debug_abbrev  0x0002dbf0      0xf23 /tmp/ccqyI1Ps.debug.temp.o
 .debug_abbrev  0x0002eb13      0xad0 /tmp/cciVk3IR.debug.temp.o
 .debug_abbrev  0x0002f5e3      0xf86 /tmp/ccR8vJRs.debug.temp.o
 .debug_abbrev  0x00030569      0xdcb /tmp/cc9HdzfJ.debug.temp.o
 .debug_abbrev  0x00031334      0xed5 /tmp/ccNgaVBb.debug.temp.o
 .debug_abbrev  0x00032209      0x803 /tmp/ccmAJapq.debug.temp.o
 .debug_abbrev  0x00032a0c      0xd58 /tmp/ccbVQ3pJ.debug.temp.o
 .debug_abbrev  0x00033764      0xb8d /tmp/ccbU9q6N.debug.temp.o
 .debug_abbrev  0x000342f1      0x5c2 /tmp/ccOr1ybF.debug.temp.o
 .debug_abbrev  0x000348b3      0x14c /tmp/cctmeOAo.debug.temp.o
 .debug_abbrev  0x000349ff      0xa09 /tmp/ccSAht3d.debug.temp.o
 .debug_abbrev  0x00035408      0x7d4 /tmp/cc3qvCC8.debug.temp.o
 .debug_abbrev  0x00035bdc      0xb61 /tmp/ccx1qe0A.debug.temp.o
 .debug_abbrev  0x0003673d      0x228 /tmp/ccIHAlEK.debug.temp.o
 .debug_abbrev  0x00036965      0x849 /tmp/ccnNxNX9.debug.temp.o
 .debug_abbrev  0x000371ae      0x1a4 /tmp/ccjoDyMR.debug.temp.o
 .debug_abbrev  0x00037352       0xf4 /tmp/ccncYbAT.debug.temp.o
 .debug_abbrev  0x00037446      0x1c6 /tmp/cc9rEgyB.debug.temp.o
 .debug_abbrev  0x0003760c      0x174 /tmp/cc6C3MIm.debug.temp.o
 .debug_abbrev  0x00037780      0x1b1 /tmp/ccVcSD9B.debug.temp.o
 .debug_abbrev  0x00037931      0x266 /tmp/ccv9YwIu.debug.temp.o
 .debug_abbrev  0x00037b97       0xed /tmp/ccRFkR96.debug.temp.o
 .debug_abbrev  0x00037c84      0x187 /tmp/ccjhzTnl.debug.temp.o
 .debug_abbrev  0x00037e0b      0xbc1 bn_sprites_manager.bn_iwram.o
 .debug_abbrev  0x000389cc      0x697 bn_hw_common.bn_noflto.o
 .debug_abbrev  0x00039063      0x1e0 bn_hw_game_pak.bn_ewram.o
 .debug_abbrev  0x00039243      0x76c bn_hw_gpio.bn_noflto.o
 .debug_abbrev  0x000399af      0x569 bn_hw_palettes.bn_iwram.o
 .debug_abbrev  0x00039f18      0x282 bn_hw_sprite_tiles.bn_iwram.o
 .debug_abbrev  0x0003a19a      0x19f bn_hw_sram.bn_noflto.o
 .debug_abbrev  0x0003a339       0x14 bn_hw_bg_blocks.o
 .debug_abbrev  0x0003a34d       0x14 bn_hw_core.o
 .debug_abbrev  0x0003a361       0x14 bn_hw_hblank_effects.o
 .debug_abbrev  0x0003a375       0x14 bn_hw_palettes_asm.o
 .debug_abbrev  0x0003a389       0x28 clr_blend_fast.o
 .debug_abbrev  0x0003a3b1       0x14 clr_fade_fast.o
 .debug_abbrev  0x0003a3c5       0x26 tonc_bios.o
 .debug_abbrev  0x0003a3eb       0x26 tonc_memset.o
 .debug_abbrev  0x0003a411       0x14 irq_handler.o
 .debug_abbrev  0x0003a425       0x14 posprintf.o
 .debug_abbrev  0x0003a439       0x12 lmul.o
 .debug_abbrev  0x0003a44b       0x12 memcpy.o
 .debug_abbrev  0x0003a45d       0x12 memmove.o
 .debug_abbrev  0x0003a46f       0x12 memset.o
 .debug_abbrev  0x0003a481       0x12 rmemcpy.o
 .debug_abbrev  0x0003a493       0x14 sdiv32.o
 .debug_abbrev  0x0003a4a7       0x14 sqrt32.o
 .debug_abbrev  0x0003a4bb       0x14 udiv32.o
 .debug_abbrev  0x0003a4cf       0x14 huffman.o
 .debug_abbrev  0x0003a4e3       0x14 lz77.o
 .debug_abbrev  0x0003a4f7       0x14 running_length.o
 .debug_abbrev  0x0003a50b       0x14 mm_effect.o
 .debug_abbrev  0x0003a51f       0x14 mm_main.o
 .debug_abbrev  0x0003a533       0x14 mm_mas_arm.o
 .debug_abbrev  0x0003a547       0x12 mm_mas.o
 .debug_abbrev  0x0003a559       0x12 mm_main_gba.o
 .debug_abbrev  0x0003a56b       0x12 mm_mixer_gba.o

.debug_line     0x00000000    0xb7636
 *(.debug_line)
 .debug_line    0x00000000    0x156ce /tmp/ccwxil6c.ltrans0.ltrans.o
 .debug_line    0x000156ce     0xea1a /tmp/ccwxil6c.ltrans1.ltrans.o
 .debug_line    0x000240e8    0x11625 /tmp/ccwxil6c.ltrans2.ltrans.o
 .debug_line    0x0003570d     0xf4cb /tmp/ccwxil6c.ltrans3.ltrans.o
 .debug_line    0x00044bd8    0x1359e /tmp/ccwxil6c.ltrans4.ltrans.o
 .debug_line    0x00058176    0x10516 /tmp/ccwxil6c.ltrans5.ltrans.o
 .debug_line    0x0006868c     0xa73e /tmp/ccwxil6c.ltrans6.ltrans.o
 .debug_line    0x00072dca     0xea41 /tmp/ccwxil6c.ltrans7.ltrans.o
 .debug_line    0x0008180b      0xab7 /tmp/ccLPsu2k.debug.temp.o
 .debug_line    0x000822c2      0x72b /tmp/ccTTmALO.debug.temp.o
 .debug_line    0x000829ed     0x1024 /tmp/ccvngEzd.debug.temp.o
 .debug_line    0x00083a11      0xb43 /tmp/ccBkzJWB.debug.temp.o
 .debug_line    0x00084554      0xcaa /tmp/ccHQF3rE.debug.temp.o
 .debug_line    0x000851fe      0xfc4 /tmp/ccyMJ3h4.debug.temp.o
 .debug_line    0x000861c2      0xb68 /tmp/cccUqufy.debug.temp.o
 .debug_line    0x00086d2a      0xe18 /tmp/cc1lJVON.debug.temp.o
 .debug_line    0x00087b42     0x1130 /tmp/ccYC9CrR.debug.temp.o
 .debug_line    0x00088c72      0xefc /tmp/ccMBjpkG.debug.temp.o
 .debug_line    0x00089b6e      0x977 /tmp/ccLkJh5C.debug.temp.o
 .debug_line    0x0008a4e5      0xad3 /tmp/ccF8matJ.debug.temp.o
 .debug_line    0x0008afb8      0xd69 /tmp/ccO6CZeV.debug.temp.o
 .debug_line    0x0008bd21      0x920 /tmp/ccXTAcEU.debug.temp.o
 .debug_line    0x0008c641      0x9f5 /tmp/ccU2ROTS.debug.temp.o
 .debug_line    0x0008d036      0xd8a /tmp/ccQv4rf1.debug.temp.o
 .debug_line    0x0008ddc0     0x10ea /tmp/ccfH9ZNg.debug.temp.o
 .debug_line    0x0008eeaa      0x785 /tmp/ccGDx6uD.debug.temp.o
 .debug_line    0x0008f62f      0xda0 /tmp/ccYD3xfL.debug.temp.o
 .debug_line    0x000903cf     0x10b7 /tmp/cccFcHe5.debug.temp.o
 .debug_line    0x00091486      0xccc /tmp/ccQhwUhr.debug.temp.o
 .debug_line    0x00092152      0xb2d /tmp/ccK68Gt6.debug.temp.o
 .debug_line    0x00092c7f      0x998 /tmp/ccloJbzs.debug.temp.o
 .debug_line    0x00093617      0xa43 /tmp/ccERXZfz.debug.temp.o
 .debug_line    0x0009405a      0xa78 /tmp/ccnOOVEH.debug.temp.o
 .debug_line    0x00094ad2      0xd47 /tmp/cckyefmF.debug.temp.o
 .debug_line    0x00095819      0xc1f /tmp/ccTLAWHB.debug.temp.o
 .debug_line    0x00096438      0xbee /tmp/cckt39HZ.debug.temp.o
 .debug_line    0x00097026      0xc20 /tmp/ccOyttn4.debug.temp.o
 .debug_line    0x00097c46      0xc89 /tmp/ccgtCrrI.debug.temp.o
 .debug_line    0x000988cf      0xdd9 /tmp/ccevTyAA.debug.temp.o
 .debug_line    0x000996a8      0xd84 /tmp/ccoin7qt.debug.temp.o
 .debug_line    0x0009a42c      0xee4 /tmp/cckmxhZr.debug.temp.o
 .debug_line    0x0009b310      0xaaf /tmp/cc2tkC9W.debug.temp.o
 .debug_line    0x0009bdbf      0x945 /tmp/cc60W0eU.debug.temp.o
 .debug_line    0x0009c704      0x8f5 /tmp/ccinOPal.debug.temp.o
 .debug_line    0x0009cff9      0xaef /tmp/ccu9D4Lb.debug.temp.o
 .debug_line    0x0009dae8      0xf42 /tmp/ccmZBs9D.debug.temp.o
 .debug_line    0x0009ea2a      0xde7 /tmp/ccvAOpIO.debug.temp.o
 .debug_line    0x0009f811      0x7be /tmp/cchIVJxn.debug.temp.o
 .debug_line    0x0009ffcf      0xa0c /tmp/cccUuQN0.debug.temp.o
 .debug_line    0x000a09db      0x6b2 /tmp/ccvm6OfV.debug.temp.o
 .debug_line    0x000a108d      0xbfe /tmp/ccjblKH8.debug.temp.o
 .debug_line    0x000a1c8b      0xe3d /tmp/ccbgPEmv.debug.temp.o
 .debug_line    0x000a2ac8      0x78e /tmp/ccGN3ESM.debug.temp.o
 .debug_line    0x000a3256      0xb24 /tmp/ccpX1Wye.debug.temp.o
 .debug_line    0x000a3d7a      0xd3f /tmp/ccBnpy0h.debug.temp.o
 .debug_line    0x000a4ab9      0x7c0 /tmp/ccoe9SU4.debug.temp.o
 .debug_line    0x000a5279     0x1fcc /tmp/ccb23JOW.debug.temp.o
 .debug_line    0x000a7245      0x717 /tmp/ccGSFO42.debug.temp.o
 .debug_line    0x000a795c      0x6bc /tmp/ccSA0n3K.debug.temp.o
 .debug_line    0x000a8018      0x843 /tmp/ccui8Fjt.debug.temp.o
 .debug_line    0x000a885b      0x8f3 /tmp/ccUrz3T5.debug.temp.o
 .debug_line    0x000a914e      0xb38 /tmp/ccfPzlbe.debug.temp.o
 .debug_line    0x000a9c86      0xb41 /tmp/ccqyI1Ps.debug.temp.o
 .debug_line    0x000aa7c7      0x757 /tmp/cciVk3IR.debug.temp.o
 .debug_line    0x000aaf1e      0xd0c /tmp/ccR8vJRs.debug.temp.o
 .debug_line    0x000abc2a      0xa75 /tmp/cc9HdzfJ.debug.temp.o
 .debug_line    0x000ac69f      0x99e /tmp/ccNgaVBb.debug.temp.o
 .debug_line    0x000ad03d      0x63f /tmp/ccmAJapq.debug.temp.o
 .debug_line    0x000ad67c      0xb97 /tmp/ccbVQ3pJ.debug.temp.o
 .debug_line    0x000ae213      0x8fd /tmp/ccbU9q6N.debug.temp.o
 .debug_line    0x000aeb10      0x471 /tmp/ccOr1ybF.debug.temp.o
 .debug_line    0x000aef81      0x287 /tmp/cctmeOAo.debug.temp.o
 .debug_line    0x000af208      0x760 /tmp/ccSAht3d.debug.temp.o
 .debug_line    0x000af968      0x6cd /tmp/cc3qvCC8.debug.temp.o
 .debug_line    0x000b0035      0x8c7 /tmp/ccx1qe0A.debug.temp.o
 .debug_line    0x000b08fc      0x314 /tmp/ccIHAlEK.debug.temp.o
 .debug_line    0x000b0c10      0x6b5 /tmp/ccnNxNX9.debug.temp.o
 .debug_line    0x000b12c5      0x24d /tmp/ccjoDyMR.debug.temp.o
 .debug_line    0x000b1512      0x107 /tmp/ccncYbAT.debug.temp.o
 .debug_line    0x000b1619      0x10a /tmp/cc9rEgyB.debug.temp.o
 .debug_line    0x000b1723      0x112 /tmp/cc6C3MIm.debug.temp.o
 .debug_line    0x000b1835      0x10e /tmp/ccVcSD9B.debug.temp.o
 .debug_line    0x000b1943      0x153 /tmp/ccv9YwIu.debug.temp.o
 .debug_line    0x000b1a96      0x17c /tmp/ccRFkR96.debug.temp.o
 .debug_line    0x000b1c12      0x180 /tmp/ccjhzTnl.debug.temp.o
 .debug_line    0x000b1d92     0x1067 bn_sprites_manager.bn_iwram.o
 .debug_line    0x000b2df9      0x698 bn_hw_common.bn_noflto.o
 .debug_line    0x000b3491      0x4ff bn_hw_game_pak.bn_ewram.o
 .debug_line    0x000b3990      0x6b1 bn_hw_gpio.bn_noflto.o
 .debug_line    0x000b4041      0x753 bn_hw_palettes.bn_iwram.o
 .debug_line    0x000b4794      0x41b bn_hw_sprite_tiles.bn_iwram.o
 .debug_line    0x000b4baf      0x389 bn_hw_sram.bn_noflto.o
 .debug_line    0x000b4f38       0xa1 bn_hw_bg_blocks.o
 .debug_line    0x000b4fd9       0x8b bn_hw_core.o
 .debug_line    0x000b5064       0xba bn_hw_hblank_effects.o
 .debug_line    0x000b511e       0x91 bn_hw_palettes_asm.o
 .debug_line    0x000b51af       0xb1 clr_blend_fast.o
 .debug_line    0x000b5260       0xb0 clr_fade_fast.o
 .debug_line    0x000b5310      0x2cc tonc_bios.o
 .debug_line    0x000b55dc       0xcf tonc_memset.o
 .debug_line    0x000b56ab       0xec irq_handler.o
 .debug_line    0x000b5797      0x1c6 posprintf.o
 .debug_line    0x000b595d       0xcc lmul.o
 .debug_line    0x000b5a29       0xe2 memcpy.o
 .debug_line    0x000b5b0b       0xc2 memmove.o
 .debug_line    0x000b5bcd       0xec memset.o
 .debug_line    0x000b5cb9       0xcf rmemcpy.o
 .debug_line    0x000b5d88       0x9d sdiv32.o
 .debug_line    0x000b5e25       0xc9 sqrt32.o
 .debug_line    0x000b5eee      0x106 udiv32.o
 .debug_line    0x000b5ff4       0xb9 huffman.o
 .debug_line    0x000b60ad       0xff lz77.o
 .debug_line    0x000b61ac       0xd7 running_length.o
 .debug_line    0x000b6283      0x228 mm_effect.o
 .debug_line    0x000b64ab       0x99 mm_main.o
 .debug_line    0x000b6544      0x20e mm_mas_arm.o
 .debug_line    0x000b6752      0xa88 mm_mas.o
 .debug_line    0x000b71da      0x12c mm_main_gba.o
 .debug_line    0x000b7306      0x330 mm_mixer_gba.o

.debug_frame    0x00000000     0x3bf0
 *(.debug_frame)
 .debug_frame   0x00000000      0x80c /tmp/ccwxil6c.ltrans0.ltrans.o
 .debug_frame   0x0000080c      0x400 /tmp/ccwxil6c.ltrans1.ltrans.o
 .debug_frame   0x00000c0c      0x434 /tmp/ccwxil6c.ltrans2.ltrans.o
 .debug_frame   0x00001040      0x434 /tmp/ccwxil6c.ltrans3.ltrans.o
 .debug_frame   0x00001474      0x47c /tmp/ccwxil6c.ltrans4.ltrans.o
 .debug_frame   0x000018f0      0xc68 /tmp/ccwxil6c.ltrans5.ltrans.o
 .debug_frame   0x00002558      0xe38 /tmp/ccwxil6c.ltrans6.ltrans.o
 .debug_frame   0x00003390      0x5e0 /tmp/ccwxil6c.ltrans7.ltrans.o
 .debug_frame   0x00003970       0x94 bn_sprites_manager.bn_iwram.o
 .debug_frame   0x00003a04       0xec bn_hw_common.bn_noflto.o
 .debug_frame   0x00003af0       0x34 bn_hw_game_pak.bn_ewram.o
 .debug_frame   0x00003b24       0x20 bn_hw_gpio.bn_noflto.o
 .debug_frame   0x00003b44       0x48 bn_hw_palettes.bn_iwram.o
 .debug_frame   0x00003b8c       0x44 bn_hw_sprite_tiles.bn_iwram.o
 .debug_frame   0x00003bd0       0x20 bn_hw_sram.bn_noflto.o

.debug_str      0x00000000    0xf3873
 *(.debug_str)
 .debug_str     0x00000000      0x890 /tmp/ccwxil6c.ltrans0.ltrans.o
 .debug_str     0x00000000      0x49e /tmp/ccwxil6c.ltrans1.ltrans.o
 .debug_str     0x00000000      0x5fa /tmp/ccwxil6c.ltrans2.ltrans.o
 .debug_str     0x00000000      0x63b /tmp/ccwxil6c.ltrans3.ltrans.o
 .debug_str     0x00000000      0x733 /tmp/ccwxil6c.ltrans4.ltrans.o
 .debug_str     0x00000000      0x778 /tmp/ccwxil6c.ltrans5.ltrans.o
 .debug_str     0x00000000      0xe64 /tmp/ccwxil6c.ltrans6.ltrans.o
 .debug_str     0x00000000     0x100a /tmp/ccwxil6c.ltrans7.ltrans.o
 .debug_str     0x00000000    0x167a7 /tmp/ccLPsu2k.debug.temp.o
 .debug_str     0x00000000     0x57aa /tmp/ccTTmALO.debug.temp.o
 .debug_str     0x00000000    0x1f2ef /tmp/ccvngEzd.debug.temp.o
 .debug_str     0x00000000    0x14695 /tmp/ccBkzJWB.debug.temp.o
 .debug_str     0x00000000    0x1a9f6 /tmp/ccHQF3rE.debug.temp.o
 .debug_str     0x00000000    0x33b83 /tmp/ccyMJ3h4.debug.temp.o
 .debug_str     0x00000000    0x13e56 /tmp/cccUqufy.debug.temp.o
 .debug_str     0x00000000    0x28e15 /tmp/cc1lJVON.debug.temp.o
 .debug_str     0x00000000    0x4b1cf /tmp/ccYC9CrR.debug.temp.o
 .debug_str     0x00000000    0x36f6f /tmp/ccMBjpkG.debug.temp.o
 .debug_str     0x00000000    0x14f0d /tmp/ccLkJh5C.debug.temp.o
 .debug_str     0x00000000    0x152dc /tmp/ccF8matJ.debug.temp.o
 .debug_str     0x00000000    0x2b76d /tmp/ccO6CZeV.debug.temp.o
 .debug_str     0x00000000    0x10b7f /tmp/ccXTAcEU.debug.temp.o
 .debug_str     0x00000000    0x105ba /tmp/ccU2ROTS.debug.temp.o
 .debug_str     0x00000000    0x26873 /tmp/ccQv4rf1.debug.temp.o
 .debug_str     0x00000000    0x425e0 /tmp/ccfH9ZNg.debug.temp.o
 .debug_str     0x00000000     0x433b /tmp/ccGDx6uD.debug.temp.o
 .debug_str     0x00000000    0x2ad57 /tmp/ccYD3xfL.debug.temp.o
 .debug_str     0x00000000    0x3e087 /tmp/cccFcHe5.debug.temp.o
 .debug_str     0x00000000    0x25747 /tmp/ccQhwUhr.debug.temp.o
 .debug_str     0x00000000    0x106ae /tmp/ccK68Gt6.debug.temp.o
 .debug_str     0x00000000    0x112d8 /tmp/ccloJbzs.debug.temp.o
 .debug_str     0x00000000    0x128fd /tmp/ccERXZfz.debug.temp.o
 .debug_str     0x00000000    0x1202b /tmp/ccnOOVEH.debug.temp.o
 .debug_str     0x00000000    0x24e29 /tmp/cckyefmF.debug.temp.o
 .debug_str     0x00000000     0xc28c /tmp/ccTLAWHB.debug.temp.o
 .debug_str     0x00000000     0xc263 /tmp/cckt39HZ.debug.temp.o
 .debug_str     0x00000000     0xc39d /tmp/ccOyttn4.debug.temp.o
 .debug_str     0x00000000     0xc606 /tmp/ccgtCrrI.debug.temp.o
 .debug_str     0x00000000    0x286fd /tmp/ccevTyAA.debug.temp.o
 .debug_str     0x00000000    0x27557 /tmp/ccoin7qt.debug.temp.o
 .debug_str     0x00000000    0x282e8 /tmp/cckmxhZr.debug.temp.o
 .debug_str     0x00000000    0x1488c /tmp/cc2tkC9W.debug.temp.o
 .debug_str     0x00000000     0xd9d1 /tmp/cc60W0eU.debug.temp.o
 .debug_str     0x00000000     0xd153 /tmp/ccinOPal.debug.temp.o
 .debug_str     0x00000000     0xdcca /tmp/ccu9D4Lb.debug.temp.o
 .debug_str     0x00000000    0x27efd /tmp/ccmZBs9D.debug.temp.o
 .debug_str     0x00000000    0x1b835 /tmp/ccvAOpIO.debug.temp.o
 .debug_str     0x00000000     0xbf5f /tmp/cchIVJxn.debug.temp.o
 .debug_str     0x00000000     0xdfac /tmp/cccUuQN0.debug.temp.o
 .debug_str     0x00000000     0x4c03 /tmp/ccvm6OfV.debug.temp.o
 .debug_str     0x00000000    0x1812d /tmp/ccjblKH8.debug.temp.o
 .debug_str     0x00000000    0x1f4fc /tmp/ccbgPEmv.debug.temp.o
 .debug_str     0x00000000     0x5e5e /tmp/ccGN3ESM.debug.temp.o
 .debug_str     0x00000000     0x7684 /tmp/ccpX1Wye.debug.temp.o
 .debug_str     0x00000000    0x19c2e /tmp/ccBnpy0h.debug.temp.o
 .debug_str     0x00000000     0x5386 /tmp/ccoe9SU4.debug.temp.o
 .debug_str     0x00000000    0x4e3b6 /tmp/ccb23JOW.debug.temp.o
 .debug_str     0x00000000     0x2779 /tmp/ccGSFO42.debug.temp.o
 .debug_str     0x00000000     0x39b6 /tmp/ccSA0n3K.debug.temp.o
 .debug_str     0x00000000     0x5b5e /tmp/ccui8Fjt.debug.temp.o
 .debug_str     0x00000000     0x5444 /tmp/ccUrz3T5.debug.temp.o
 .debug_str     0x00000000     0xe633 /tmp/ccfPzlbe.debug.temp.o
 .debug_str     0x00000000    0x1215b /tmp/ccqyI1Ps.debug.temp.o
 .debug_str     0x00000000     0xa66d /tmp/cciVk3IR.debug.temp.o
 .debug_str     0x00000000    0x1b8b3 /tmp/ccR8vJRs.debug.temp.o
 .debug_str     0x00000000    0x1337d /tmp/cc9HdzfJ.debug.temp.o
 .debug_str     0x00000000     0xb51e /tmp/ccNgaVBb.debug.temp.o
 .debug_str     0x00000000     0x4270 /tmp/ccmAJapq.debug.temp.o
 .debug_str     0x00000000     0xe99f /tmp/ccbVQ3pJ.debug.temp.o
 .debug_str     0x00000000     0x3449 /tmp/ccbU9q6N.debug.temp.o
 .debug_str     0x00000000     0x14b9 /tmp/ccOr1ybF.debug.temp.o
 .debug_str     0x00000000      0x524 /tmp/cctmeOAo.debug.temp.o
 .debug_str     0x00000000     0x4634 /tmp/ccSAht3d.debug.temp.o
 .debug_str     0x00000000     0x2c1d /tmp/cc3qvCC8.debug.temp.o
 .debug_str     0x00000000     0x6471 /tmp/ccx1qe0A.debug.temp.o
 .debug_str     0x00000000      0x616 /tmp/ccIHAlEK.debug.temp.o
 .debug_str     0x00000000     0x3292 /tmp/ccnNxNX9.debug.temp.o
 .debug_str     0x00000000      0x604 /tmp/ccjoDyMR.debug.temp.o
 .debug_str     0x00000000      0x2f4 /tmp/ccncYbAT.debug.temp.o
 .debug_str     0x00000000      0x33a /tmp/cc9rEgyB.debug.temp.o
 .debug_str     0x00000000      0x383 /tmp/cc6C3MIm.debug.temp.o
 .debug_str     0x00000000      0x3b1 /tmp/ccVcSD9B.debug.temp.o
 .debug_str     0x00000000      0x5b4 /tmp/ccv9YwIu.debug.temp.o
 .debug_str     0x00000000      0x35f /tmp/ccRFkR96.debug.temp.o
 .debug_str     0x00000000      0xaef /tmp/ccjhzTnl.debug.temp.o
 .debug_str     0x00000000    0xf3873 bn_sprites_manager.bn_iwram.o
                               0xdaed (size before relaxing)
 .debug_str     0x000f3873     0x157c bn_hw_common.bn_noflto.o
 .debug_str     0x000f3873      0x5f8 bn_hw_game_pak.bn_ewram.o
 .debug_str     0x000f3873     0x34e7 bn_hw_gpio.bn_noflto.o
 .debug_str     0x000f3873      0xd40 bn_hw_palettes.bn_iwram.o
 .debug_str     0x000f3873      0x5ea bn_hw_sprite_tiles.bn_iwram.o
 .debug_str     0x000f3873      0x5bf bn_hw_sram.bn_noflto.o
 .debug_str     0x000f3873       0xaf bn_hw_bg_blocks.o
 .debug_str     0x000f3873       0xaa bn_hw_core.o
 .debug_str     0x000f3873       0xb4 bn_hw_hblank_effects.o
 .debug_str     0x000f3873       0xb2 bn_hw_palettes_asm.o
 .debug_str     0x000f3873       0xcf clr_blend_fast.o
 .debug_str     0x000f3873       0xbf clr_fade_fast.o
 .debug_str     0x000f3873      0x273 tonc_bios.o
 .debug_str     0x000f3873       0xcf tonc_memset.o
 .debug_str     0x000f3873       0xbd irq_handler.o
 .debug_str     0x000f3873       0xbd posprintf.o
 .debug_str     0x000f3873       0xb5 lmul.o
 .debug_str     0x000f3873       0xb7 memcpy.o
 .debug_str     0x000f3873       0xb8 memmove.o
 .debug_str     0x000f3873       0xb7 memset.o
 .debug_str     0x000f3873       0xb8 rmemcpy.o
 .debug_str     0x000f3873       0xbb sdiv32.o
 .debug_str     0x000f3873       0xbb sqrt32.o
 .debug_str     0x000f3873       0xbb udiv32.o
 .debug_str     0x000f3873       0xc2 huffman.o
 .debug_str     0x000f3873       0xbf lz77.o
 .debug_str     0x000f3873       0xc9 running_length.o
 .debug_str     0x000f3873       0xbd mm_effect.o
 .debug_str     0x000f3873       0xbb mm_main.o
 .debug_str     0x000f3873       0xbe mm_mas_arm.o
 .debug_str     0x000f3873       0xba mm_mas.o
 .debug_str     0x000f3873       0xc3 mm_main_gba.o
 .debug_str     0x000f3873       0xc4 mm_mixer_gba.o

.debug_loc      0x00000000   0x119313
 *(.debug_loc)
 .debug_loc     0x00000000    0x2dd00 /tmp/ccwxil6c.ltrans0.ltrans.o
 .debug_loc     0x0002dd00    0x1eb5b /tmp/ccwxil6c.ltrans1.ltrans.o
 .debug_loc     0x0004c85b    0x240bc /tmp/ccwxil6c.ltrans2.ltrans.o
 .debug_loc     0x00070917    0x1cd22 /tmp/ccwxil6c.ltrans3.ltrans.o
 .debug_loc     0x0008d639    0x2b317 /tmp/ccwxil6c.ltrans4.ltrans.o
 .debug_loc     0x000b8950    0x20e9d /tmp/ccwxil6c.ltrans5.ltrans.o
 .debug_loc     0x000d97ed    0x18cc3 /tmp/ccwxil6c.ltrans6.ltrans.o
 .debug_loc     0x000f24b0    0x258fb /tmp/ccwxil6c.ltrans7.ltrans.o
 .debug_loc     0x00117dab      0xbb3 bn_sprites_manager.bn_iwram.o
 .debug_loc     0x0011895e      0x309 bn_hw_common.bn_noflto.o
 .debug_loc     0x00118c67      0x102 bn_hw_game_pak.bn_ewram.o
 .debug_loc     0x00118d69      0x371 bn_hw_palettes.bn_iwram.o
 .debug_loc     0x001190da      0x239 bn_hw_sprite_tiles.bn_iwram.o

.debug_macinfo
 *(.debug_macinfo)

.debug_weaknames
 *(.debug_weaknames)

.debug_funcnames
 *(.debug_funcnames)

.debug_typenames
 *(.debug_typenames)

.debug_varnames
 *(.debug_varnames)

.stack          0x00080000        0x0
                0x00080000                        _stack = .
 *(.stack)

.note.gnu.arm.ident
 *(.note.gnu.arm.ident)

.ARM.attributes
                0x00000000       0x2c
 *(.ARM.attributes)
 .ARM.attributes
                0x00000000       0x20 /opt/devkitpro/devkitARM/bin/../lib/gcc/arm-none-eabi/14.2.0/../../../../arm-none-eabi/lib/thumb/gba_crt0.o
 .ARM.attributes
                0x00000020       0x1c /opt/devkitpro/devkitARM/bin/../lib/gcc/arm-none-eabi/14.2.0/thumb/crti.o
 .ARM.attributes
                0x0000003c       0x2a /opt/devkitpro/devkitARM/bin/../lib/gcc/arm-none-eabi/14.2.0/thumb/crtbegin.o
 .ARM.attributes
                0x00000066       0x1a _bn_audio_soundbank.bin.o
 .ARM.attributes
                0x00000080       0x1a big_font_bn_gfx.o
 .ARM.attributes
                0x0000009a       0x1a boss_intro_bn_gfx.o
 .ARM.attributes
                0x000000b4       0x1a brightness_bn_gfx.o
 .ARM.attributes
                0x000000ce       0x1a butano_background_bn_gfx.o
 .ARM.attributes
                0x000000e8       0x1a butano_big_silhouette_bn_gfx.o
 .ARM.attributes
                0x00000102       0x1a butano_big_sprite_bn_gfx.o
 .ARM.attributes
                0x0000011c       0x1a butano_fire_bn_gfx.o
 .ARM.attributes
                0x00000136       0x1a butano_flash_palette_bn_gfx.o
 .ARM.attributes
                0x00000150       0x1a butano_font_bn_gfx.o
 .ARM.attributes
                0x0000016a       0x1a butano_huge_bn_gfx.o
 .ARM.attributes
                0x00000184       0x1a clouds_bn_gfx.o
 .ARM.attributes
                0x0000019e       0x1a enemy_bullets_bn_gfx.o
 .ARM.attributes
                0x000001b8       0x1a enemy_explosion_bn_gfx.o
 .ARM.attributes
                0x000001d2       0x1a experience_bar_bn_gfx.o
 .ARM.attributes
                0x000001ec       0x1a experience_frame_back_bn_gfx.o
 .ARM.attributes
                0x00000206       0x1a experience_frame_front_bn_gfx.o
 .ARM.attributes
                0x00000220       0x1a fighter_font_bn_gfx.o
 .ARM.attributes
                0x0000023a       0x1a flash_palette_bn_gfx.o
 .ARM.attributes
                0x00000254       0x1a gem_bn_gfx.o
 .ARM.attributes
                0x0000026e       0x1a gigabat_bn_gfx.o
 .ARM.attributes
                0x00000288       0x1a gigabat_shadow_bn_gfx.o
 .ARM.attributes
                0x000002a2       0x1a hero_body_flying_bn_gfx.o
 .ARM.attributes
                0x000002bc       0x1a hero_body_walking_bn_gfx.o
 .ARM.attributes
                0x000002d6       0x1a hero_bomb_bn_gfx.o
 .ARM.attributes
                0x000002f0       0x1a hero_bomb_icon_bn_gfx.o
 .ARM.attributes
                0x0000030a       0x1a hero_bomb_mini_bn_gfx.o
 .ARM.attributes
                0x00000324       0x1a hero_bullets_bn_gfx.o
 .ARM.attributes
                0x0000033e       0x1a hero_death_bn_gfx.o
 .ARM.attributes
                0x00000358       0x1a hero_head_bn_gfx.o
 .ARM.attributes
                0x00000372       0x1a hero_shield_bn_gfx.o
 .ARM.attributes
                0x0000038c       0x1a hero_weapon_big_2_bn_gfx.o
 .ARM.attributes
                0x000003a6       0x1a hero_weapon_big_3_bn_gfx.o
 .ARM.attributes
                0x000003c0       0x1a hero_weapon_big_4_bn_gfx.o
 .ARM.attributes
                0x000003da       0x1a hero_weapon_big_5_bn_gfx.o
 .ARM.attributes
                0x000003f4       0x1a hero_weapon_big_6_bn_gfx.o
 .ARM.attributes
                0x0000040e       0x1a hero_weapon_big_7_bn_gfx.o
 .ARM.attributes
                0x00000428       0x1a hero_weapon_big_8_bn_gfx.o
 .ARM.attributes
                0x00000442       0x1a hero_weapon_big_9_bn_gfx.o
 .ARM.attributes
                0x0000045c       0x1a hero_weapons_bn_gfx.o
 .ARM.attributes
                0x00000476       0x1a mini_explosion_2_bn_gfx.o
 .ARM.attributes
                0x00000490       0x1a mini_explosion_bn_gfx.o
 .ARM.attributes
                0x000004aa       0x1a mountain_clouds_bn_gfx.o
 .ARM.attributes
                0x000004c4       0x1a object_messages_bn_gfx.o
 .ARM.attributes
                0x000004de       0x1a pause_bn_gfx.o
 .ARM.attributes
                0x000004f8       0x1a small_font_bn_gfx.o
 .ARM.attributes
                0x00000512       0x1a stage_1_animals_bn_gfx.o
 .ARM.attributes
                0x0000052c       0x1a stage_1_bn_gfx.o
 .ARM.attributes
                0x00000546       0x1a stage_1_characters_1_bn_gfx.o
 .ARM.attributes
                0x00000560       0x1a stage_1_characters_1_team_bn_gfx.o
 .ARM.attributes
                0x0000057a       0x1a stage_1_characters_2_bn_gfx.o
 .ARM.attributes
                0x00000594       0x1a stage_1_intro_alt_bn_gfx.o
 .ARM.attributes
                0x000005ae       0x1a stage_1_intro_bn_gfx.o
 .ARM.attributes
                0x000005c8       0x1a stage_1_monsters_1_bn_gfx.o
 .ARM.attributes
                0x000005e2       0x1a stage_1_monsters_2_bn_gfx.o
 .ARM.attributes
                0x000005fc       0x1a stage_2_bn_gfx.o
 .ARM.attributes
                0x00000616       0x1a stage_2_characters_1_bn_gfx.o
 .ARM.attributes
                0x00000630       0x1a stage_2_characters_2_bn_gfx.o
 .ARM.attributes
                0x0000064a       0x1a stage_2_intro_alt_bn_gfx.o
 .ARM.attributes
                0x00000664       0x1a stage_2_intro_bn_gfx.o
 .ARM.attributes
                0x0000067e       0x1a stage_2_monsters_1_bn_gfx.o
 .ARM.attributes
                0x00000698       0x1a stage_2_monsters_2_bn_gfx.o
 .ARM.attributes
                0x000006b2       0x1a stage_2_robot_bn_gfx.o
 .ARM.attributes
                0x000006cc       0x1a stage_3_blonde_bn_gfx.o
 .ARM.attributes
                0x000006e6       0x1a stage_3_bn_gfx.o
 .ARM.attributes
                0x00000700       0x1a stage_3_characters_1_bn_gfx.o
 .ARM.attributes
                0x0000071a       0x1a stage_3_characters_2_bn_gfx.o
 .ARM.attributes
                0x00000734       0x1a stage_3_dragon_man_bn_gfx.o
 .ARM.attributes
                0x0000074e       0x1a stage_3_intro_alt_bn_gfx.o
 .ARM.attributes
                0x00000768       0x1a stage_3_intro_bn_gfx.o
 .ARM.attributes
                0x00000782       0x1a stage_3_monsters_1_bn_gfx.o
 .ARM.attributes
                0x0000079c       0x1a stage_3_monsters_2_bn_gfx.o
 .ARM.attributes
                0x000007b6       0x1a stage_4_bn_gfx.o
 .ARM.attributes
                0x000007d0       0x1a stage_4_brain_bn_gfx.o
 .ARM.attributes
                0x000007ea       0x1a stage_4_enemies_1_bn_gfx.o
 .ARM.attributes
                0x00000804       0x1a stage_4_enemies_2_bn_gfx.o
 .ARM.attributes
                0x0000081e       0x1a stage_4_enemies_3_1_bn_gfx.o
 .ARM.attributes
                0x00000838       0x1a stage_4_enemies_3_2_bn_gfx.o
 .ARM.attributes
                0x00000852       0x1a stage_4_enemies_4_bn_gfx.o
 .ARM.attributes
                0x0000086c       0x1a stage_4_intro_alt_bn_gfx.o
 .ARM.attributes
                0x00000886       0x1a stage_4_intro_bn_gfx.o
 .ARM.attributes
                0x000008a0       0x1a stage_4_meteors_big_bn_gfx.o
 .ARM.attributes
                0x000008ba       0x1a stage_4_meteors_small_bn_gfx.o
 .ARM.attributes
                0x000008d4       0x1a stage_4_octopus_bn_gfx.o
 .ARM.attributes
                0x000008ee       0x1a stars_bn_gfx.o
 .ARM.attributes
                0x00000908       0x1a tank_base_bn_gfx.o
 .ARM.attributes
                0x00000922       0x1a tank_cannon_bn_gfx.o
 .ARM.attributes
                0x0000093c       0x1a tank_extras_bn_gfx.o
 .ARM.attributes
                0x00000956       0x1a tank_jelly_bn_gfx.o
 .ARM.attributes
                0x00000970       0x1a wizard_aura_bn_gfx.o
 .ARM.attributes
                0x0000098a       0x1a wizard_bn_gfx.o
 .ARM.attributes
                0x000009a4       0x28 /tmp/ccwxil6c.ltrans0.ltrans.o
 .ARM.attributes
                0x000009cc       0x28 /tmp/ccwxil6c.ltrans1.ltrans.o
 .ARM.attributes
                0x000009f4       0x28 /tmp/ccwxil6c.ltrans2.ltrans.o
 .ARM.attributes
                0x00000a1c       0x28 /tmp/ccwxil6c.ltrans3.ltrans.o
 .ARM.attributes
                0x00000a44       0x28 /tmp/ccwxil6c.ltrans4.ltrans.o
 .ARM.attributes
                0x00000a6c       0x28 /tmp/ccwxil6c.ltrans5.ltrans.o
 .ARM.attributes
                0x00000a94       0x28 /tmp/ccwxil6c.ltrans6.ltrans.o
 .ARM.attributes
                0x00000abc       0x28 /tmp/ccwxil6c.ltrans7.ltrans.o
 .ARM.attributes
                0x00000ae4       0x26 bn_sprites_manager.bn_iwram.o
 .ARM.attributes
                0x00000b0a       0x26 bn_hw_common.bn_noflto.o
 .ARM.attributes
                0x00000b30       0x26 bn_hw_game_pak.bn_ewram.o
 .ARM.attributes
                0x00000b56       0x26 bn_hw_gpio.bn_noflto.o
 .ARM.attributes
                0x00000b7c       0x26 bn_hw_palettes.bn_iwram.o
 .ARM.attributes
                0x00000ba2       0x26 bn_hw_sprite_tiles.bn_iwram.o
 .ARM.attributes
                0x00000bc8       0x26 bn_hw_sram.bn_ewram.o
 .ARM.attributes
                0x00000bee       0x26 bn_hw_sram.bn_noflto.o
 .ARM.attributes
                0x00000c14       0x1a bn_hw_bg_blocks.o
 .ARM.attributes
                0x00000c2e       0x1a bn_hw_core.o
 .ARM.attributes
                0x00000c48       0x1a bn_hw_hblank_effects.o
 .ARM.attributes
                0x00000c62       0x1a bn_hw_palettes_asm.o
 .ARM.attributes
                0x00000c7c       0x1a clr_blend_fast.o
 .ARM.attributes
                0x00000c96       0x1a clr_fade_fast.o
 .ARM.attributes
                0x00000cb0       0x1a tonc_bios.o
 .ARM.attributes
                0x00000cca       0x1a tonc_memset.o
 .ARM.attributes
                0x00000ce4       0x1a tonc_nocash.o
 .ARM.attributes
                0x00000cfe       0x1a verdana9.o
 .ARM.attributes
                0x00000d18       0x1a irq_handler.o
 .ARM.attributes
                0x00000d32       0x1a posprintf.o
 .ARM.attributes
                0x00000d4c       0x1a atan2.o
 .ARM.attributes
                0x00000d66       0x1a coroutine_asm.o
 .ARM.attributes
                0x00000d80       0x1a fiq_memcpy.o
 .ARM.attributes
                0x00000d9a       0x1a lmul.o
 .ARM.attributes
                0x00000db4       0x1a memcpy.o
 .ARM.attributes
                0x00000dce       0x1a memmove.o
 .ARM.attributes
                0x00000de8       0x1a memset.o
 .ARM.attributes
                0x00000e02       0x1a rmemcpy.o
 .ARM.attributes
                0x00000e1c       0x1a clz.o
 .ARM.attributes
                0x00000e36       0x1a sdiv32.o
 .ARM.attributes
                0x00000e50       0x1a sqrt32.o
 .ARM.attributes
                0x00000e6a       0x1a udiv32.o
 .ARM.attributes
                0x00000e84       0x1a huffman.o
 .ARM.attributes
                0x00000e9e       0x1a lz77.o
 .ARM.attributes
                0x00000eb8       0x1a running_length.o
 .ARM.attributes
                0x00000ed2       0x1a mm_effect.o
 .ARM.attributes
                0x00000eec       0x1a mm_main.o
 .ARM.attributes
                0x00000f06       0x1a mm_mas_arm.o
 .ARM.attributes
                0x00000f20       0x1a mm_mas.o
 .ARM.attributes
                0x00000f3a       0x1a mm_init_default.o
 .ARM.attributes
                0x00000f54       0x1a mm_main_gba.o
 .ARM.attributes
                0x00000f6e       0x1a mm_mixer_gba.o
 .ARM.attributes
                0x00000f88       0x1c /opt/devkitpro/devkitARM/bin/../lib/gcc/arm-none-eabi/14.2.0/thumb/libgcc.a(_call_via_rX.o)
 .ARM.attributes
                0x00000fa4       0x1c /opt/devkitpro/devkitARM/bin/../lib/gcc/arm-none-eabi/14.2.0/thumb/libgcc.a(_sync_none.o)
 .ARM.attributes
                0x00000fc0       0x2a /opt/devkitpro/devkitARM/bin/../lib/gcc/arm-none-eabi/14.2.0/thumb/crtend.o
 .ARM.attributes
                0x00000fea       0x1c /opt/devkitpro/devkitARM/bin/../lib/gcc/arm-none-eabi/14.2.0/thumb/crtn.o

/DISCARD/
 *(.note.GNU-stack)
LOAD /opt/devkitpro/devkitARM/bin/../lib/gcc/arm-none-eabi/14.2.0/../../../../arm-none-eabi/lib/thumb/gba_crt0.o
LOAD /opt/devkitpro/devkitARM/bin/../lib/gcc/arm-none-eabi/14.2.0/thumb/crti.o
LOAD /opt/devkitpro/devkitARM/bin/../lib/gcc/arm-none-eabi/14.2.0/thumb/crtbegin.o
LOAD _bn_audio_soundbank.bin.o
LOAD big_font_bn_gfx.o
LOAD boss_intro_bn_gfx.o
LOAD brightness_bn_gfx.o
LOAD butano_background_bn_gfx.o
LOAD butano_big_silhouette_bn_gfx.o
LOAD butano_big_sprite_bn_gfx.o
LOAD butano_fire_bn_gfx.o
LOAD butano_flash_palette_bn_gfx.o
LOAD butano_font_bn_gfx.o
LOAD butano_huge_bn_gfx.o
LOAD clouds_bn_gfx.o
LOAD enemy_bullets_bn_gfx.o
LOAD enemy_explosion_bn_gfx.o
LOAD experience_bar_bn_gfx.o
LOAD experience_frame_back_bn_gfx.o
LOAD experience_frame_front_bn_gfx.o
LOAD fighter_font_bn_gfx.o
LOAD flash_palette_bn_gfx.o
LOAD gem_bn_gfx.o
LOAD gigabat_bn_gfx.o
LOAD gigabat_shadow_bn_gfx.o
LOAD hero_body_flying_bn_gfx.o
LOAD hero_body_walking_bn_gfx.o
LOAD hero_bomb_bn_gfx.o
LOAD hero_bomb_icon_bn_gfx.o
LOAD hero_bomb_mini_bn_gfx.o
LOAD hero_bullets_bn_gfx.o
LOAD hero_death_bn_gfx.o
LOAD hero_head_bn_gfx.o
LOAD hero_shield_bn_gfx.o
LOAD hero_weapon_big_2_bn_gfx.o
LOAD hero_weapon_big_3_bn_gfx.o
LOAD hero_weapon_big_4_bn_gfx.o
LOAD hero_weapon_big_5_bn_gfx.o
LOAD hero_weapon_big_6_bn_gfx.o
LOAD hero_weapon_big_7_bn_gfx.o
LOAD hero_weapon_big_8_bn_gfx.o
LOAD hero_weapon_big_9_bn_gfx.o
LOAD hero_weapons_bn_gfx.o
LOAD mini_explosion_2_bn_gfx.o
LOAD mini_explosion_bn_gfx.o
LOAD mountain_clouds_bn_gfx.o
LOAD object_messages_bn_gfx.o
LOAD pause_bn_gfx.o
LOAD small_font_bn_gfx.o
LOAD stage_1_animals_bn_gfx.o
LOAD stage_1_bn_gfx.o
LOAD stage_1_characters_1_bn_gfx.o
LOAD stage_1_characters_1_team_bn_gfx.o
LOAD stage_1_characters_2_bn_gfx.o
LOAD stage_1_intro_alt_bn_gfx.o
LOAD stage_1_intro_bn_gfx.o
LOAD stage_1_monsters_1_bn_gfx.o
LOAD stage_1_monsters_2_bn_gfx.o
LOAD stage_2_bn_gfx.o
LOAD stage_2_characters_1_bn_gfx.o
LOAD stage_2_characters_2_bn_gfx.o
LOAD stage_2_intro_alt_bn_gfx.o
LOAD stage_2_intro_bn_gfx.o
LOAD stage_2_monsters_1_bn_gfx.o
LOAD stage_2_monsters_2_bn_gfx.o
LOAD stage_2_robot_bn_gfx.o
LOAD stage_3_blonde_bn_gfx.o
LOAD stage_3_bn_gfx.o
LOAD stage_3_characters_1_bn_gfx.o
LOAD stage_3_characters_2_bn_gfx.o
LOAD stage_3_dragon_man_bn_gfx.o
LOAD stage_3_intro_alt_bn_gfx.o
LOAD stage_3_intro_bn_gfx.o
LOAD stage_3_monsters_1_bn_gfx.o
LOAD stage_3_monsters_2_bn_gfx.o
LOAD stage_4_bn_gfx.o
LOAD stage_4_brain_bn_gfx.o
LOAD stage_4_enemies_1_bn_gfx.o
LOAD stage_4_enemies_2_bn_gfx.o
LOAD stage_4_enemies_3_1_bn_gfx.o
LOAD stage_4_enemies_3_2_bn_gfx.o
LOAD stage_4_enemies_4_bn_gfx.o
LOAD stage_4_intro_alt_bn_gfx.o
LOAD stage_4_intro_bn_gfx.o
LOAD stage_4_meteors_big_bn_gfx.o
LOAD stage_4_meteors_small_bn_gfx.o
LOAD stage_4_octopus_bn_gfx.o
LOAD stars_bn_gfx.o
LOAD tank_base_bn_gfx.o
LOAD tank_cannon_bn_gfx.o
LOAD tank_extras_bn_gfx.o
LOAD tank_jelly_bn_gfx.o
LOAD wizard_aura_bn_gfx.o
LOAD wizard_bn_gfx.o
LOAD bf_butano_background.o
LOAD /tmp/ccwxil6c.ltrans0.ltrans.o
LOAD /tmp/ccwxil6c.ltrans1.ltrans.o
LOAD /tmp/ccwxil6c.ltrans2.ltrans.o
LOAD /tmp/ccwxil6c.ltrans3.ltrans.o
LOAD /tmp/ccwxil6c.ltrans4.ltrans.o
LOAD /tmp/ccwxil6c.ltrans5.ltrans.o
LOAD /tmp/ccwxil6c.ltrans6.ltrans.o
LOAD /tmp/ccwxil6c.ltrans7.ltrans.o
LOAD /tmp/ccLPsu2k.debug.temp.o
LOAD /tmp/ccTTmALO.debug.temp.o
LOAD /tmp/ccvngEzd.debug.temp.o
LOAD /tmp/ccBkzJWB.debug.temp.o
LOAD /tmp/ccHQF3rE.debug.temp.o
LOAD /tmp/ccyMJ3h4.debug.temp.o
LOAD /tmp/cccUqufy.debug.temp.o
LOAD /tmp/cc1lJVON.debug.temp.o
LOAD /tmp/ccYC9CrR.debug.temp.o
LOAD /tmp/ccMBjpkG.debug.temp.o
LOAD /tmp/ccLkJh5C.debug.temp.o
LOAD /tmp/ccF8matJ.debug.temp.o
LOAD /tmp/ccO6CZeV.debug.temp.o
LOAD /tmp/ccXTAcEU.debug.temp.o
LOAD /tmp/ccU2ROTS.debug.temp.o
LOAD /tmp/ccQv4rf1.debug.temp.o
LOAD /tmp/ccfH9ZNg.debug.temp.o
LOAD /tmp/ccGDx6uD.debug.temp.o
LOAD /tmp/ccYD3xfL.debug.temp.o
LOAD /tmp/cccFcHe5.debug.temp.o
LOAD /tmp/ccQhwUhr.debug.temp.o
LOAD /tmp/ccK68Gt6.debug.temp.o
LOAD /tmp/ccloJbzs.debug.temp.o
LOAD /tmp/ccERXZfz.debug.temp.o
LOAD /tmp/ccnOOVEH.debug.temp.o
LOAD /tmp/cckyefmF.debug.temp.o
LOAD /tmp/ccTLAWHB.debug.temp.o
LOAD /tmp/cckt39HZ.debug.temp.o
LOAD /tmp/ccOyttn4.debug.temp.o
LOAD /tmp/ccgtCrrI.debug.temp.o
LOAD /tmp/ccevTyAA.debug.temp.o
LOAD /tmp/ccoin7qt.debug.temp.o
LOAD /tmp/cckmxhZr.debug.temp.o
LOAD /tmp/cc2tkC9W.debug.temp.o
LOAD /tmp/cc60W0eU.debug.temp.o
LOAD /tmp/ccinOPal.debug.temp.o
LOAD /tmp/ccu9D4Lb.debug.temp.o
LOAD /tmp/ccmZBs9D.debug.temp.o
LOAD /tmp/ccvAOpIO.debug.temp.o
LOAD /tmp/cchIVJxn.debug.temp.o
LOAD /tmp/cccUuQN0.debug.temp.o
LOAD /tmp/ccvm6OfV.debug.temp.o
LOAD /tmp/ccjblKH8.debug.temp.o
LOAD /tmp/ccbgPEmv.debug.temp.o
LOAD /tmp/ccGN3ESM.debug.temp.o
LOAD /tmp/ccpX1Wye.debug.temp.o
LOAD /tmp/ccBnpy0h.debug.temp.o
LOAD /tmp/ccoe9SU4.debug.temp.o
LOAD /tmp/ccb23JOW.debug.temp.o
LOAD /tmp/ccGSFO42.debug.temp.o
LOAD /tmp/ccSA0n3K.debug.temp.o
LOAD /tmp/ccui8Fjt.debug.temp.o
LOAD /tmp/ccUrz3T5.debug.temp.o
LOAD /tmp/ccfPzlbe.debug.temp.o
LOAD /tmp/ccqtjwdM.debug.temp.o
LOAD /tmp/cc2DUoRl.debug.temp.o
LOAD /tmp/ccqyI1Ps.debug.temp.o
LOAD /tmp/cciVk3IR.debug.temp.o
LOAD /tmp/ccR8vJRs.debug.temp.o
LOAD /tmp/cc9HdzfJ.debug.temp.o
LOAD /tmp/ccNgaVBb.debug.temp.o
LOAD /tmp/ccmAJapq.debug.temp.o
LOAD /tmp/ccbVQ3pJ.debug.temp.o
LOAD /tmp/ccbU9q6N.debug.temp.o
LOAD /tmp/ccOr1ybF.debug.temp.o
LOAD /tmp/cctmeOAo.debug.temp.o
LOAD /tmp/ccSAht3d.debug.temp.o
LOAD /tmp/ccD0OlBL.debug.temp.o
LOAD /tmp/cc3qvCC8.debug.temp.o
LOAD /tmp/ccx1qe0A.debug.temp.o
LOAD /tmp/ccIHAlEK.debug.temp.o
LOAD /tmp/ccnNxNX9.debug.temp.o
LOAD /tmp/ccjoDyMR.debug.temp.o
LOAD /tmp/ccncYbAT.debug.temp.o
LOAD /tmp/cc9rEgyB.debug.temp.o
LOAD /tmp/ccxiT1mD.debug.temp.o
LOAD /tmp/ccSADDCX.debug.temp.o
LOAD /tmp/ccliXPZf.debug.temp.o
LOAD /tmp/cc6C3MIm.debug.temp.o
LOAD /tmp/ccVcSD9B.debug.temp.o
LOAD /tmp/ccv9YwIu.debug.temp.o
LOAD /tmp/ccRFkR96.debug.temp.o
LOAD /tmp/ccZRc4OD.debug.temp.o
LOAD /tmp/ccGmbwXd.debug.temp.o
LOAD /tmp/ccjhzTnl.debug.temp.o
LOAD bf_circle_generator.o
LOAD bf_credits.o
LOAD bf_ending.o
LOAD bf_game_background.o
LOAD bf_game_boss.o
LOAD bf_game_boss_intro.o
LOAD bf_game_butano_boss.o
LOAD bf_game.o
LOAD bf_game_enemies.o
LOAD bf_game_enemies_grid.o
LOAD bf_game_enemy_bullets.o
LOAD bf_game_enemy.o
LOAD bf_game_explosion.o
LOAD bf_game_gem.o
LOAD bf_game_gigabat_boss.o
LOAD bf_game_hero_bomb.o
LOAD bf_game_hero_bullet_level.o
LOAD bf_game_hero_bullets.o
LOAD bf_game_hero.o
LOAD bf_game_intro.o
LOAD bf_game_object.o
LOAD bf_game_object_message.o
LOAD bf_game_objects.o
LOAD bf_game_pause.o
LOAD bf_game_scoreboard.o
LOAD bf_game_stage_1.o
LOAD bf_game_stage_2.o
LOAD bf_game_stage_3.o
LOAD bf_game_stage_4.o
LOAD bf_game_tank_boss.o
LOAD bf_game_wizard_boss.o
LOAD bf_how_to_play.o
LOAD bf_intro.o
LOAD bf_keypad_shortcuts.o
LOAD bf_stats.o
LOAD bf_status.o
LOAD bf_title.o
LOAD main.o
LOAD bn_affine_bg_animate_actions.o
LOAD bn_audio_manager.o
LOAD bn_best_fit_allocator.o
LOAD bn_bg_blocks_manager.o
LOAD bn_bgs_manager.o
LOAD bn_cameras_manager.o
LOAD bn_core.o
LOAD bn_display_manager.o
LOAD bn_gpio_manager.o
LOAD bn_hblank_effects_manager.o
LOAD bn_hdma_manager.o
LOAD bn_keypad_manager.o
LOAD bn_link_manager.o
LOAD bn_memory_manager.o
LOAD bn_palettes_manager.o
LOAD bn_profiler.o
LOAD bn_regular_bg_animate_actions.o
LOAD bn_sprite_affine_mats_manager.o
LOAD bn_sprite_animate_actions.o
LOAD bn_sprites_manager.bn_iwram.o
LOAD bn_sprites_manager.o
LOAD bn_sprite_text_generator.o
LOAD bn_sprite_tiles_manager.o
LOAD bn_sstream.o
LOAD bn_translation_unit.o
LOAD bn_hw_audio.o
LOAD bn_hw_common.bn_noflto.o
LOAD bn_hw_cstdlib.o
LOAD bn_hw_cstring.o
LOAD bn_hw_game_pak.bn_ewram.o
LOAD bn_hw_gpio.bn_noflto.o
LOAD bn_hw_link.o
LOAD bn_hw_memory.o
LOAD bn_hw_palettes.bn_iwram.o
LOAD bn_hw_palettes.o
LOAD bn_hw_show.o
LOAD bn_hw_sprite_tiles.bn_iwram.o
LOAD bn_hw_sram.bn_ewram.o
LOAD bn_hw_sram.bn_noflto.o
LOAD bn_hw_system_font.o
LOAD bn_hw_text.o
LOAD vgm.o
LOAD tonc_color.o
LOAD tonc_sbmp16.o
LOAD tonc_schr4c.o
LOAD tonc_schr4r.o
LOAD tonc_surface.o
LOAD bmp16_drawg_b1cs.o
LOAD tte_init_bmp.o
LOAD tte_main.o
LOAD interrupts_gba.o
LOAD coroutine.o
LOAD rtc.o
LOAD gbt_player.o
LOAD bn_hw_bg_blocks.o
LOAD bn_hw_core.o
LOAD bn_hw_hblank_effects.o
LOAD bn_hw_palettes_asm.o
LOAD clr_blend_fast.o
LOAD clr_fade_fast.o
LOAD tonc_bios.o
LOAD tonc_memset.o
LOAD tonc_nocash.o
LOAD verdana9.o
LOAD irq_handler.o
LOAD posprintf.o
LOAD atan2.o
LOAD coroutine_asm.o
LOAD fiq_memcpy.o
LOAD lmul.o
LOAD memcpy.o
LOAD memmove.o
LOAD memset.o
LOAD rmemcpy.o
LOAD clz.o
LOAD sdiv32.o
LOAD sqrt32.o
LOAD udiv32.o
LOAD huffman.o
LOAD lz77.o
LOAD running_length.o
LOAD mm_effect.o
LOAD mm_main.o
LOAD mm_mas_arm.o
LOAD mm_mas.o
LOAD mm_init_default.o
LOAD mm_main_gba.o
LOAD mm_mixer_gba.o
LOAD /opt/devkitpro/devkitARM/bin/../lib/gcc/arm-none-eabi/14.2.0/thumb/libgcc.a
LOAD /opt/devkitpro/devkitARM/bin/../lib/gcc/arm-none-eabi/14.2.0/../../../../arm-none-eabi/lib/thumb/libstdc++.a
LOAD /opt/devkitpro/devkitARM/bin/../lib/gcc/arm-none-eabi/14.2.0/thumb/crtend.o
LOAD /opt/devkitpro/devkitARM/bin/../lib/gcc/arm-none-eabi/14.2.0/thumb/crtn.o
OUTPUT(/home/sm9276/Documents/BrickHack11/Brickhack11idea/games/butano-fighter/butano-fighter.elf elf32-littlearm)
LOAD linker stubs

.debug_ranges   0x00000000    0x4b2a8
 .debug_ranges  0x00000000     0xba98 /tmp/ccwxil6c.ltrans0.ltrans.o
 .debug_ranges  0x0000ba98     0x7f48 /tmp/ccwxil6c.ltrans1.ltrans.o
 .debug_ranges  0x000139e0     0x9430 /tmp/ccwxil6c.ltrans2.ltrans.o
 .debug_ranges  0x0001ce10     0x73c0 /tmp/ccwxil6c.ltrans3.ltrans.o
 .debug_ranges  0x000241d0     0xad50 /tmp/ccwxil6c.ltrans4.ltrans.o
 .debug_ranges  0x0002ef20     0xa0b0 /tmp/ccwxil6c.ltrans5.ltrans.o
 .debug_ranges  0x00038fd0     0x4fd8 /tmp/ccwxil6c.ltrans6.ltrans.o
 .debug_ranges  0x0003dfa8     0xc908 /tmp/ccwxil6c.ltrans7.ltrans.o
 .debug_ranges  0x0004a8b0      0x490 bn_sprites_manager.bn_iwram.o
 .debug_ranges  0x0004ad40       0x98 bn_hw_common.bn_noflto.o
 .debug_ranges  0x0004add8       0x48 bn_hw_game_pak.bn_ewram.o
 .debug_ranges  0x0004ae20       0x10 bn_hw_gpio.bn_noflto.o
 .debug_ranges  0x0004ae30      0x148 bn_hw_palettes.bn_iwram.o
 .debug_ranges  0x0004af78       0xa0 bn_hw_sprite_tiles.bn_iwram.o
 .debug_ranges  0x0004b018       0x10 bn_hw_sram.bn_noflto.o
 .debug_ranges  0x0004b028      0x128 tonc_bios.o
 .debug_ranges  0x0004b150       0x20 tonc_memset.o
 .debug_ranges  0x0004b170       0x30 lmul.o
 .debug_ranges  0x0004b1a0       0x28 memcpy.o
 .debug_ranges  0x0004b1c8       0x30 memmove.o
 .debug_ranges  0x0004b1f8       0x30 memset.o
 .debug_ranges  0x0004b228       0x20 rmemcpy.o
 .debug_ranges  0x0004b248       0x20 mm_mas.o
 .debug_ranges  0x0004b268       0x20 mm_main_gba.o
 .debug_ranges  0x0004b288       0x20 mm_mixer_gba.o
