Archive member included to satisfy reference by file (symbol)

/opt/devkitpro/devkitARM/bin/../lib/gcc/arm-none-eabi/14.2.0/thumb/libgcc.a(_call_via_rX.o)
                              mm_main_gba.o (_call_via_r1)
/opt/devkitpro/devkitARM/bin/../lib/gcc/arm-none-eabi/14.2.0/thumb/libgcc.a(_aeabi_ldivmod.o)
                              bn_hw_text.o (__aeabi_ldivmod)
/opt/devkitpro/devkitARM/bin/../lib/gcc/arm-none-eabi/14.2.0/thumb/libgcc.a(_aeabi_uldivmod.o)
                              bn_hw_text.o (__aeabi_uldivmod)
/opt/devkitpro/devkitARM/bin/../lib/gcc/arm-none-eabi/14.2.0/thumb/libgcc.a(_sync_none.o)
                              (__sync_synchronize_none)
/opt/devkitpro/devkitARM/bin/../lib/gcc/arm-none-eabi/14.2.0/thumb/libgcc.a(_udivmoddi4.o)
                              /opt/devkitpro/devkitARM/bin/../lib/gcc/arm-none-eabi/14.2.0/thumb/libgcc.a(_aeabi_ldivmod.o) (__udivmoddi4)

Discarded input sections

 .text          0x00000000        0x0 /opt/devkitpro/devkitARM/bin/../lib/gcc/arm-none-eabi/14.2.0/../../../../arm-none-eabi/lib/thumb/gba_crt0.o
 .data          0x00000000        0x0 /opt/devkitpro/devkitARM/bin/../lib/gcc/arm-none-eabi/14.2.0/../../../../arm-none-eabi/lib/thumb/gba_crt0.o
 .bss           0x00000000        0x0 /opt/devkitpro/devkitARM/bin/../lib/gcc/arm-none-eabi/14.2.0/../../../../arm-none-eabi/lib/thumb/gba_crt0.o
 .text          0x00000000        0x0 /opt/devkitpro/devkitARM/bin/../lib/gcc/arm-none-eabi/14.2.0/thumb/crti.o
 .data          0x00000000        0x0 /opt/devkitpro/devkitARM/bin/../lib/gcc/arm-none-eabi/14.2.0/thumb/crti.o
 .bss           0x00000000        0x0 /opt/devkitpro/devkitARM/bin/../lib/gcc/arm-none-eabi/14.2.0/thumb/crti.o
 .text          0x00000000        0x0 /opt/devkitpro/devkitARM/bin/../lib/gcc/arm-none-eabi/14.2.0/thumb/crtbegin.o
 .data          0x00000000        0x0 /opt/devkitpro/devkitARM/bin/../lib/gcc/arm-none-eabi/14.2.0/thumb/crtbegin.o
 .bss           0x00000000        0x0 /opt/devkitpro/devkitARM/bin/../lib/gcc/arm-none-eabi/14.2.0/thumb/crtbegin.o
 .rodata.all_implied_fbits
                0x00000000       0x24 /opt/devkitpro/devkitARM/bin/../lib/gcc/arm-none-eabi/14.2.0/thumb/crtbegin.o
 .text          0x00000000        0x0 _bn_audio_soundbank.bin.o
 .data          0x00000000        0x0 _bn_audio_soundbank.bin.o
 .bss           0x00000000        0x0 _bn_audio_soundbank.bin.o
 .text          0x00000000        0x0 blue_bg_bn_gfx.o
 .data          0x00000000        0x0 blue_bg_bn_gfx.o
 .bss           0x00000000        0x0 blue_bg_bn_gfx.o
 .text          0x00000000        0x0 blue_sprite_bn_gfx.o
 .data          0x00000000        0x0 blue_sprite_bn_gfx.o
 .bss           0x00000000        0x0 blue_sprite_bn_gfx.o
 .text          0x00000000        0x0 caveman_bn_gfx.o
 .data          0x00000000        0x0 caveman_bn_gfx.o
 .bss           0x00000000        0x0 caveman_bn_gfx.o
 .text          0x00000000        0x0 green_bg_bn_gfx.o
 .data          0x00000000        0x0 green_bg_bn_gfx.o
 .bss           0x00000000        0x0 green_bg_bn_gfx.o
 .text          0x00000000        0x0 green_sprite_bn_gfx.o
 .data          0x00000000        0x0 green_sprite_bn_gfx.o
 .bss           0x00000000        0x0 green_sprite_bn_gfx.o
 .text          0x00000000        0x0 ninja_bn_gfx.o
 .data          0x00000000        0x0 ninja_bn_gfx.o
 .bss           0x00000000        0x0 ninja_bn_gfx.o
 .text          0x00000000        0x0 red_bg_bn_gfx.o
 .data          0x00000000        0x0 red_bg_bn_gfx.o
 .bss           0x00000000        0x0 red_bg_bn_gfx.o
 .text          0x00000000        0x0 red_sprite_bn_gfx.o
 .data          0x00000000        0x0 red_sprite_bn_gfx.o
 .bss           0x00000000        0x0 red_sprite_bn_gfx.o
 .text          0x00000000        0x0 yellow_bg_bn_gfx.o
 .data          0x00000000        0x0 yellow_bg_bn_gfx.o
 .bss           0x00000000        0x0 yellow_bg_bn_gfx.o
 .text          0x00000000        0x0 yellow_sprite_bn_gfx.o
 .data          0x00000000        0x0 yellow_sprite_bn_gfx.o
 .bss           0x00000000        0x0 yellow_sprite_bn_gfx.o
 .text          0x00000000        0x0 common_fixed_8x16_font_bn_gfx.o
 .data          0x00000000        0x0 common_fixed_8x16_font_bn_gfx.o
 .bss           0x00000000        0x0 common_fixed_8x16_font_bn_gfx.o
 .rodata        0x00000000     0x1ba0 common_fixed_8x16_font_bn_gfx.o
 .text          0x00000000        0x0 common_fixed_8x8_font_bn_gfx.o
 .data          0x00000000        0x0 common_fixed_8x8_font_bn_gfx.o
 .bss           0x00000000        0x0 common_fixed_8x8_font_bn_gfx.o
 .rodata        0x00000000      0xde0 common_fixed_8x8_font_bn_gfx.o
 .text          0x00000000        0x0 common_variable_16x16_font_bn_gfx.o
 .data          0x00000000        0x0 common_variable_16x16_font_bn_gfx.o
 .bss           0x00000000        0x0 common_variable_16x16_font_bn_gfx.o
 .rodata        0x00000000     0x3720 common_variable_16x16_font_bn_gfx.o
 .text          0x00000000        0x0 common_variable_8x16_font_bn_gfx.o
 .data          0x00000000        0x0 common_variable_8x16_font_bn_gfx.o
 .bss           0x00000000        0x0 common_variable_8x16_font_bn_gfx.o
 .text          0x00000000        0x0 common_variable_8x8_font_bn_gfx.o
 .data          0x00000000        0x0 common_variable_8x8_font_bn_gfx.o
 .bss           0x00000000        0x0 common_variable_8x8_font_bn_gfx.o
 .rodata        0x00000000      0xde0 common_variable_8x8_font_bn_gfx.o
 .group         0x00000000        0xc main.o
 .group         0x00000000        0xc main.o
 .group         0x00000000        0xc main.o
 .group         0x00000000        0xc main.o
 .group         0x00000000        0xc main.o
 .group         0x00000000        0xc main.o
 .group         0x00000000        0xc main.o
 .group         0x00000000        0xc main.o
 .group         0x00000000        0xc main.o
 .group         0x00000000        0xc main.o
 .group         0x00000000        0xc main.o
 .group         0x00000000        0xc main.o
 .group         0x00000000        0xc main.o
 .group         0x00000000        0xc main.o
 .text          0x00000000        0x0 main.o
 .data          0x00000000        0x0 main.o
 .bss           0x00000000        0x0 main.o
 .group         0x00000000        0xc common_info.o
 .text          0x00000000        0x0 common_info.o
 .data          0x00000000        0x0 common_info.o
 .bss           0x00000000        0x0 common_info.o
 .text._ZN6common4info15set_show_alwaysEb
                0x00000000       0x28 common_info.o
 .rodata._ZN6common4infoC2ERKN2bn4spanIKNS1_11string_viewEEERNS1_21sprite_text_generatorE.str1.4
                0x00000000        0x1 common_info.o
 .text._ZN6common4infoC2ERKN2bn4spanIKNS1_11string_viewEEERNS1_21sprite_text_generatorE
                0x00000000       0x24 common_info.o
 .group         0x00000000        0xc common_stats.o
 .group         0x00000000        0xc common_stats.o
 .text          0x00000000        0x0 common_stats.o
 .data          0x00000000        0x0 common_stats.o
 .bss           0x00000000        0x0 common_stats.o
 .text._ZN3_bn6assert9show_argsIA15_ciEEvPKcS4_S4_iRKT_RKT0_
                0x00000000       0x54 common_stats.o
 .rodata._ZN6common5stats8set_modeENS0_9mode_typeE.str1.4
                0x00000000       0x8f common_stats.o
 .text._ZN6common5stats8set_modeENS0_9mode_typeE
                0x00000000      0x2d4 common_stats.o
 .text._ZN6common5statsC2ERN2bn21sprite_text_generatorE
                0x00000000       0x3c common_stats.o
 .text._ZN2bn13ostringstream6appendILi12EEEvNS_7fixed_tIXT_EEE
                0x00000000       0xa0 common_stats.o
 .rodata._ZN6common5stats6updateEv.str1.4
                0x00000000        0xa common_stats.o
 .text._ZN6common5stats6updateEv
                0x00000000      0x194 common_stats.o
 .debug_info    0x00000000     0xe3a6 common_stats.o
 .debug_abbrev  0x00000000      0xe49 common_stats.o
 .debug_loc     0x00000000     0x1635 common_stats.o
 .debug_aranges
                0x00000000       0x40 common_stats.o
 .debug_ranges  0x00000000      0x608 common_stats.o
 .debug_line    0x00000000     0x15e0 common_stats.o
 .debug_str     0x00000000     0xd170 common_stats.o
 .comment       0x00000000       0x24 common_stats.o
 .debug_frame   0x00000000       0xc4 common_stats.o
 .group         0x00000000        0xc bn_affine_bg_animate_actions.o
 .group         0x00000000        0xc bn_affine_bg_animate_actions.o
 .group         0x00000000        0xc bn_affine_bg_animate_actions.o
 .group         0x00000000        0xc bn_affine_bg_animate_actions.o
 .group         0x00000000        0xc bn_affine_bg_animate_actions.o
 .group         0x00000000        0xc bn_affine_bg_animate_actions.o
 .group         0x00000000        0xc bn_affine_bg_animate_actions.o
 .group         0x00000000        0xc bn_affine_bg_animate_actions.o
 .group         0x00000000        0xc bn_affine_bg_animate_actions.o
 .text          0x00000000        0x0 bn_affine_bg_animate_actions.o
 .data          0x00000000        0x0 bn_affine_bg_animate_actions.o
 .bss           0x00000000        0x0 bn_affine_bg_animate_actions.o
 .text._ZN2bn25iaffine_bg_animate_action9_set_refsERNS_13affine_bg_ptrERNS_18affine_bg_map_itemERNS_7ivectorItEE
                0x00000000        0x4 bn_affine_bg_animate_actions.o
 .text._ZN2bn25iaffine_bg_animate_action7_assignERKS0_
                0x00000000       0x10 bn_affine_bg_animate_actions.o
 .text._ZN2bn32iaffine_bg_cached_animate_action9_set_refsERNS_13affine_bg_ptrERNS_7ivectorINS_17affine_bg_map_ptrEEE
                0x00000000        0x4 bn_affine_bg_animate_actions.o
 .text._ZN2bn32iaffine_bg_cached_animate_action7_assignERKS0_
                0x00000000       0x10 bn_affine_bg_animate_actions.o
 .text._ZN3_bn6assert9show_argsIA15_cEEvPKcS4_S4_iRKT_
                0x00000000       0x48 bn_affine_bg_animate_actions.o
 .rodata._ZN2bn25iaffine_bg_animate_action6updateEv.str1.4
                0x00000000       0x90 bn_affine_bg_animate_actions.o
 .text._ZN2bn25iaffine_bg_animate_action6updateEv
                0x00000000       0xb8 bn_affine_bg_animate_actions.o
 .text._ZN2bn32iaffine_bg_cached_animate_action6updateEv
                0x00000000       0xa4 bn_affine_bg_animate_actions.o
 .rodata._ZN2bn25iaffine_bg_animate_action16set_wait_updatesEi.str1.4
                0x00000000       0x98 bn_affine_bg_animate_actions.o
 .text._ZN2bn25iaffine_bg_animate_action16set_wait_updatesEi
                0x00000000       0x68 bn_affine_bg_animate_actions.o
 .text._ZN2bn32iaffine_bg_cached_animate_action16set_wait_updatesEi
                0x00000000       0x68 bn_affine_bg_animate_actions.o
 .rodata._ZN2bn25iaffine_bg_animate_action19_assign_map_indexesERKNS_4spanIKtEE.str1.4
                0x00000000       0x9f bn_affine_bg_animate_actions.o
 .text._ZN2bn25iaffine_bg_animate_action19_assign_map_indexesERKNS_4spanIKtEE
                0x00000000       0x84 bn_affine_bg_animate_actions.o
 .text._ZN3_bn6assert9show_argsIJA28_ciA4_ciEEEvPKcS5_S5_iDpRKT_
                0x00000000       0x58 bn_affine_bg_animate_actions.o
 .rodata._ZN2bn32iaffine_bg_cached_animate_action19_assign_map_indexesERKNS_18affine_bg_map_itemERKNS_4spanIKtEE.str1.4
                0x00000000       0x46 bn_affine_bg_animate_actions.o
 .text._ZN2bn32iaffine_bg_cached_animate_action19_assign_map_indexesERKNS_18affine_bg_map_itemERKNS_4spanIKtEE
                0x00000000      0x104 bn_affine_bg_animate_actions.o
 .text._ZN3_bn6assert9show_argsIJA21_ciA4_ciEEEvPKcS5_S5_iDpRKT_
                0x00000000       0x58 bn_affine_bg_animate_actions.o
 .rodata._ZN2bn32iaffine_bg_cached_animate_action12_assign_mapsENS_4spanINS_17affine_bg_map_ptrEEE.str1.4
                0x00000000       0x5d bn_affine_bg_animate_actions.o
 .text._ZN2bn32iaffine_bg_cached_animate_action12_assign_mapsENS_4spanINS_17affine_bg_map_ptrEEE
                0x00000000       0x9c bn_affine_bg_animate_actions.o
 .rodata._ZN2bn32iaffine_bg_cached_animate_actionaSERKS0_.str1.4
                0x00000000       0x77 bn_affine_bg_animate_actions.o
 .text._ZN2bn32iaffine_bg_cached_animate_actionaSERKS0_
                0x00000000       0xfc bn_affine_bg_animate_actions.o
 .text._ZN2bn32iaffine_bg_cached_animate_actionaSEOS0_
                0x00000000      0x118 bn_affine_bg_animate_actions.o
 .rodata._ZN2bn25iaffine_bg_animate_actionaSEOS0_.str1.4
                0x00000000       0x4f bn_affine_bg_animate_actions.o
 .text._ZN2bn25iaffine_bg_animate_actionaSEOS0_
                0x00000000       0xcc bn_affine_bg_animate_actions.o
 .text._ZN2bn32iaffine_bg_cached_animate_action12_assign_mapsERKNS_7ivectorINS_17affine_bg_map_ptrEEE
                0x00000000       0x8c bn_affine_bg_animate_actions.o
 .text._ZN2bn32iaffine_bg_cached_animate_action12_assign_mapsEONS_7ivectorINS_17affine_bg_map_ptrEEE
                0x00000000       0xa0 bn_affine_bg_animate_actions.o
 .text._ZN2bn25iaffine_bg_animate_action19_assign_map_indexesERKNS_7ivectorItEE
                0x00000000       0x60 bn_affine_bg_animate_actions.o
 .text._ZN2bn25iaffine_bg_animate_actionaSERKS0_
                0x00000000       0xcc bn_affine_bg_animate_actions.o
 .group         0x00000000        0xc bn_audio_manager.o
 .group         0x00000000        0xc bn_audio_manager.o
 .group         0x00000000        0xc bn_audio_manager.o
 .group         0x00000000        0xc bn_audio_manager.o
 .group         0x00000000        0xc bn_audio_manager.o
 .group         0x00000000        0xc bn_audio_manager.o
 .group         0x00000000        0xc bn_audio_manager.o
 .group         0x00000000        0xc bn_audio_manager.o
 .group         0x00000000        0xc bn_audio_manager.o
 .group         0x00000000        0xc bn_audio_manager.o
 .group         0x00000000        0xc bn_audio_manager.o
 .group         0x00000000        0xc bn_audio_manager.o
 .group         0x00000000        0xc bn_audio_manager.o
 .group         0x00000000        0xc bn_audio_manager.o
 .group         0x00000000        0xc bn_audio_manager.o
 .group         0x00000000        0xc bn_audio_manager.o
 .group         0x00000000        0xc bn_audio_manager.o
 .group         0x00000000        0xc bn_audio_manager.o
 .group         0x00000000        0xc bn_audio_manager.o
 .group         0x00000000        0xc bn_audio_manager.o
 .group         0x00000000        0xc bn_audio_manager.o
 .group         0x00000000        0xc bn_audio_manager.o
 .group         0x00000000        0xc bn_audio_manager.o
 .group         0x00000000        0xc bn_audio_manager.o
 .text          0x00000000        0x0 bn_audio_manager.o
 .data          0x00000000        0x0 bn_audio_manager.o
 .bss           0x00000000        0x0 bn_audio_manager.o
 .text._ZN2bn5audio16update_on_vblankEv
                0x00000000        0xc bn_audio_manager.o
 .text._ZN2bn5audio20set_update_on_vblankEb
                0x00000000        0xc bn_audio_manager.o
 .text._ZN2bn5music7playingEv
                0x00000000       0x10 bn_audio_manager.o
 .text._ZN2bn5music12playing_itemEv
                0x00000000       0x30 bn_audio_manager.o
 .text._ZN2bn5music6pausedEv
                0x00000000       0x10 bn_audio_manager.o
 .text._ZN2bn5sound13master_volumeEv
                0x00000000       0x10 bn_audio_manager.o
 .text._ZN2bn6jingle7playingEv
                0x00000000       0x10 bn_audio_manager.o
 .text._ZN2bn6jingle12playing_itemEv
                0x00000000       0x30 bn_audio_manager.o
 .text._ZN2bn9dmg_music7playingEv
                0x00000000       0x14 bn_audio_manager.o
 .text._ZN2bn9dmg_music12playing_itemEv
                0x00000000       0x34 bn_audio_manager.o
 .text._ZN2bn9dmg_music6pausedEv
                0x00000000       0x10 bn_audio_manager.o
 .text._ZN2bn9dmg_music13master_volumeEv
                0x00000000       0x10 bn_audio_manager.o
 .text._ZN2bn13audio_manager6enableEv
                0x00000000        0xc bn_audio_manager.o
 .text._ZN2bn13audio_manager13music_playingEv
                0x00000000       0x10 bn_audio_manager.o
 .text._ZN2bn13audio_manager18playing_music_itemEv
                0x00000000       0x30 bn_audio_manager.o
 .text._ZN2bn13audio_manager12music_pausedEv
                0x00000000       0x10 bn_audio_manager.o
 .text._ZN2bn13audio_manager14jingle_playingEv
                0x00000000       0x10 bn_audio_manager.o
 .text._ZN2bn13audio_manager19playing_jingle_itemEv
                0x00000000       0x30 bn_audio_manager.o
 .text._ZN2bn13audio_manager17dmg_music_playingEv
                0x00000000       0x14 bn_audio_manager.o
 .text._ZN2bn13audio_manager22playing_dmg_music_itemEv
                0x00000000       0x34 bn_audio_manager.o
 .text._ZN2bn13audio_manager16dmg_music_pausedEv
                0x00000000       0x10 bn_audio_manager.o
 .text._ZN2bn13audio_manager23dmg_music_master_volumeEv
                0x00000000       0x10 bn_audio_manager.o
 .text._ZNK2bn12sound_handle6activeEv
                0x00000000       0x14 bn_audio_manager.o
 .text._ZN2bn13audio_manager19sound_master_volumeEv
                0x00000000       0x10 bn_audio_manager.o
 .text._ZN2bn13audio_manager16update_on_vblankEv
                0x00000000        0xc bn_audio_manager.o
 .text._ZN2bn13audio_manager20set_update_on_vblankEb
                0x00000000        0xc bn_audio_manager.o
 .text._ZN3_bn6assert9show_argsIA36_ciEEvPKcS4_S4_iRKT_RKT0_
                0x00000000       0x54 bn_audio_manager.o
 .text._ZN2bn13audio_manager10play_musicENS_10music_itemENS_7fixed_tILi12EEEb
                0x00000000       0xa8 bn_audio_manager.o
 .rodata._ZN2bn13audio_manager10stop_musicEv.str1.4
                0x00000000        0xb bn_audio_manager.o
 .text._ZN2bn13audio_manager10stop_musicEv
                0x00000000       0x64 bn_audio_manager.o
 .rodata._ZN2bn13audio_manager11play_jingleENS_10music_itemENS_7fixed_tILi12EEE.str1.4
                0x00000000        0xc bn_audio_manager.o
 .text._ZN2bn13audio_manager11play_jingleENS_10music_itemENS_7fixed_tILi12EEE
                0x00000000       0x74 bn_audio_manager.o
 .rodata._ZN2bn13audio_manager14play_dmg_musicERKNS_14dmg_music_itemEib.str1.4
                0x00000000        0xf bn_audio_manager.o
 .text._ZN2bn13audio_manager14play_dmg_musicERKNS_14dmg_music_itemEib
                0x00000000       0x88 bn_audio_manager.o
 .rodata._ZN2bn13audio_manager14stop_dmg_musicEv.str1.4
                0x00000000        0xf bn_audio_manager.o
 .text._ZN2bn13audio_manager14stop_dmg_musicEv
                0x00000000       0x64 bn_audio_manager.o
 .rodata._ZN2bn13audio_manager27set_dmg_music_master_volumeENS_23dmg_music_master_volumeE.str1.4
                0x00000000       0x1c bn_audio_manager.o
 .text._ZN2bn13audio_manager27set_dmg_music_master_volumeENS_23dmg_music_master_volumeE
                0x00000000       0x64 bn_audio_manager.o
 .rodata._ZN2bn13audio_manager23set_sound_master_volumeENS_7fixed_tILi12EEE.str1.4
                0x00000000       0x18 bn_audio_manager.o
 .text._ZN2bn13audio_manager23set_sound_master_volumeENS_7fixed_tILi12EEE
                0x00000000       0x78 bn_audio_manager.o
 .rodata._ZN2bn13audio_manager15stop_all_soundsEv.str1.4
                0x00000000       0x10 bn_audio_manager.o
 .text._ZN2bn13audio_manager15stop_all_soundsEv
                0x00000000       0x88 bn_audio_manager.o
 .text._ZN2bn5sound8stop_allEv
                0x00000000        0xc bn_audio_manager.o
 .rodata._ZN2bn13audio_manager10stop_soundEt.str1.4
                0x00000000        0xb bn_audio_manager.o
 .text._ZN2bn13audio_manager10stop_soundEt
                0x00000000       0x60 bn_audio_manager.o
 .rodata._ZN2bn13audio_manager13release_soundEt.str1.4
                0x00000000        0xe bn_audio_manager.o
 .text._ZN2bn13audio_manager13release_soundEt
                0x00000000       0x60 bn_audio_manager.o
 .text._ZN2bn5music4stopEv
                0x00000000       0x64 bn_audio_manager.o
 .text._ZN2bn9dmg_music4stopEv
                0x00000000       0x64 bn_audio_manager.o
 .text._ZN2bn9dmg_music17set_master_volumeENS_23dmg_music_master_volumeE
                0x00000000       0x64 bn_audio_manager.o
 .text._ZN2bn12sound_handle4stopEv
                0x00000000       0x64 bn_audio_manager.o
 .text._ZN2bn12sound_handle7releaseEv
                0x00000000       0x64 bn_audio_manager.o
 .text._ZN2bn6jingle4playENS_10music_itemE
                0x00000000       0x74 bn_audio_manager.o
 .text._ZNK2bn10music_item11play_jingleEv
                0x00000000       0x78 bn_audio_manager.o
 .text._ZN2bn5music4playENS_10music_itemE
                0x00000000       0x88 bn_audio_manager.o
 .text._ZNK2bn10music_item4playEv
                0x00000000       0x8c bn_audio_manager.o
 .text._ZN2bn9dmg_music4playERKNS_14dmg_music_itemE
                0x00000000       0x8c bn_audio_manager.o
 .text._ZNK2bn14dmg_music_item4playEv
                0x00000000       0x8c bn_audio_manager.o
 .rodata._ZNK2bn14dmg_music_item4playEib.str1.4
                0x00000000       0x36 bn_audio_manager.o
 .text._ZNK2bn14dmg_music_item4playEib
                0x00000000       0xb0 bn_audio_manager.o
 .text._ZNK2bn14dmg_music_item4playEi
                0x00000000       0xb4 bn_audio_manager.o
 .text._ZN2bn9dmg_music4playERKNS_14dmg_music_itemEi
                0x00000000       0xb4 bn_audio_manager.o
 .text._ZN2bn9dmg_music4playERKNS_14dmg_music_itemEib
                0x00000000       0xbc bn_audio_manager.o
 .rodata._ZN2bn13audio_manager14music_positionEv.str1.4
                0x00000000       0x29 bn_audio_manager.o
 .text._ZN2bn13audio_manager14music_positionEv
                0x00000000       0x44 bn_audio_manager.o
 .rodata._ZN2bn13audio_manager18set_music_positionEi.str1.4
                0x00000000       0x13 bn_audio_manager.o
 .text._ZN2bn13audio_manager18set_music_positionEi
                0x00000000       0x84 bn_audio_manager.o
 .rodata._ZN2bn13audio_manager12music_volumeEv.str1.4
                0x00000000        0xd bn_audio_manager.o
 .text._ZN2bn13audio_manager12music_volumeEv
                0x00000000       0x44 bn_audio_manager.o
 .rodata._ZN2bn13audio_manager16set_music_volumeENS_7fixed_tILi12EEE.str1.4
                0x00000000       0x11 bn_audio_manager.o
 .text._ZN2bn13audio_manager16set_music_volumeENS_7fixed_tILi12EEE
                0x00000000       0x9c bn_audio_manager.o
 .rodata._ZN2bn13audio_manager11music_tempoEv.str1.4
                0x00000000        0xc bn_audio_manager.o
 .text._ZN2bn13audio_manager11music_tempoEv
                0x00000000       0x44 bn_audio_manager.o
 .rodata._ZN2bn13audio_manager15set_music_tempoENS_7fixed_tILi12EEE.str1.4
                0x00000000       0x10 bn_audio_manager.o
 .text._ZN2bn13audio_manager15set_music_tempoENS_7fixed_tILi12EEE
                0x00000000       0x98 bn_audio_manager.o
 .rodata._ZN2bn13audio_manager11music_pitchEv.str1.4
                0x00000000        0xc bn_audio_manager.o
 .text._ZN2bn13audio_manager11music_pitchEv
                0x00000000       0x44 bn_audio_manager.o
 .rodata._ZN2bn13audio_manager15set_music_pitchENS_7fixed_tILi12EEE.str1.4
                0x00000000       0x10 bn_audio_manager.o
 .text._ZN2bn13audio_manager15set_music_pitchENS_7fixed_tILi12EEE
                0x00000000       0x98 bn_audio_manager.o
 .text._ZN2bn5music8positionEv
                0x00000000       0x44 bn_audio_manager.o
 .text._ZN2bn5music6volumeEv
                0x00000000       0x44 bn_audio_manager.o
 .text._ZN2bn5music5tempoEv
                0x00000000       0x44 bn_audio_manager.o
 .text._ZN2bn5music5pitchEv
                0x00000000       0x44 bn_audio_manager.o
 .rodata._ZN2bn5music12set_positionEi.str1.4
                0x00000000       0x43 bn_audio_manager.o
 .text._ZN2bn5music12set_positionEi
                0x00000000       0xb0 bn_audio_manager.o
 .rodata._ZN2bn13audio_manager11pause_musicEv.str1.4
                0x00000000       0x24 bn_audio_manager.o
 .text._ZN2bn13audio_manager11pause_musicEv
                0x00000000       0x94 bn_audio_manager.o
 .text._ZN2bn5music5pauseEv
                0x00000000        0xc bn_audio_manager.o
 .rodata._ZN2bn13audio_manager16resume_dmg_musicEv.str1.4
                0x00000000       0x2c bn_audio_manager.o
 .text._ZN2bn13audio_manager16resume_dmg_musicEv
                0x00000000       0x74 bn_audio_manager.o
 .text._ZN2bn9dmg_music6resumeEv
                0x00000000       0x74 bn_audio_manager.o
 .rodata._ZN2bn13audio_manager12resume_musicEv.str1.4
                0x00000000       0x24 bn_audio_manager.o
 .text._ZN2bn13audio_manager12resume_musicEv
                0x00000000       0x74 bn_audio_manager.o
 .text._ZN2bn5music6resumeEv
                0x00000000       0x74 bn_audio_manager.o
 .rodata._ZN2bn13audio_manager13jingle_volumeEv.str1.4
                0x00000000       0x2a bn_audio_manager.o
 .text._ZN2bn13audio_manager13jingle_volumeEv
                0x00000000       0x44 bn_audio_manager.o
 .rodata._ZN2bn13audio_manager17set_jingle_volumeENS_7fixed_tILi12EEE.str1.4
                0x00000000       0x12 bn_audio_manager.o
 .text._ZN2bn13audio_manager17set_jingle_volumeENS_7fixed_tILi12EEE
                0x00000000       0x98 bn_audio_manager.o
 .text._ZN2bn6jingle6volumeEv
                0x00000000       0x44 bn_audio_manager.o
 .text._ZN3_bn6assert9show_argsIA29_cEEvPKcS4_S4_iRKT_
                0x00000000       0x48 bn_audio_manager.o
 .text._ZN2bn9dmg_music8positionEv
                0x00000000       0x44 bn_audio_manager.o
 .rodata._ZN2bn13audio_manager22set_dmg_music_positionERKNS_18dmg_music_positionE.str1.4
                0x00000000       0x17 bn_audio_manager.o
 .text._ZN2bn13audio_manager22set_dmg_music_positionERKNS_18dmg_music_positionE
                0x00000000       0xa8 bn_audio_manager.o
 .text._ZN2bn9dmg_music12set_positionEii
                0x00000000       0x6c bn_audio_manager.o
 .text._ZN2bn9dmg_music12set_positionERKNS_18dmg_music_positionE
                0x00000000        0xc bn_audio_manager.o
 .rodata._ZN2bn13audio_manager21dmg_music_left_volumeEv.str1.4
                0x00000000       0x16 bn_audio_manager.o
 .text._ZN2bn13audio_manager21dmg_music_left_volumeEv
                0x00000000       0x44 bn_audio_manager.o
 .rodata._ZN2bn13audio_manager22dmg_music_right_volumeEv.str1.4
                0x00000000       0x17 bn_audio_manager.o
 .text._ZN2bn13audio_manager22dmg_music_right_volumeEv
                0x00000000       0x44 bn_audio_manager.o
 .rodata._ZN2bn13audio_manager20set_dmg_music_volumeENS_7fixed_tILi12EEES2_.str1.4
                0x00000000       0x15 bn_audio_manager.o
 .text._ZN2bn13audio_manager20set_dmg_music_volumeENS_7fixed_tILi12EEES2_
                0x00000000       0xd8 bn_audio_manager.o
 .text._ZN2bn13audio_manager25set_dmg_music_left_volumeENS_7fixed_tILi12EEE
                0x00000000       0x18 bn_audio_manager.o
 .text._ZN2bn13audio_manager26set_dmg_music_right_volumeENS_7fixed_tILi12EEE
                0x00000000       0x1c bn_audio_manager.o
 .text._ZN2bn13audio_manager18dmg_music_positionEv
                0x00000000       0x44 bn_audio_manager.o
 .text._ZN2bn9dmg_music11left_volumeEv
                0x00000000       0x44 bn_audio_manager.o
 .text._ZN2bn9dmg_music12right_volumeEv
                0x00000000       0x44 bn_audio_manager.o
 .text._ZN3_bn6assert9show_argsIA28_cEEvPKcS4_S4_iRKT_
                0x00000000       0x48 bn_audio_manager.o
 .rodata._ZN2bn13audio_manager15pause_dmg_musicEv.str1.4
                0x00000000       0x2c bn_audio_manager.o
 .text._ZN2bn13audio_manager15pause_dmg_musicEv
                0x00000000       0x94 bn_audio_manager.o
 .text._ZN2bn9dmg_music5pauseEv
                0x00000000        0xc bn_audio_manager.o
 .text._ZN3_bn6assert9show_argsIA32_cEEvPKcS4_S4_iRKT_
                0x00000000       0x48 bn_audio_manager.o
 .text._ZN3_bn6assert9show_argsIA22_ctEEvPKcS4_S4_iRKT_RKT0_
                0x00000000       0x54 bn_audio_manager.o
 .rodata._ZN2bn13audio_manager10sound_itemEt.str1.4
                0x00000000       0x22 bn_audio_manager.o
 .text._ZN2bn13audio_manager10sound_itemEt
                0x00000000       0x48 bn_audio_manager.o
 .rodata._ZN2bn13audio_manager11sound_speedEt.str1.4
                0x00000000        0xc bn_audio_manager.o
 .text._ZN2bn13audio_manager11sound_speedEt
                0x00000000       0x48 bn_audio_manager.o
 .rodata._ZN2bn13audio_manager13sound_panningEt.str1.4
                0x00000000        0xe bn_audio_manager.o
 .text._ZN2bn13audio_manager13sound_panningEt
                0x00000000       0x48 bn_audio_manager.o
 .rodata._ZN2bn13audio_manager17set_sound_panningEtNS_7fixed_tILi12EEE.str1.4
                0x00000000       0x12 bn_audio_manager.o
 .text._ZN2bn13audio_manager17set_sound_panningEtNS_7fixed_tILi12EEE
                0x00000000       0xe0 bn_audio_manager.o
 .text._ZNK2bn12sound_handle4itemEv
                0x00000000       0x44 bn_audio_manager.o
 .text._ZNK2bn12sound_handle5speedEv
                0x00000000       0x44 bn_audio_manager.o
 .text._ZNK2bn12sound_handle7panningEv
                0x00000000       0x44 bn_audio_manager.o
 .text._ZN2bn13ostringstream6appendILi12EEEvNS_7fixed_tIXT_EEE
                0x00000000       0xa0 bn_audio_manager.o
 .rodata._ZN2bn5music4playENS_10music_itemENS_7fixed_tILi12EEE.str1.4
                0x00000000       0x19 bn_audio_manager.o
 .text._ZN2bn5music4playENS_10music_itemENS_7fixed_tILi12EEE
                0x00000000       0xb8 bn_audio_manager.o
 .text._ZN2bn5music4playENS_10music_itemENS_7fixed_tILi12EEEb
                0x00000000       0xc0 bn_audio_manager.o
 .rodata._ZN2bn5music10set_volumeENS_7fixed_tILi12EEE.str1.4
                0x00000000        0xb bn_audio_manager.o
 .text._ZN2bn5music10set_volumeENS_7fixed_tILi12EEE
                0x00000000       0x3c bn_audio_manager.o
 .rodata._ZN2bn5sound17set_master_volumeENS_7fixed_tILi12EEE.str1.4
                0x00000000       0x23 bn_audio_manager.o
 .text._ZN2bn5sound17set_master_volumeENS_7fixed_tILi12EEE
                0x00000000       0xa0 bn_audio_manager.o
 .rodata._ZN2bn6jingle4playENS_10music_itemENS_7fixed_tILi12EEE.str1.4
                0x00000000       0x10 bn_audio_manager.o
 .text._ZN2bn6jingle4playENS_10music_itemENS_7fixed_tILi12EEE
                0x00000000       0x9c bn_audio_manager.o
 .text._ZN2bn6jingle10set_volumeENS_7fixed_tILi12EEE
                0x00000000       0x3c bn_audio_manager.o
 .text._ZN2bn9dmg_music10set_volumeENS_7fixed_tILi12EEE
                0x00000000       0x40 bn_audio_manager.o
 .text._ZNK2bn10music_item4playENS_7fixed_tILi12EEEb
                0x00000000       0xc4 bn_audio_manager.o
 .text._ZNK2bn10music_item11play_jingleENS_7fixed_tILi12EEE
                0x00000000       0x9c bn_audio_manager.o
 .text._ZNK2bn10music_item4playENS_7fixed_tILi12EEE
                0x00000000       0xb8 bn_audio_manager.o
 .text._ZN3_bn6assert9show_argsIA26_cN2bn7fixed_tILi12EEEEEvPKcS7_S7_iRKT_RKT0_
                0x00000000       0x54 bn_audio_manager.o
 .rodata._ZN2bn5music9set_tempoENS_7fixed_tILi12EEE.str1.4
                0x00000000       0x26 bn_audio_manager.o
 .text._ZN2bn5music9set_tempoENS_7fixed_tILi12EEE
                0x00000000       0x44 bn_audio_manager.o
 .rodata._ZN2bn5music9set_pitchENS_7fixed_tILi12EEE.str1.4
                0x00000000       0x26 bn_audio_manager.o
 .text._ZN2bn5music9set_pitchENS_7fixed_tILi12EEE
                0x00000000       0x44 bn_audio_manager.o
 .rodata._ZN2bn12sound_handle11set_panningENS_7fixed_tILi12EEE.str1.4
                0x00000000       0x3f bn_audio_manager.o
 .text._ZN2bn12sound_handle11set_panningENS_7fixed_tILi12EEE
                0x00000000       0x48 bn_audio_manager.o
 .text._ZN3_bn6assert9show_argsIA30_cN2bn7fixed_tILi12EEEEEvPKcS7_S7_iRKT_RKT0_
                0x00000000       0x54 bn_audio_manager.o
 .rodata._ZN2bn9dmg_music15set_left_volumeENS_7fixed_tILi12EEE.str1.4
                0x00000000       0x2e bn_audio_manager.o
 .text._ZN2bn9dmg_music15set_left_volumeENS_7fixed_tILi12EEE
                0x00000000       0x48 bn_audio_manager.o
 .text._ZN3_bn6assert9show_argsIA31_cN2bn7fixed_tILi12EEEEEvPKcS7_S7_iRKT_RKT0_
                0x00000000       0x54 bn_audio_manager.o
 .rodata._ZN2bn9dmg_music16set_right_volumeENS_7fixed_tILi12EEE.str1.4
                0x00000000       0x33 bn_audio_manager.o
 .text._ZN2bn9dmg_music16set_right_volumeENS_7fixed_tILi12EEE
                0x00000000       0x4c bn_audio_manager.o
 .text._ZN2bn9dmg_music10set_volumeENS_7fixed_tILi12EEES2_
                0x00000000       0x5c bn_audio_manager.o
 .text._ZN3_bn6assert9show_argsIJA27_cN2bn7fixed_tILi12EEEA4_cS5_EEEvPKcS8_S8_iDpRKT_
                0x00000000      0x110 bn_audio_manager.o
 .rodata._ZN2bn13audio_manager15set_sound_speedEtNS_7fixed_tILi12EEE.str1.4
                0x00000000       0x2f bn_audio_manager.o
 .text._ZN2bn13audio_manager15set_sound_speedEtNS_7fixed_tILi12EEE
                0x00000000       0xf0 bn_audio_manager.o
 .rodata._ZN2bn12sound_handle9set_speedENS_7fixed_tILi12EEE.str1.4
                0x00000000       0x25 bn_audio_manager.o
 .text._ZN2bn12sound_handle9set_speedENS_7fixed_tILi12EEE
                0x00000000       0x40 bn_audio_manager.o
 .rodata._ZN2bn14iunordered_mapIjNS_13audio_manager15sound_data_typeENS_15identity_hasherENS_8equal_toIjEEEclEjRKj.str1.4
                0x00000000       0x1d bn_audio_manager.o
 .text._ZN2bn14iunordered_mapIjNS_13audio_manager15sound_data_typeENS_15identity_hasherENS_8equal_toIjEEEclEjRKj
                0x00000000      0x120 bn_audio_manager.o
 .rodata._ZN2bn13audio_manager10play_soundEiNS_10sound_itemE.str1.4
                0x00000000       0x2c bn_audio_manager.o
 .text._ZN2bn13audio_manager10play_soundEiNS_10sound_itemE
                0x00000000       0xc4 bn_audio_manager.o
 .text._ZN2bn5sound4playENS_10sound_itemE
                0x00000000       0x10 bn_audio_manager.o
 .text._ZNK2bn10sound_item4playEv
                0x00000000       0x10 bn_audio_manager.o
 .rodata._ZN2bn5sound18play_with_priorityEiNS_10sound_itemE.str1.4
                0x00000000       0x38 bn_audio_manager.o
 .text._ZN2bn5sound18play_with_priorityEiNS_10sound_itemE
                0x00000000       0x4c bn_audio_manager.o
 .text._ZNK2bn10sound_item18play_with_priorityEi
                0x00000000       0x4c bn_audio_manager.o
 .text._ZN2bn13audio_manager10play_soundEiNS_10sound_itemENS_7fixed_tILi12EEES3_S3_
                0x00000000      0x13c bn_audio_manager.o
 .text._ZN2bn5sound4playENS_10sound_itemENS_7fixed_tILi12EEE
                0x00000000       0x48 bn_audio_manager.o
 .text._ZN2bn5sound4playENS_10sound_itemENS_7fixed_tILi12EEES3_S3_
                0x00000000       0x98 bn_audio_manager.o
 .text._ZNK2bn10sound_item4playENS_7fixed_tILi12EEES2_S2_
                0x00000000       0x10 bn_audio_manager.o
 .text._ZN2bn5sound18play_with_priorityEiNS_10sound_itemENS_7fixed_tILi12EEE
                0x00000000       0x74 bn_audio_manager.o
 .text._ZN2bn5sound18play_with_priorityEiNS_10sound_itemENS_7fixed_tILi12EEES3_S3_
                0x00000000       0xc0 bn_audio_manager.o
 .text._ZNK2bn10sound_item18play_with_priorityEiNS_7fixed_tILi12EEES2_S2_
                0x00000000       0x1c bn_audio_manager.o
 .text._ZNK2bn10sound_item4playENS_7fixed_tILi12EEE
                0x00000000       0x44 bn_audio_manager.o
 .text._ZNK2bn10sound_item18play_with_priorityEiNS_7fixed_tILi12EEE
                0x00000000       0x74 bn_audio_manager.o
 .group         0x00000000        0xc bn_best_fit_allocator.o
 .group         0x00000000        0xc bn_best_fit_allocator.o
 .group         0x00000000        0xc bn_best_fit_allocator.o
 .group         0x00000000        0xc bn_best_fit_allocator.o
 .group         0x00000000        0xc bn_best_fit_allocator.o
 .group         0x00000000        0xc bn_best_fit_allocator.o
 .group         0x00000000        0xc bn_best_fit_allocator.o
 .text          0x00000000        0x0 bn_best_fit_allocator.o
 .data          0x00000000        0x0 bn_best_fit_allocator.o
 .bss           0x00000000        0x0 bn_best_fit_allocator.o
 .text._ZN2bn18best_fit_allocator4freeEPv
                0x00000000      0x110 bn_best_fit_allocator.o
 .rodata._ZNK2bn18best_fit_allocator10log_statusEv.str1.4
                0x00000000       0x54 bn_best_fit_allocator.o
 .text._ZNK2bn18best_fit_allocator10log_statusEv
                0x00000000      0x16c bn_best_fit_allocator.o
 .text._ZN2bn18best_fit_allocator15_best_free_itemEi
                0x00000000       0x48 bn_best_fit_allocator.o
 .text._ZN3_bn6assert9show_argsIA16_ciEEvPKcS4_S4_iRKT_RKT0_
                0x00000000       0x54 bn_best_fit_allocator.o
 .text._ZN2bn18best_fit_allocator5allocEi
                0x00000000      0x15c bn_best_fit_allocator.o
 .text._ZN3_bn6assert9show_argsIA14_ciEEvPKcS4_S4_iRKT_RKT0_
                0x00000000       0x54 bn_best_fit_allocator.o
 .rodata._ZN2bn18best_fit_allocator6callocEii.str1.4
                0x00000000       0x22 bn_best_fit_allocator.o
 .text._ZN2bn18best_fit_allocator6callocEii
                0x00000000       0x80 bn_best_fit_allocator.o
 .text._ZN3_bn6assert9show_argsIA19_ciEEvPKcS4_S4_iRKT_RKT0_
                0x00000000       0x54 bn_best_fit_allocator.o
 .rodata._ZN2bn18best_fit_allocator7reallocEPvi.str1.4
                0x00000000       0x63 bn_best_fit_allocator.o
 .text._ZN2bn18best_fit_allocator7reallocEPvi
                0x00000000       0xc4 bn_best_fit_allocator.o
 .group         0x00000000        0xc bn_bg_blocks_manager.o
 .group         0x00000000        0xc bn_bg_blocks_manager.o
 .group         0x00000000        0xc bn_bg_blocks_manager.o
 .group         0x00000000        0xc bn_bg_blocks_manager.o
 .group         0x00000000        0xc bn_bg_blocks_manager.o
 .group         0x00000000        0xc bn_bg_blocks_manager.o
 .group         0x00000000        0xc bn_bg_blocks_manager.o
 .group         0x00000000        0xc bn_bg_blocks_manager.o
 .group         0x00000000        0xc bn_bg_blocks_manager.o
 .group         0x00000000        0xc bn_bg_blocks_manager.o
 .group         0x00000000        0xc bn_bg_blocks_manager.o
 .group         0x00000000        0xc bn_bg_blocks_manager.o
 .group         0x00000000        0xc bn_bg_blocks_manager.o
 .group         0x00000000        0xc bn_bg_blocks_manager.o
 .group         0x00000000        0xc bn_bg_blocks_manager.o
 .group         0x00000000        0xc bn_bg_blocks_manager.o
 .group         0x00000000        0xc bn_bg_blocks_manager.o
 .group         0x00000000        0xc bn_bg_blocks_manager.o
 .group         0x00000000        0xc bn_bg_blocks_manager.o
 .group         0x00000000        0xc bn_bg_blocks_manager.o
 .group         0x00000000        0xc bn_bg_blocks_manager.o
 .group         0x00000000        0xc bn_bg_blocks_manager.o
 .group         0x00000000        0xc bn_bg_blocks_manager.o
 .group         0x00000000        0xc bn_bg_blocks_manager.o
 .group         0x00000000        0xc bn_bg_blocks_manager.o
 .group         0x00000000        0xc bn_bg_blocks_manager.o
 .group         0x00000000        0xc bn_bg_blocks_manager.o
 .group         0x00000000        0xc bn_bg_blocks_manager.o
 .group         0x00000000        0xc bn_bg_blocks_manager.o
 .text          0x00000000        0x0 bn_bg_blocks_manager.o
 .data          0x00000000        0x0 bn_bg_blocks_manager.o
 .bss           0x00000000        0x0 bn_bg_blocks_manager.o
 .text._ZN2bn7bg_maps16used_cells_countEv
                0x00000000       0x3c bn_bg_blocks_manager.o
 .text._ZN2bn7bg_maps21available_cells_countEv
                0x00000000       0x10 bn_bg_blocks_manager.o
 .text._ZN2bn7bg_maps17used_blocks_countEv
                0x00000000       0x38 bn_bg_blocks_manager.o
 .text._ZN2bn7bg_maps22available_blocks_countEv
                0x00000000       0x10 bn_bg_blocks_manager.o
 .text._ZN2bn7bg_maps30new_affine_big_map_canvas_sizeEv
                0x00000000       0x14 bn_bg_blocks_manager.o
 .text._ZN2bn7bg_maps34set_new_affine_big_map_canvas_sizeENS_29affine_bg_big_map_canvas_sizeE
                0x00000000       0x10 bn_bg_blocks_manager.o
 .text._ZN2bn8bg_tiles16used_tiles_countEv
                0x00000000       0x3c bn_bg_blocks_manager.o
 .text._ZN2bn8bg_tiles21available_tiles_countEv
                0x00000000       0x10 bn_bg_blocks_manager.o
 .text._ZN2bn8bg_tiles17used_blocks_countEv
                0x00000000       0x38 bn_bg_blocks_manager.o
 .text._ZN2bn8bg_tiles22available_blocks_countEv
                0x00000000       0x10 bn_bg_blocks_manager.o
 .text._ZN2bn8bg_tiles12allow_offsetEv
                0x00000000       0x10 bn_bg_blocks_manager.o
 .text._ZN2bn8bg_tiles16set_allow_offsetEb
                0x00000000       0x10 bn_bg_blocks_manager.o
 .text._ZN2bn18regular_bg_map_ptrC2ERKS0_
                0x00000000       0x20 bn_bg_blocks_manager.o
 .text._ZNK2bn18regular_bg_map_ptr11compressionEv
                0x00000000       0x1c bn_bg_blocks_manager.o
 .text._ZN2bn20regular_bg_tiles_ptrC2ERKS0_
                0x00000000       0x20 bn_bg_blocks_manager.o
 .text._ZNK2bn20regular_bg_tiles_ptr2idEv
                0x00000000       0x18 bn_bg_blocks_manager.o
 .text._ZNK2bn20regular_bg_tiles_ptr11tiles_countEv
                0x00000000       0x18 bn_bg_blocks_manager.o
 .text._ZNK2bn20regular_bg_tiles_ptr11compressionEv
                0x00000000       0x1c bn_bg_blocks_manager.o
 .text._ZN2bn17affine_bg_map_ptrC2ERKS0_
                0x00000000       0x20 bn_bg_blocks_manager.o
 .text._ZNK2bn17affine_bg_map_ptr3bigEv
                0x00000000       0x18 bn_bg_blocks_manager.o
 .text._ZNK2bn17affine_bg_map_ptr11compressionEv
                0x00000000       0x1c bn_bg_blocks_manager.o
 .text._ZN2bn19affine_bg_tiles_ptrC2ERKS0_
                0x00000000       0x20 bn_bg_blocks_manager.o
 .text._ZNK2bn19affine_bg_tiles_ptr2idEv
                0x00000000       0x18 bn_bg_blocks_manager.o
 .text._ZNK2bn19affine_bg_tiles_ptr11tiles_countEv
                0x00000000       0x18 bn_bg_blocks_manager.o
 .text._ZNK2bn19affine_bg_tiles_ptr11compressionEv
                0x00000000       0x1c bn_bg_blocks_manager.o
 .text._ZN2bn17bg_blocks_manager16used_tiles_countEv
                0x00000000       0x3c bn_bg_blocks_manager.o
 .text._ZN2bn17bg_blocks_manager21available_tiles_countEv
                0x00000000       0x10 bn_bg_blocks_manager.o
 .text._ZN2bn17bg_blocks_manager22used_tile_blocks_countEv
                0x00000000       0x38 bn_bg_blocks_manager.o
 .text._ZN2bn17bg_blocks_manager27available_tile_blocks_countEv
                0x00000000       0x10 bn_bg_blocks_manager.o
 .text._ZN2bn17bg_blocks_manager20used_map_cells_countEv
                0x00000000       0x3c bn_bg_blocks_manager.o
 .text._ZN2bn17bg_blocks_manager25available_map_cells_countEv
                0x00000000       0x10 bn_bg_blocks_manager.o
 .text._ZN2bn17bg_blocks_manager21used_map_blocks_countEv
                0x00000000       0x38 bn_bg_blocks_manager.o
 .text._ZN2bn17bg_blocks_manager26available_map_blocks_countEv
                0x00000000       0x10 bn_bg_blocks_manager.o
 .text._ZN2bn17bg_blocks_manager30new_affine_big_map_canvas_sizeEv
                0x00000000       0x14 bn_bg_blocks_manager.o
 .text._ZN2bn17bg_blocks_manager34set_new_affine_big_map_canvas_sizeENS_29affine_bg_big_map_canvas_sizeE
                0x00000000       0x10 bn_bg_blocks_manager.o
 .text._ZN2bn17bg_blocks_manager18allow_tiles_offsetEv
                0x00000000       0x10 bn_bg_blocks_manager.o
 .text._ZN2bn17bg_blocks_manager22set_allow_tiles_offsetEb
                0x00000000       0x10 bn_bg_blocks_manager.o
 .text._ZN2bn7bg_maps10log_statusEv
                0x00000000        0xc bn_bg_blocks_manager.o
 .text._ZN2bn8bg_tiles10log_statusEv
                0x00000000        0xc bn_bg_blocks_manager.o
 .text._ZN2bn17bg_blocks_manager15increase_usagesEi
                0x00000000       0x18 bn_bg_blocks_manager.o
 .text._ZN2bn18regular_bg_map_ptraSERKS0_
                0x00000000       0x40 bn_bg_blocks_manager.o
 .text._ZN2bn20regular_bg_tiles_ptraSERKS0_
                0x00000000       0x40 bn_bg_blocks_manager.o
 .text._ZN2bn20regular_bg_tiles_ptrD2Ev
                0x00000000       0x18 bn_bg_blocks_manager.o
 .text._ZN2bn17affine_bg_map_ptraSERKS0_
                0x00000000       0x40 bn_bg_blocks_manager.o
 .text._ZN2bn19affine_bg_tiles_ptraSERKS0_
                0x00000000       0x40 bn_bg_blocks_manager.o
 .text._ZN2bn19affine_bg_tiles_ptrD2Ev
                0x00000000       0x18 bn_bg_blocks_manager.o
 .text._ZN2bn17bg_blocks_manager5hw_idEi
                0x00000000       0x14 bn_bg_blocks_manager.o
 .text._ZN2bn17bg_blocks_manager12hw_tiles_cbbEi
                0x00000000       0x14 bn_bg_blocks_manager.o
 .text._ZN2bn17bg_blocks_manager11tiles_countEi
                0x00000000       0x14 bn_bg_blocks_manager.o
 .text._ZN2bn17bg_blocks_manager14map_dimensionsEi
                0x00000000       0x18 bn_bg_blocks_manager.o
 .text._ZN2bn17bg_blocks_manager7big_mapEi
                0x00000000       0x14 bn_bg_blocks_manager.o
 .text._ZN2bn17bg_blocks_manager11compressionEi
                0x00000000       0x18 bn_bg_blocks_manager.o
 .text._ZN2bn17bg_blocks_manager24remove_regular_map_tilesEi
                0x00000000       0x38 bn_bg_blocks_manager.o
 .text._ZN2bn17bg_blocks_manager23remove_affine_map_tilesEi
                0x00000000       0x38 bn_bg_blocks_manager.o
 .text._ZN2bn17bg_blocks_manager18remove_map_paletteEi
                0x00000000       0x2c bn_bg_blocks_manager.o
 .text._ZN3_bn6assert9show_argsIA15_ciEEvPKcS4_S4_iRKT_RKT0_
                0x00000000       0x54 bn_bg_blocks_manager.o
 .text._ZNK2bn19regular_bg_map_item10decompressENS_4spanItEE
                0x00000000      0x104 bn_bg_blocks_manager.o
 .rodata._ZNK2bn19regular_bg_map_item10decompressERtRKNS_4sizeE.str1.4
                0x00000000       0x33 bn_bg_blocks_manager.o
 .text._ZNK2bn19regular_bg_map_item10decompressERtRKNS_4sizeE
                0x00000000       0x4c bn_bg_blocks_manager.o
 .rodata._ZNK2bn18affine_bg_map_item10decompressENS_4spanIhEE.str1.4
                0x00000000       0x1c bn_bg_blocks_manager.o
 .text._ZNK2bn18affine_bg_map_item10decompressENS_4spanIhEE
                0x00000000      0x100 bn_bg_blocks_manager.o
 .text._ZNK2bn18affine_bg_map_item10decompressERhRKNS_4sizeE
                0x00000000       0x4c bn_bg_blocks_manager.o
 .text._ZN3_bn6assert9show_argsIA33_cEEvPKcS4_S4_iRKT_
                0x00000000       0x48 bn_bg_blocks_manager.o
 .text._ZN2bn17bg_blocks_manager18find_regular_tilesERKNS_21regular_bg_tiles_itemE
                0x00000000       0x1c bn_bg_blocks_manager.o
 .text._ZN2bn17bg_blocks_manager17find_affine_tilesERKNS_20affine_bg_tiles_itemE
                0x00000000       0x1c bn_bg_blocks_manager.o
 .text._ZNK2bn20affine_bg_tiles_item10find_tilesEv
                0x00000000       0x30 bn_bg_blocks_manager.o
 .text._ZN2bn20regular_bg_tiles_ptr4findERKNS_21regular_bg_tiles_itemE
                0x00000000       0x30 bn_bg_blocks_manager.o
 .text._ZN2bn19affine_bg_tiles_ptr4findERKNS_20affine_bg_tiles_itemE
                0x00000000       0x30 bn_bg_blocks_manager.o
 .text._ZNK2bn21regular_bg_tiles_item10find_tilesEv
                0x00000000       0x30 bn_bg_blocks_manager.o
 .text._ZN2bn17bg_blocks_manager17regular_map_tilesEi
                0x00000000       0x44 bn_bg_blocks_manager.o
 .text._ZN2bn17bg_blocks_manager16affine_map_tilesEi
                0x00000000       0x44 bn_bg_blocks_manager.o
 .text._ZN2bn17bg_blocks_manager11map_paletteEi
                0x00000000       0x44 bn_bg_blocks_manager.o
 .text._ZNK2bn18regular_bg_map_ptr7paletteEv
                0x00000000       0x48 bn_bg_blocks_manager.o
 .text._ZNK2bn17affine_bg_map_ptr7paletteEv
                0x00000000       0x48 bn_bg_blocks_manager.o
 .text._ZN2bn17bg_blocks_manager14palette_offsetEi
                0x00000000       0x48 bn_bg_blocks_manager.o
 .text._ZNK2bn18regular_bg_map_ptr20palette_banks_offsetEv
                0x00000000       0x48 bn_bg_blocks_manager.o
 .text._ZN2bn17bg_blocks_manager19affine_tiles_offsetEi
                0x00000000       0x54 bn_bg_blocks_manager.o
 .text._ZNK2bn17affine_bg_map_ptr12tiles_offsetEv
                0x00000000       0x58 bn_bg_blocks_manager.o
 .text._ZN2bn17bg_blocks_manager20regular_tiles_offsetEi
                0x00000000       0x6c bn_bg_blocks_manager.o
 .text._ZNK2bn18regular_bg_map_ptr12tiles_offsetEv
                0x00000000       0x70 bn_bg_blocks_manager.o
 .text._ZN2bn17bg_blocks_manager20set_affine_map_tilesEiONS_19affine_bg_tiles_ptrE
                0x00000000      0x13c bn_bg_blocks_manager.o
 .text._ZN2bn17affine_bg_map_ptr9set_tilesERKNS_19affine_bg_tiles_ptrE
                0x00000000       0x44 bn_bg_blocks_manager.o
 .text._ZN2bn17affine_bg_map_ptr9set_tilesEONS_19affine_bg_tiles_ptrE
                0x00000000       0x14 bn_bg_blocks_manager.o
 .text._ZN2bn18regular_bg_map_ptr9set_tilesERKNS_20regular_bg_tiles_ptrE
                0x00000000       0x44 bn_bg_blocks_manager.o
 .text._ZN2bn18regular_bg_map_ptr9set_tilesEONS_20regular_bg_tiles_ptrE
                0x00000000       0x14 bn_bg_blocks_manager.o
 .text._ZN2bn18regular_bg_map_ptr11set_paletteERKNS_14bg_palette_ptrE
                0x00000000       0x24 bn_bg_blocks_manager.o
 .text._ZN2bn18regular_bg_map_ptr11set_paletteEONS_14bg_palette_ptrE
                0x00000000       0x14 bn_bg_blocks_manager.o
 .text._ZN2bn18regular_bg_map_ptr11set_paletteERKNS_15bg_palette_itemE
                0x00000000       0xf0 bn_bg_blocks_manager.o
 .text._ZN2bn17bg_blocks_manager12_GLOBAL__N_114_allocate_implEONS1_11create_dataE
                0x00000000       0xf0 bn_bg_blocks_manager.o
 .text._ZN2bn20regular_bg_tiles_ptr6createERKNS_21regular_bg_tiles_itemE
                0x00000000       0x18 bn_bg_blocks_manager.o
 .text._ZN2bn18regular_bg_map_ptr9set_tilesERKNS_21regular_bg_tiles_itemE
                0x00000000       0xb0 bn_bg_blocks_manager.o
 .text._ZNK2bn21regular_bg_tiles_item12create_tilesEv
                0x00000000       0x18 bn_bg_blocks_manager.o
 .text._ZNK2bn21regular_bg_tiles_item16create_new_tilesEv
                0x00000000       0x18 bn_bg_blocks_manager.o
 .text._ZN2bn20regular_bg_tiles_ptr15create_optionalERKNS_21regular_bg_tiles_itemE
                0x00000000       0x24 bn_bg_blocks_manager.o
 .text._ZNK2bn21regular_bg_tiles_item21create_tiles_optionalEv
                0x00000000       0x24 bn_bg_blocks_manager.o
 .text._ZNK2bn21regular_bg_tiles_item25create_new_tiles_optionalEv
                0x00000000       0x24 bn_bg_blocks_manager.o
 .text._ZN3_bn6assert9show_argsIJA31_cA15_cPKtA16_ciA17_ciA34_cN2bn11string_viewEEEEvPKcSC_SC_iDpRKT_
                0x00000000       0x90 bn_bg_blocks_manager.o
 .rodata._ZN2bn17bg_blocks_manager19create_affine_tilesERKNS_20affine_bg_tiles_itemEb.str1.4
                0x00000000       0x33 bn_bg_blocks_manager.o
 .text._ZN2bn17bg_blocks_manager19create_affine_tilesERKNS_20affine_bg_tiles_itemEb
                0x00000000      0x12c bn_bg_blocks_manager.o
 .text._ZN2bn19affine_bg_tiles_ptr6createERKNS_20affine_bg_tiles_itemE
                0x00000000       0x18 bn_bg_blocks_manager.o
 .text._ZN2bn17affine_bg_map_ptr9set_tilesERKNS_20affine_bg_tiles_itemE
                0x00000000       0xb0 bn_bg_blocks_manager.o
 .text._ZNK2bn20affine_bg_tiles_item12create_tilesEv
                0x00000000       0x18 bn_bg_blocks_manager.o
 .text._ZNK2bn20affine_bg_tiles_item16create_new_tilesEv
                0x00000000       0x18 bn_bg_blocks_manager.o
 .text._ZN2bn19affine_bg_tiles_ptr15create_optionalERKNS_20affine_bg_tiles_itemE
                0x00000000       0x24 bn_bg_blocks_manager.o
 .text._ZNK2bn20affine_bg_tiles_item21create_tiles_optionalEv
                0x00000000       0x24 bn_bg_blocks_manager.o
 .text._ZNK2bn20affine_bg_tiles_item25create_new_tiles_optionalEv
                0x00000000       0x24 bn_bg_blocks_manager.o
 .text._ZN3_bn6assert9show_argsIA26_cEEvPKcS4_S4_iRKT_
                0x00000000       0x48 bn_bg_blocks_manager.o
 .rodata._ZN2bn17bg_blocks_manager22set_affine_map_paletteEiONS_14bg_palette_ptrE.str1.4
                0x00000000       0x5b bn_bg_blocks_manager.o
 .text._ZN2bn17bg_blocks_manager22set_affine_map_paletteEiONS_14bg_palette_ptrE
                0x00000000       0x9c bn_bg_blocks_manager.o
 .text._ZN2bn17affine_bg_map_ptr11set_paletteERKNS_14bg_palette_ptrE
                0x00000000       0x24 bn_bg_blocks_manager.o
 .text._ZN2bn17affine_bg_map_ptr11set_paletteERKNS_15bg_palette_itemE
                0x00000000       0x24 bn_bg_blocks_manager.o
 .rodata._ZN2bn17bg_blocks_manager12_GLOBAL__N_121_find_affine_map_implERKNS_18affine_bg_map_itemEPKhRKNS_19affine_bg_tiles_ptrERKNS_14bg_palette_ptrE.str1.4
                0x00000000       0x16 bn_bg_blocks_manager.o
 .text._ZN2bn17bg_blocks_manager12_GLOBAL__N_121_find_affine_map_implERKNS_18affine_bg_map_itemEPKhRKNS_19affine_bg_tiles_ptrERKNS_14bg_palette_ptrE
                0x00000000      0x1f4 bn_bg_blocks_manager.o
 .text._ZN2bn17bg_blocks_manager15find_affine_mapERKNS_18affine_bg_map_itemEPKhRKNS_19affine_bg_tiles_ptrERKNS_14bg_palette_ptrE
                0x00000000        0xc bn_bg_blocks_manager.o
 .text._ZN2bn17affine_bg_map_ptr4findERKNS_18affine_bg_map_itemERKNS_19affine_bg_tiles_ptrERKNS_14bg_palette_ptrE
                0x00000000       0x24 bn_bg_blocks_manager.o
 .text._ZN2bn17affine_bg_map_ptr4findERKNS_18affine_bg_map_itemERKNS_19affine_bg_tiles_ptrERKNS_14bg_palette_ptrEi
                0x00000000       0x9c bn_bg_blocks_manager.o
 .text._ZNK2bn18affine_bg_map_item8find_mapERKNS_19affine_bg_tiles_ptrERKNS_14bg_palette_ptrE
                0x00000000       0x24 bn_bg_blocks_manager.o
 .text._ZNK2bn18affine_bg_map_item8find_mapERKNS_19affine_bg_tiles_ptrERKNS_14bg_palette_ptrEi
                0x00000000       0x9c bn_bg_blocks_manager.o
 .text._ZN2bn17affine_bg_map_ptr4findERKNS_14affine_bg_itemE
                0x00000000       0xcc bn_bg_blocks_manager.o
 .text._ZN2bn17affine_bg_map_ptr4findERKNS_14affine_bg_itemEi
                0x00000000      0x140 bn_bg_blocks_manager.o
 .text._ZN2bn17bg_blocks_manager17create_affine_mapERKNS_18affine_bg_map_itemEPKhONS_19affine_bg_tiles_ptrEONS_14bg_palette_ptrEb
                0x00000000      0x358 bn_bg_blocks_manager.o
 .text._ZN2bn17affine_bg_map_ptr6createERKNS_18affine_bg_map_itemENS_19affine_bg_tiles_ptrENS_14bg_palette_ptrE
                0x00000000       0x20 bn_bg_blocks_manager.o
 .text._ZN2bn17affine_bg_map_ptr10create_newERKNS_18affine_bg_map_itemENS_19affine_bg_tiles_ptrENS_14bg_palette_ptrE
                0x00000000       0x4c bn_bg_blocks_manager.o
 .text._ZNK2bn18affine_bg_map_item10create_mapENS_19affine_bg_tiles_ptrENS_14bg_palette_ptrE
                0x00000000       0x4c bn_bg_blocks_manager.o
 .text._ZN2bn17affine_bg_map_ptr6createERKNS_18affine_bg_map_itemENS_19affine_bg_tiles_ptrENS_14bg_palette_ptrEi
                0x00000000       0x94 bn_bg_blocks_manager.o
 .text._ZN2bn17affine_bg_map_ptr6createERKNS_14affine_bg_itemE
                0x00000000       0x64 bn_bg_blocks_manager.o
 .text._ZN2bn17affine_bg_map_ptr6createERKNS_14affine_bg_itemEi
                0x00000000       0xdc bn_bg_blocks_manager.o
 .text._ZN2bn17affine_bg_map_ptr15create_optionalERKNS_18affine_bg_map_itemENS_19affine_bg_tiles_ptrENS_14bg_palette_ptrE
                0x00000000       0x2c bn_bg_blocks_manager.o
 .text._ZN2bn17affine_bg_map_ptr15create_optionalERKNS_18affine_bg_map_itemENS_19affine_bg_tiles_ptrENS_14bg_palette_ptrEi
                0x00000000       0xa0 bn_bg_blocks_manager.o
 .text._ZN2bn17affine_bg_map_ptr15create_optionalERKNS_14affine_bg_itemE
                0x00000000       0xb4 bn_bg_blocks_manager.o
 .text._ZN2bn17affine_bg_map_ptr15create_optionalERKNS_14affine_bg_itemEi
                0x00000000      0x120 bn_bg_blocks_manager.o
 .text._ZN2bn17affine_bg_map_ptr10create_newERKNS_18affine_bg_map_itemENS_19affine_bg_tiles_ptrENS_14bg_palette_ptrEi
                0x00000000       0xc4 bn_bg_blocks_manager.o
 .text._ZNK2bn18affine_bg_map_item10create_mapENS_19affine_bg_tiles_ptrENS_14bg_palette_ptrEi
                0x00000000       0xc4 bn_bg_blocks_manager.o
 .text._ZNK2bn18affine_bg_map_item14create_new_mapENS_19affine_bg_tiles_ptrENS_14bg_palette_ptrEi
                0x00000000       0xd0 bn_bg_blocks_manager.o
 .text._ZN2bn17affine_bg_map_ptr19create_new_optionalERKNS_18affine_bg_map_itemENS_19affine_bg_tiles_ptrENS_14bg_palette_ptrE
                0x00000000       0x58 bn_bg_blocks_manager.o
 .text._ZNK2bn18affine_bg_map_item19create_map_optionalENS_19affine_bg_tiles_ptrENS_14bg_palette_ptrE
                0x00000000       0x58 bn_bg_blocks_manager.o
 .text._ZNK2bn18affine_bg_map_item14create_new_mapENS_19affine_bg_tiles_ptrENS_14bg_palette_ptrE
                0x00000000       0x58 bn_bg_blocks_manager.o
 .text._ZNK2bn18affine_bg_map_item23create_new_map_optionalENS_19affine_bg_tiles_ptrENS_14bg_palette_ptrE
                0x00000000       0x64 bn_bg_blocks_manager.o
 .text._ZN2bn17affine_bg_map_ptr19create_new_optionalERKNS_18affine_bg_map_itemENS_19affine_bg_tiles_ptrENS_14bg_palette_ptrEi
                0x00000000       0xd0 bn_bg_blocks_manager.o
 .text._ZNK2bn18affine_bg_map_item19create_map_optionalENS_19affine_bg_tiles_ptrENS_14bg_palette_ptrEi
                0x00000000       0xd0 bn_bg_blocks_manager.o
 .text._ZNK2bn18affine_bg_map_item23create_new_map_optionalENS_19affine_bg_tiles_ptrENS_14bg_palette_ptrEi
                0x00000000       0xdc bn_bg_blocks_manager.o
 .text._ZN2bn17affine_bg_map_ptr11set_paletteEONS_14bg_palette_ptrE
                0x00000000       0x94 bn_bg_blocks_manager.o
 .text._ZN3_bn6assert9show_argsIJA49_ciA17_ciA34_cN2bn11string_viewEEEEvPKcS8_S8_iDpRKT_
                0x00000000       0x74 bn_bg_blocks_manager.o
 .rodata._ZN2bn17bg_blocks_manager22allocate_regular_tilesEiNS_8bpp_modeEb.str1.4
                0x00000000       0x85 bn_bg_blocks_manager.o
 .text._ZN2bn17bg_blocks_manager22allocate_regular_tilesEiNS_8bpp_modeEb
                0x00000000      0x160 bn_bg_blocks_manager.o
 .text._ZN2bn20regular_bg_tiles_ptr8allocateEiNS_8bpp_modeE
                0x00000000       0x18 bn_bg_blocks_manager.o
 .text._ZN2bn20regular_bg_tiles_ptr17allocate_optionalEiNS_8bpp_modeE
                0x00000000       0x28 bn_bg_blocks_manager.o
 .text._ZN3_bn6assert9show_argsIJA48_ciA17_ciA34_cN2bn11string_viewEEEEvPKcS8_S8_iDpRKT_
                0x00000000       0x74 bn_bg_blocks_manager.o
 .rodata._ZN2bn17bg_blocks_manager21allocate_affine_tilesEib.str1.4
                0x00000000       0x80 bn_bg_blocks_manager.o
 .text._ZN2bn17bg_blocks_manager21allocate_affine_tilesEib
                0x00000000      0x11c bn_bg_blocks_manager.o
 .text._ZN2bn19affine_bg_tiles_ptr8allocateEi
                0x00000000       0x18 bn_bg_blocks_manager.o
 .text._ZN2bn19affine_bg_tiles_ptr17allocate_optionalEi
                0x00000000       0x24 bn_bg_blocks_manager.o
 .text._ZN3_bn6assert9show_argsIA20_ciEEvPKcS4_S4_iRKT_RKT0_
                0x00000000       0x54 bn_bg_blocks_manager.o
 .text._ZN2bn17bg_blocks_manager20allocate_regular_mapERKNS_4sizeEONS_20regular_bg_tiles_ptrEONS_14bg_palette_ptrEb
                0x00000000      0x2b8 bn_bg_blocks_manager.o
 .text._ZN2bn18regular_bg_map_ptr8allocateERKNS_4sizeENS_20regular_bg_tiles_ptrENS_14bg_palette_ptrE
                0x00000000       0x1c bn_bg_blocks_manager.o
 .text._ZN2bn18regular_bg_map_ptr17allocate_optionalERKNS_4sizeENS_20regular_bg_tiles_ptrENS_14bg_palette_ptrE
                0x00000000       0x28 bn_bg_blocks_manager.o
 .text._ZN3_bn6assert9show_argsIJA41_ciA4_ciEEEvPKcS5_S5_iDpRKT_
                0x00000000       0x58 bn_bg_blocks_manager.o
 .text._ZN3_bn6assert9show_argsIJA31_cA14_ciA15_ciA17_ciA34_cN2bn11string_viewEEEEvPKcSA_SA_iDpRKT_
                0x00000000       0x90 bn_bg_blocks_manager.o
 .rodata._ZN2bn17bg_blocks_manager19allocate_affine_mapERKNS_4sizeEONS_19affine_bg_tiles_ptrEONS_14bg_palette_ptrEb.str1.4
                0x00000000      0x113 bn_bg_blocks_manager.o
 .text._ZN2bn17bg_blocks_manager19allocate_affine_mapERKNS_4sizeEONS_19affine_bg_tiles_ptrEONS_14bg_palette_ptrEb
                0x00000000      0x1f4 bn_bg_blocks_manager.o
 .text._ZN2bn17affine_bg_map_ptr8allocateERKNS_4sizeENS_19affine_bg_tiles_ptrENS_14bg_palette_ptrE
                0x00000000       0x1c bn_bg_blocks_manager.o
 .text._ZN2bn17affine_bg_map_ptr17allocate_optionalERKNS_4sizeENS_19affine_bg_tiles_ptrENS_14bg_palette_ptrE
                0x00000000       0x28 bn_bg_blocks_manager.o
 .text._ZN3_bn6assert9show_argsIA14_cEEvPKcS4_S4_iRKT_
                0x00000000       0x48 bn_bg_blocks_manager.o
 .rodata._ZN2bn17bg_blocks_manager26affine_big_map_canvas_sizeEi.str1.4
                0x00000000       0x2a bn_bg_blocks_manager.o
 .text._ZN2bn17bg_blocks_manager26affine_big_map_canvas_sizeEi
                0x00000000       0x48 bn_bg_blocks_manager.o
 .text._ZNK2bn17affine_bg_map_ptr15big_canvas_sizeEv
                0x00000000       0x4c bn_bg_blocks_manager.o
 .text._ZN3_bn6assert9show_argsIJA46_ciA4_ciEEEvPKcS5_S5_iDpRKT_
                0x00000000       0x58 bn_bg_blocks_manager.o
 .text._ZN3_bn6assert9show_argsIA17_cEEvPKcS4_S4_iRKT_
                0x00000000       0x48 bn_bg_blocks_manager.o
 .rodata._ZN2bn17bg_blocks_manager6reloadEi.str1.4
                0x00000000       0x19 bn_bg_blocks_manager.o
 .text._ZN2bn17bg_blocks_manager6reloadEi
                0x00000000       0x54 bn_bg_blocks_manager.o
 .rodata._ZN2bn17bg_blocks_manager21set_regular_tiles_refEiRKNS_21regular_bg_tiles_itemE.str1.4
                0x00000000       0x46 bn_bg_blocks_manager.o
 .text._ZN2bn17bg_blocks_manager21set_regular_tiles_refEiRKNS_21regular_bg_tiles_itemE
                0x00000000       0xd8 bn_bg_blocks_manager.o
 .text._ZN2bn20regular_bg_tiles_ptr13set_tiles_refERKNS_21regular_bg_tiles_itemE
                0x00000000       0x14 bn_bg_blocks_manager.o
 .rodata._ZN2bn17bg_blocks_manager20set_affine_tiles_refEiRKNS_20affine_bg_tiles_itemE.str1.4
                0x00000000       0x15 bn_bg_blocks_manager.o
 .text._ZN2bn17bg_blocks_manager20set_affine_tiles_refEiRKNS_20affine_bg_tiles_itemE
                0x00000000       0xd8 bn_bg_blocks_manager.o
 .text._ZN2bn19affine_bg_tiles_ptr13set_tiles_refERKNS_20affine_bg_tiles_itemE
                0x00000000       0x14 bn_bg_blocks_manager.o
 .text._ZN2bn18regular_bg_map_ptr16reload_cells_refEv
                0x00000000       0x58 bn_bg_blocks_manager.o
 .text._ZN2bn20regular_bg_tiles_ptr16reload_tiles_refEv
                0x00000000       0x58 bn_bg_blocks_manager.o
 .text._ZN2bn17affine_bg_map_ptr16reload_cells_refEv
                0x00000000       0x58 bn_bg_blocks_manager.o
 .text._ZN2bn19affine_bg_tiles_ptr16reload_tiles_refEv
                0x00000000       0x58 bn_bg_blocks_manager.o
 .text._ZN3_bn6assert9show_argsIJA42_ciA4_ctEEEvPKcS5_S5_iDpRKT_
                0x00000000       0x58 bn_bg_blocks_manager.o
 .text._ZN3_bn6assert9show_argsIJA44_ciA4_ctEEEvPKcS5_S5_iDpRKT_
                0x00000000       0x58 bn_bg_blocks_manager.o
 .text._ZN3_bn6assert9show_argsIJA38_cbA4_cbEEEvPKcS5_S5_iDpRKT_
                0x00000000       0x7c bn_bg_blocks_manager.o
 .rodata._ZN2bn17bg_blocks_manager25set_regular_map_cells_refEiRKNS_19regular_bg_map_itemEPKt.str1.4
                0x00000000       0x9a bn_bg_blocks_manager.o
 .text._ZN2bn17bg_blocks_manager25set_regular_map_cells_refEiRKNS_19regular_bg_map_itemEPKt
                0x00000000      0x194 bn_bg_blocks_manager.o
 .text._ZN2bn18regular_bg_map_ptr13set_cells_refERKNS_19regular_bg_map_itemE
                0x00000000       0x14 bn_bg_blocks_manager.o
 .text._ZN2bn18regular_bg_map_ptr13set_cells_refERKNS_19regular_bg_map_itemEi
                0x00000000       0x8c bn_bg_blocks_manager.o
 .rodata._ZN2bn17bg_blocks_manager24set_affine_map_cells_refEiRKNS_18affine_bg_map_itemEPKh.str1.4
                0x00000000       0x19 bn_bg_blocks_manager.o
 .text._ZN2bn17bg_blocks_manager24set_affine_map_cells_refEiRKNS_18affine_bg_map_itemEPKh
                0x00000000      0x198 bn_bg_blocks_manager.o
 .text._ZN2bn17affine_bg_map_ptr13set_cells_refERKNS_18affine_bg_map_itemE
                0x00000000       0x14 bn_bg_blocks_manager.o
 .text._ZN2bn17affine_bg_map_ptr13set_cells_refERKNS_18affine_bg_map_itemEi
                0x00000000       0x8c bn_bg_blocks_manager.o
 .text._ZN2bn18regular_bg_map_ptr21set_tiles_and_paletteENS_20regular_bg_tiles_ptrENS_14bg_palette_ptrE
                0x00000000       0x14 bn_bg_blocks_manager.o
 .text._ZN2bn17bg_blocks_manager16find_regular_mapERKNS_19regular_bg_map_itemEPKtRKNS_20regular_bg_tiles_ptrERKNS_14bg_palette_ptrE
                0x00000000        0xc bn_bg_blocks_manager.o
 .text._ZN2bn18regular_bg_map_ptr4findERKNS_19regular_bg_map_itemERKNS_20regular_bg_tiles_ptrERKNS_14bg_palette_ptrE
                0x00000000       0x24 bn_bg_blocks_manager.o
 .text._ZN2bn18regular_bg_map_ptr4findERKNS_19regular_bg_map_itemERKNS_20regular_bg_tiles_ptrERKNS_14bg_palette_ptrEi
                0x00000000       0xa0 bn_bg_blocks_manager.o
 .text._ZN2bn18regular_bg_map_ptr6createERKNS_19regular_bg_map_itemENS_20regular_bg_tiles_ptrENS_14bg_palette_ptrE
                0x00000000       0x20 bn_bg_blocks_manager.o
 .text._ZN2bn18regular_bg_map_ptr10create_newERKNS_19regular_bg_map_itemENS_20regular_bg_tiles_ptrENS_14bg_palette_ptrE
                0x00000000       0x4c bn_bg_blocks_manager.o
 .text._ZNK2bn19regular_bg_map_item10create_mapENS_20regular_bg_tiles_ptrENS_14bg_palette_ptrE
                0x00000000       0x4c bn_bg_blocks_manager.o
 .text._ZN2bn18regular_bg_map_ptr6createERKNS_19regular_bg_map_itemENS_20regular_bg_tiles_ptrENS_14bg_palette_ptrEi
                0x00000000       0x94 bn_bg_blocks_manager.o
 .text._ZN2bn18regular_bg_map_ptr6createERKNS_15regular_bg_itemE
                0x00000000       0x64 bn_bg_blocks_manager.o
 .text._ZN2bn18regular_bg_map_ptr15create_optionalERKNS_19regular_bg_map_itemENS_20regular_bg_tiles_ptrENS_14bg_palette_ptrE
                0x00000000       0x2c bn_bg_blocks_manager.o
 .text._ZN2bn18regular_bg_map_ptr15create_optionalERKNS_19regular_bg_map_itemENS_20regular_bg_tiles_ptrENS_14bg_palette_ptrEi
                0x00000000       0xa0 bn_bg_blocks_manager.o
 .text._ZN2bn18regular_bg_map_ptr15create_optionalERKNS_15regular_bg_itemE
                0x00000000       0xb4 bn_bg_blocks_manager.o
 .text._ZN2bn18regular_bg_map_ptr15create_optionalERKNS_15regular_bg_itemEi
                0x00000000      0x120 bn_bg_blocks_manager.o
 .text._ZN2bn18regular_bg_map_ptr10create_newERKNS_19regular_bg_map_itemENS_20regular_bg_tiles_ptrENS_14bg_palette_ptrEi
                0x00000000       0xc4 bn_bg_blocks_manager.o
 .text._ZNK2bn19regular_bg_map_item10create_mapENS_20regular_bg_tiles_ptrENS_14bg_palette_ptrEi
                0x00000000       0xc4 bn_bg_blocks_manager.o
 .text._ZNK2bn19regular_bg_map_item14create_new_mapENS_20regular_bg_tiles_ptrENS_14bg_palette_ptrEi
                0x00000000       0xd0 bn_bg_blocks_manager.o
 .text._ZN2bn18regular_bg_map_ptr19create_new_optionalERKNS_19regular_bg_map_itemENS_20regular_bg_tiles_ptrENS_14bg_palette_ptrE
                0x00000000       0x58 bn_bg_blocks_manager.o
 .text._ZNK2bn19regular_bg_map_item19create_map_optionalENS_20regular_bg_tiles_ptrENS_14bg_palette_ptrE
                0x00000000       0x58 bn_bg_blocks_manager.o
 .text._ZNK2bn19regular_bg_map_item14create_new_mapENS_20regular_bg_tiles_ptrENS_14bg_palette_ptrE
                0x00000000       0x58 bn_bg_blocks_manager.o
 .text._ZNK2bn19regular_bg_map_item23create_new_map_optionalENS_20regular_bg_tiles_ptrENS_14bg_palette_ptrE
                0x00000000       0x64 bn_bg_blocks_manager.o
 .text._ZN2bn18regular_bg_map_ptr19create_new_optionalERKNS_19regular_bg_map_itemENS_20regular_bg_tiles_ptrENS_14bg_palette_ptrEi
                0x00000000       0xd0 bn_bg_blocks_manager.o
 .text._ZNK2bn19regular_bg_map_item19create_map_optionalENS_20regular_bg_tiles_ptrENS_14bg_palette_ptrEi
                0x00000000       0xd0 bn_bg_blocks_manager.o
 .text._ZNK2bn19regular_bg_map_item23create_new_map_optionalENS_20regular_bg_tiles_ptrENS_14bg_palette_ptrEi
                0x00000000       0xdc bn_bg_blocks_manager.o
 .text._ZNK2bn19regular_bg_map_item8find_mapERKNS_20regular_bg_tiles_ptrERKNS_14bg_palette_ptrE
                0x00000000       0x24 bn_bg_blocks_manager.o
 .text._ZNK2bn19regular_bg_map_item8find_mapERKNS_20regular_bg_tiles_ptrERKNS_14bg_palette_ptrEi
                0x00000000       0xa0 bn_bg_blocks_manager.o
 .text._ZN2bn18regular_bg_map_ptr4findERKNS_15regular_bg_itemE
                0x00000000       0xcc bn_bg_blocks_manager.o
 .text._ZN2bn18regular_bg_map_ptr4findERKNS_15regular_bg_itemEi
                0x00000000      0x144 bn_bg_blocks_manager.o
 .text._ZN2bn18regular_bg_map_ptr21set_tiles_and_paletteERKNS_21regular_bg_tiles_itemERKNS_15bg_palette_itemE
                0x00000000      0x17c bn_bg_blocks_manager.o
 .text._ZN3_bn6assert9show_argsIA39_ciEEvPKcS4_S4_iRKT_RKT0_
                0x00000000       0x54 bn_bg_blocks_manager.o
 .text._ZN2bn17bg_blocks_manager16regular_map_vramEi
                0x00000000       0x4c bn_bg_blocks_manager.o
 .text._ZN2bn18regular_bg_map_ptr4vramEv
                0x00000000       0x18 bn_bg_blocks_manager.o
 .text._ZN2bn17bg_blocks_manager15affine_map_vramEi
                0x00000000       0x48 bn_bg_blocks_manager.o
 .text._ZN2bn17affine_bg_map_ptr4vramEv
                0x00000000       0x18 bn_bg_blocks_manager.o
 .text._ZN2bn17bg_blocks_manager21regular_map_cells_refEi
                0x00000000       0x3c bn_bg_blocks_manager.o
 .text._ZNK2bn18regular_bg_map_ptr9cells_refEv
                0x00000000       0x18 bn_bg_blocks_manager.o
 .text._ZN2bn17bg_blocks_manager20affine_map_cells_refEi
                0x00000000       0x3c bn_bg_blocks_manager.o
 .text._ZNK2bn17affine_bg_map_ptr9cells_refEv
                0x00000000       0x18 bn_bg_blocks_manager.o
 .text._ZN2bn17bg_blocks_manager10tiles_vramEi
                0x00000000       0x48 bn_bg_blocks_manager.o
 .text._ZN2bn20regular_bg_tiles_ptr4vramEv
                0x00000000       0x18 bn_bg_blocks_manager.o
 .text._ZN2bn19affine_bg_tiles_ptr4vramEv
                0x00000000       0x18 bn_bg_blocks_manager.o
 .text._ZN2bn17bg_blocks_manager9tiles_refEi
                0x00000000       0x3c bn_bg_blocks_manager.o
 .text._ZNK2bn20regular_bg_tiles_ptr9tiles_refEv
                0x00000000       0x3c bn_bg_blocks_manager.o
 .text._ZNK2bn19affine_bg_tiles_ptr9tiles_refEv
                0x00000000       0x3c bn_bg_blocks_manager.o
 .rodata._ZNK2bn20affine_bg_tiles_item10decompressENS_4spanINS_4tileEEE.str1.4
                0x00000000       0x7b bn_bg_blocks_manager.o
 .text._ZNK2bn20affine_bg_tiles_item10decompressENS_4spanINS_4tileEEE
                0x00000000      0x154 bn_bg_blocks_manager.o
 .rodata._ZNK2bn21regular_bg_tiles_item10decompressENS_4spanINS_4tileEEE.str1.4
                0x00000000       0x1f bn_bg_blocks_manager.o
 .text._ZNK2bn21regular_bg_tiles_item10decompressENS_4spanINS_4tileEEE
                0x00000000      0x154 bn_bg_blocks_manager.o
 .group         0x00000000        0xc bn_bgs_manager.o
 .group         0x00000000        0xc bn_bgs_manager.o
 .group         0x00000000        0xc bn_bgs_manager.o
 .group         0x00000000        0xc bn_bgs_manager.o
 .group         0x00000000        0xc bn_bgs_manager.o
 .group         0x00000000        0xc bn_bgs_manager.o
 .group         0x00000000        0xc bn_bgs_manager.o
 .group         0x00000000        0xc bn_bgs_manager.o
 .group         0x00000000        0xc bn_bgs_manager.o
 .group         0x00000000        0xc bn_bgs_manager.o
 .group         0x00000000        0xc bn_bgs_manager.o
 .group         0x00000000        0xc bn_bgs_manager.o
 .group         0x00000000        0xc bn_bgs_manager.o
 .group         0x00000000        0xc bn_bgs_manager.o
 .group         0x00000000        0xc bn_bgs_manager.o
 .group         0x00000000        0xc bn_bgs_manager.o
 .group         0x00000000        0xc bn_bgs_manager.o
 .group         0x00000000        0xc bn_bgs_manager.o
 .group         0x00000000        0xc bn_bgs_manager.o
 .group         0x00000000        0xc bn_bgs_manager.o
 .group         0x00000000        0xc bn_bgs_manager.o
 .group         0x00000000        0xc bn_bgs_manager.o
 .group         0x00000000        0xc bn_bgs_manager.o
 .group         0x00000000        0xc bn_bgs_manager.o
 .group         0x00000000        0xc bn_bgs_manager.o
 .text          0x00000000        0x0 bn_bgs_manager.o
 .data          0x00000000        0x0 bn_bgs_manager.o
 .bss           0x00000000        0x0 bn_bgs_manager.o
 .text._ZN2bn11bgs_manager12_GLOBAL__N_128_check_unique_affine_big_mapERNS1_9item_typeE
                0x00000000       0x68 bn_bgs_manager.o
 .text._ZN2bn3bgs16used_items_countEv
                0x00000000       0x10 bn_bgs_manager.o
 .text._ZN2bn3bgs21available_items_countEv
                0x00000000       0x14 bn_bgs_manager.o
 .text._ZN2bn13affine_bg_ptrC2ERKS0_
                0x00000000        0xc bn_bgs_manager.o
 .text._ZNK2bn13affine_bg_ptr3bigEv
                0x00000000        0xc bn_bgs_manager.o
 .text._ZNK2bn13affine_bg_ptr1xEv
                0x00000000        0x8 bn_bgs_manager.o
 .text._ZN2bn13affine_bg_ptr5set_xENS_7fixed_tILi12EEE
                0x00000000       0x84 bn_bgs_manager.o
 .text._ZNK2bn13affine_bg_ptr1yEv
                0x00000000        0x8 bn_bgs_manager.o
 .text._ZN2bn13affine_bg_ptr5set_yENS_7fixed_tILi12EEE
                0x00000000       0x84 bn_bgs_manager.o
 .text._ZNK2bn13affine_bg_ptr8positionEv
                0x00000000        0x8 bn_bgs_manager.o
 .text._ZNK2bn13affine_bg_ptr14rotation_angleEv
                0x00000000        0x8 bn_bgs_manager.o
 .text._ZNK2bn13affine_bg_ptr16horizontal_scaleEv
                0x00000000        0x8 bn_bgs_manager.o
 .text._ZNK2bn13affine_bg_ptr14vertical_scaleEv
                0x00000000        0x8 bn_bgs_manager.o
 .text._ZNK2bn13affine_bg_ptr16horizontal_shearEv
                0x00000000        0x8 bn_bgs_manager.o
 .text._ZN2bn13affine_bg_ptr20set_horizontal_shearENS_7fixed_tILi12EEE
                0x00000000       0x94 bn_bgs_manager.o
 .text._ZNK2bn13affine_bg_ptr14vertical_shearEv
                0x00000000        0x8 bn_bgs_manager.o
 .text._ZN2bn13affine_bg_ptr18set_vertical_shearENS_7fixed_tILi12EEE
                0x00000000       0x94 bn_bgs_manager.o
 .text._ZNK2bn13affine_bg_ptr15horizontal_flipEv
                0x00000000        0xc bn_bgs_manager.o
 .text._ZN2bn13affine_bg_ptr19set_horizontal_flipEb
                0x00000000       0xa0 bn_bgs_manager.o
 .text._ZNK2bn13affine_bg_ptr13vertical_flipEv
                0x00000000        0xc bn_bgs_manager.o
 .text._ZN2bn13affine_bg_ptr17set_vertical_flipEb
                0x00000000       0xa0 bn_bgs_manager.o
 .text._ZNK2bn13affine_bg_ptr7pivot_xEv
                0x00000000        0x8 bn_bgs_manager.o
 .text._ZN2bn13affine_bg_ptr11set_pivot_xENS_7fixed_tILi12EEE
                0x00000000       0x50 bn_bgs_manager.o
 .text._ZNK2bn13affine_bg_ptr7pivot_yEv
                0x00000000        0x8 bn_bgs_manager.o
 .text._ZN2bn13affine_bg_ptr11set_pivot_yENS_7fixed_tILi12EEE
                0x00000000       0x50 bn_bgs_manager.o
 .text._ZNK2bn13affine_bg_ptr14pivot_positionEv
                0x00000000        0x8 bn_bgs_manager.o
 .text._ZN2bn13affine_bg_ptr18set_pivot_positionENS_7fixed_tILi12EEES2_
                0x00000000       0x74 bn_bgs_manager.o
 .text._ZN2bn13affine_bg_ptr18set_pivot_positionERKNS_13fixed_point_tILi12EEE
                0x00000000       0x80 bn_bgs_manager.o
 .text._ZNK2bn13affine_bg_ptr14mat_attributesEv
                0x00000000        0x8 bn_bgs_manager.o
 .text._ZNK2bn13affine_bg_ptr8priorityEv
                0x00000000        0x8 bn_bgs_manager.o
 .text._ZNK2bn13affine_bg_ptr7z_orderEv
                0x00000000       0x14 bn_bgs_manager.o
 .text._ZNK2bn13affine_bg_ptr16wrapping_enabledEv
                0x00000000        0xc bn_bgs_manager.o
 .text._ZN2bn13affine_bg_ptr20set_wrapping_enabledEb
                0x00000000       0x50 bn_bgs_manager.o
 .text._ZNK2bn13affine_bg_ptr14mosaic_enabledEv
                0x00000000        0xc bn_bgs_manager.o
 .text._ZN2bn13affine_bg_ptr18set_mosaic_enabledEb
                0x00000000       0x48 bn_bgs_manager.o
 .text._ZNK2bn13affine_bg_ptr20blending_top_enabledEv
                0x00000000        0xc bn_bgs_manager.o
 .text._ZN2bn13affine_bg_ptr24set_blending_top_enabledEb
                0x00000000       0x3c bn_bgs_manager.o
 .text._ZNK2bn13affine_bg_ptr23blending_bottom_enabledEv
                0x00000000        0xc bn_bgs_manager.o
 .text._ZN2bn13affine_bg_ptr27set_blending_bottom_enabledEb
                0x00000000       0x3c bn_bgs_manager.o
 .text._ZNK2bn13affine_bg_ptr15green_swap_modeEv
                0x00000000        0xc bn_bgs_manager.o
 .text._ZN2bn13affine_bg_ptr19set_green_swap_modeENS_15green_swap_modeE
                0x00000000       0x48 bn_bgs_manager.o
 .text._ZNK2bn13affine_bg_ptr7visibleEv
                0x00000000        0xc bn_bgs_manager.o
 .text._ZN2bn13affine_bg_ptr11set_visibleEb
                0x00000000       0x30 bn_bgs_manager.o
 .text._ZNK2bn13affine_bg_ptr17visible_in_windowERKNS_6windowE
                0x00000000       0x14 bn_bgs_manager.o
 .text._ZN2bn13affine_bg_ptr21set_visible_in_windowEbRNS_6windowE
                0x00000000       0x14 bn_bgs_manager.o
 .text._ZNK2bn13affine_bg_ptr6cameraEv
                0x00000000        0x8 bn_bgs_manager.o
 .text._ZNK2bn14affine_bg_item10decompressENS_4spanINS_4tileEEENS1_INS_5colorEEENS1_IhEE
                0x00000000       0x6c bn_bgs_manager.o
 .text._ZNK2bn14affine_bg_item8find_mapEv
                0x00000000       0x10 bn_bgs_manager.o
 .text._ZNK2bn14affine_bg_item8find_mapEi
                0x00000000       0x10 bn_bgs_manager.o
 .text._ZNK2bn14affine_bg_item10create_mapEv
                0x00000000       0x10 bn_bgs_manager.o
 .text._ZNK2bn14affine_bg_item10create_mapEi
                0x00000000       0x10 bn_bgs_manager.o
 .text._ZNK2bn14affine_bg_item14create_new_mapEv
                0x00000000       0x10 bn_bgs_manager.o
 .text._ZNK2bn14affine_bg_item14create_new_mapEi
                0x00000000       0x10 bn_bgs_manager.o
 .text._ZNK2bn14affine_bg_item19create_map_optionalEv
                0x00000000       0x10 bn_bgs_manager.o
 .text._ZNK2bn14affine_bg_item19create_map_optionalEi
                0x00000000       0x10 bn_bgs_manager.o
 .text._ZNK2bn14affine_bg_item23create_new_map_optionalEv
                0x00000000       0x10 bn_bgs_manager.o
 .text._ZNK2bn14affine_bg_item23create_new_map_optionalEi
                0x00000000       0x10 bn_bgs_manager.o
 .text._ZN2bn17affine_bg_builder14release_cameraEv
                0x00000000       0x30 bn_bgs_manager.o
 .text._ZNK2bn17affine_bg_builder12map_optionalEv
                0x00000000       0x88 bn_bgs_manager.o
 .text._ZN2bn17affine_bg_builder20release_map_optionalEv
                0x00000000       0x9c bn_bgs_manager.o
 .text._ZN2bn14regular_bg_ptrC2ERKS0_
                0x00000000        0xc bn_bgs_manager.o
 .text._ZNK2bn14regular_bg_ptr3bigEv
                0x00000000        0xc bn_bgs_manager.o
 .text._ZNK2bn14regular_bg_ptr1xEv
                0x00000000        0x8 bn_bgs_manager.o
 .text._ZN2bn14regular_bg_ptr5set_xENS_7fixed_tILi12EEE
                0x00000000       0x60 bn_bgs_manager.o
 .text._ZNK2bn14regular_bg_ptr1yEv
                0x00000000        0x8 bn_bgs_manager.o
 .text._ZN2bn14regular_bg_ptr5set_yENS_7fixed_tILi12EEE
                0x00000000       0x60 bn_bgs_manager.o
 .text._ZNK2bn14regular_bg_ptr8positionEv
                0x00000000        0x8 bn_bgs_manager.o
 .text._ZN2bn14regular_bg_ptr12set_positionENS_7fixed_tILi12EEES2_
                0x00000000       0x70 bn_bgs_manager.o
 .text._ZN2bn14regular_bg_ptr12set_positionERKNS_13fixed_point_tILi12EEE
                0x00000000       0x78 bn_bgs_manager.o
 .text._ZNK2bn14regular_bg_ptr8priorityEv
                0x00000000        0x8 bn_bgs_manager.o
 .text._ZNK2bn14regular_bg_ptr7z_orderEv
                0x00000000       0x14 bn_bgs_manager.o
 .text._ZNK2bn14regular_bg_ptr14mosaic_enabledEv
                0x00000000        0xc bn_bgs_manager.o
 .text._ZN2bn14regular_bg_ptr18set_mosaic_enabledEb
                0x00000000       0x48 bn_bgs_manager.o
 .text._ZNK2bn14regular_bg_ptr20blending_top_enabledEv
                0x00000000        0xc bn_bgs_manager.o
 .text._ZN2bn14regular_bg_ptr24set_blending_top_enabledEb
                0x00000000       0x3c bn_bgs_manager.o
 .text._ZNK2bn14regular_bg_ptr23blending_bottom_enabledEv
                0x00000000        0xc bn_bgs_manager.o
 .text._ZN2bn14regular_bg_ptr27set_blending_bottom_enabledEb
                0x00000000       0x3c bn_bgs_manager.o
 .text._ZNK2bn14regular_bg_ptr15green_swap_modeEv
                0x00000000        0xc bn_bgs_manager.o
 .text._ZN2bn14regular_bg_ptr19set_green_swap_modeENS_15green_swap_modeE
                0x00000000       0x48 bn_bgs_manager.o
 .text._ZNK2bn14regular_bg_ptr7visibleEv
                0x00000000        0xc bn_bgs_manager.o
 .text._ZN2bn14regular_bg_ptr11set_visibleEb
                0x00000000       0x30 bn_bgs_manager.o
 .text._ZNK2bn14regular_bg_ptr17visible_in_windowERKNS_6windowE
                0x00000000       0x14 bn_bgs_manager.o
 .text._ZN2bn14regular_bg_ptr21set_visible_in_windowEbRNS_6windowE
                0x00000000       0x14 bn_bgs_manager.o
 .text._ZNK2bn14regular_bg_ptr6cameraEv
                0x00000000        0x8 bn_bgs_manager.o
 .text._ZNK2bn15regular_bg_item10decompressENS_4spanINS_4tileEEENS1_INS_5colorEEENS1_ItEE
                0x00000000       0x6c bn_bgs_manager.o
 .text._ZNK2bn15regular_bg_item8find_mapEv
                0x00000000       0x10 bn_bgs_manager.o
 .text._ZNK2bn15regular_bg_item8find_mapEi
                0x00000000       0x10 bn_bgs_manager.o
 .text._ZNK2bn15regular_bg_item10create_mapEv
                0x00000000       0x10 bn_bgs_manager.o
 .text._ZNK2bn15regular_bg_item10create_mapEi
                0x00000000       0x10 bn_bgs_manager.o
 .text._ZNK2bn15regular_bg_item14create_new_mapEv
                0x00000000       0x10 bn_bgs_manager.o
 .text._ZNK2bn15regular_bg_item14create_new_mapEi
                0x00000000       0x10 bn_bgs_manager.o
 .text._ZNK2bn15regular_bg_item19create_map_optionalEv
                0x00000000       0x10 bn_bgs_manager.o
 .text._ZNK2bn15regular_bg_item19create_map_optionalEi
                0x00000000       0x10 bn_bgs_manager.o
 .text._ZNK2bn15regular_bg_item23create_new_map_optionalEv
                0x00000000       0x10 bn_bgs_manager.o
 .text._ZNK2bn15regular_bg_item23create_new_map_optionalEi
                0x00000000       0x10 bn_bgs_manager.o
 .text._ZN2bn18regular_bg_builder14release_cameraEv
                0x00000000       0x30 bn_bgs_manager.o
 .text._ZNK2bn18regular_bg_builder12map_optionalEv
                0x00000000       0x80 bn_bgs_manager.o
 .text._ZN2bn18regular_bg_builder20release_map_optionalEv
                0x00000000       0x98 bn_bgs_manager.o
 .text._ZN2bn11bgs_manager10used_countEv
                0x00000000       0x10 bn_bgs_manager.o
 .text._ZN2bn11bgs_manager15available_countEv
                0x00000000       0x14 bn_bgs_manager.o
 .text._ZN2bn11bgs_manager15increase_usagesEPv
                0x00000000        0x8 bn_bgs_manager.o
 .text._ZN2bn11bgs_manager3bigEPv
                0x00000000        0xc bn_bgs_manager.o
 .text._ZN2bn11bgs_manager18remove_regular_mapEPv
                0x00000000       0x1c bn_bgs_manager.o
 .text._ZN2bn11bgs_manager17remove_affine_mapEPv
                0x00000000       0x1c bn_bgs_manager.o
 .text._ZN2bn11bgs_manager8positionEPv
                0x00000000        0x4 bn_bgs_manager.o
 .text._ZN2bn11bgs_manager13set_regular_xEPvNS_7fixed_tILi12EEE
                0x00000000       0x5c bn_bgs_manager.o
 .text._ZN2bn11bgs_manager12set_affine_xEPvNS_7fixed_tILi12EEE
                0x00000000       0x80 bn_bgs_manager.o
 .text._ZN2bn11bgs_manager13set_regular_yEPvNS_7fixed_tILi12EEE
                0x00000000       0x5c bn_bgs_manager.o
 .text._ZN2bn11bgs_manager12set_affine_yEPvNS_7fixed_tILi12EEE
                0x00000000       0x84 bn_bgs_manager.o
 .text._ZN2bn11bgs_manager20set_regular_positionEPvRKNS_13fixed_point_tILi12EEE
                0x00000000       0x74 bn_bgs_manager.o
 .text._ZN2bn11bgs_manager19set_affine_positionEPvRKNS_13fixed_point_tILi12EEE
                0x00000000       0xec bn_bgs_manager.o
 .text._ZN2bn13affine_bg_ptr12set_positionENS_7fixed_tILi12EEES2_
                0x00000000       0x18 bn_bgs_manager.o
 .text._ZN2bn13affine_bg_ptr12set_positionERKNS_13fixed_point_tILi12EEE
                0x00000000       0x10 bn_bgs_manager.o
 .text._ZN2bn11bgs_manager14rotation_angleEPv
                0x00000000        0x4 bn_bgs_manager.o
 .text._ZN2bn11bgs_manager16horizontal_scaleEPv
                0x00000000        0x4 bn_bgs_manager.o
 .text._ZN2bn11bgs_manager14vertical_scaleEPv
                0x00000000        0x4 bn_bgs_manager.o
 .text._ZN2bn11bgs_manager16horizontal_shearEPv
                0x00000000        0x4 bn_bgs_manager.o
 .text._ZN2bn11bgs_manager20set_horizontal_shearEPvNS_7fixed_tILi12EEE
                0x00000000       0x90 bn_bgs_manager.o
 .text._ZN2bn11bgs_manager14vertical_shearEPv
                0x00000000        0x4 bn_bgs_manager.o
 .text._ZN2bn11bgs_manager18set_vertical_shearEPvNS_7fixed_tILi12EEE
                0x00000000       0x90 bn_bgs_manager.o
 .text._ZN2bn11bgs_manager9set_shearEPvNS_7fixed_tILi12EEE
                0x00000000      0x11c bn_bgs_manager.o
 .text._ZN2bn13affine_bg_ptr9set_shearENS_7fixed_tILi12EEE
                0x00000000       0x10 bn_bgs_manager.o
 .text._ZN2bn11bgs_manager9set_shearEPvNS_7fixed_tILi12EEES3_
                0x00000000      0x11c bn_bgs_manager.o
 .text._ZN2bn13affine_bg_ptr9set_shearENS_7fixed_tILi12EEES2_
                0x00000000       0x10 bn_bgs_manager.o
 .text._ZN2bn11bgs_manager15horizontal_flipEPv
                0x00000000        0x8 bn_bgs_manager.o
 .text._ZN2bn11bgs_manager19set_horizontal_flipEPvb
                0x00000000       0xa0 bn_bgs_manager.o
 .text._ZN2bn11bgs_manager13vertical_flipEPv
                0x00000000        0x8 bn_bgs_manager.o
 .text._ZN2bn11bgs_manager17set_vertical_flipEPvb
                0x00000000       0xa0 bn_bgs_manager.o
 .text._ZN2bn11bgs_manager14pivot_positionEPv
                0x00000000        0x4 bn_bgs_manager.o
 .text._ZN2bn11bgs_manager11set_pivot_xEPvNS_7fixed_tILi12EEE
                0x00000000       0x4c bn_bgs_manager.o
 .text._ZN2bn11bgs_manager11set_pivot_yEPvNS_7fixed_tILi12EEE
                0x00000000       0x4c bn_bgs_manager.o
 .text._ZN2bn11bgs_manager18set_pivot_positionEPvRKNS_13fixed_point_tILi12EEE
                0x00000000       0x7c bn_bgs_manager.o
 .text._ZN2bn11bgs_manager18set_mat_attributesEPvRKNS_21affine_mat_attributesE
                0x00000000       0xf0 bn_bgs_manager.o
 .text._ZN2bn13affine_bg_ptr18set_mat_attributesERKNS_21affine_mat_attributesE
                0x00000000       0x10 bn_bgs_manager.o
 .text._ZN2bn11bgs_manager8priorityEPv
                0x00000000        0x8 bn_bgs_manager.o
 .text._ZN2bn11bgs_manager7z_orderEPv
                0x00000000       0x10 bn_bgs_manager.o
 .text._ZN2bn11bgs_manager9put_aboveEPv
                0x00000000       0x68 bn_bgs_manager.o
 .text._ZN2bn13affine_bg_ptr9put_aboveEv
                0x00000000       0x10 bn_bgs_manager.o
 .text._ZN2bn14regular_bg_ptr9put_aboveEv
                0x00000000       0x10 bn_bgs_manager.o
 .text._ZN2bn11bgs_manager9put_belowEPv
                0x00000000       0x6c bn_bgs_manager.o
 .text._ZN2bn13affine_bg_ptr9put_belowEv
                0x00000000       0x10 bn_bgs_manager.o
 .text._ZN2bn14regular_bg_ptr9put_belowEv
                0x00000000       0x10 bn_bgs_manager.o
 .text._ZN2bn11bgs_manager16wrapping_enabledEPv
                0x00000000        0xc bn_bgs_manager.o
 .text._ZN2bn11bgs_manager20set_wrapping_enabledEPvb
                0x00000000       0x4c bn_bgs_manager.o
 .text._ZN2bn11bgs_manager14mosaic_enabledEPv
                0x00000000        0xc bn_bgs_manager.o
 .text._ZN2bn11bgs_manager18set_mosaic_enabledEPvb
                0x00000000       0x44 bn_bgs_manager.o
 .text._ZN2bn11bgs_manager15green_swap_modeEPv
                0x00000000        0xc bn_bgs_manager.o
 .text._ZN2bn11bgs_manager19set_green_swap_modeEPvNS_15green_swap_modeE
                0x00000000       0x44 bn_bgs_manager.o
 .text._ZN2bn11bgs_manager20blending_top_enabledEPv
                0x00000000        0xc bn_bgs_manager.o
 .text._ZN2bn11bgs_manager24set_blending_top_enabledEPvb
                0x00000000       0x38 bn_bgs_manager.o
 .text._ZN2bn11bgs_manager23blending_bottom_enabledEPv
                0x00000000        0xc bn_bgs_manager.o
 .text._ZN2bn11bgs_manager27set_blending_bottom_enabledEPvb
                0x00000000       0x3c bn_bgs_manager.o
 .text._ZN2bn11bgs_manager7visibleEPv
                0x00000000        0xc bn_bgs_manager.o
 .text._ZN2bn11bgs_manager11set_visibleEPvb
                0x00000000       0x30 bn_bgs_manager.o
 .text._ZN2bn11bgs_manager14show_in_windowEPvi
                0x00000000        0x8 bn_bgs_manager.o
 .text._ZN2bn11bgs_manager18set_show_in_windowEPvib
                0x00000000       0x18 bn_bgs_manager.o
 .text._ZN2bn11bgs_manager22set_show_all_in_windowEib
                0x00000000       0x44 bn_bgs_manager.o
 .text._ZN2bn11bgs_manager6cameraEPv
                0x00000000        0x4 bn_bgs_manager.o
 .text._ZN2bn11bgs_manager10set_cameraEPvONS_10camera_ptrE
                0x00000000      0x17c bn_bgs_manager.o
 .text._ZN2bn13affine_bg_ptr10set_cameraERKNS_10camera_ptrE
                0x00000000       0x24 bn_bgs_manager.o
 .text._ZN2bn13affine_bg_ptr10set_cameraEONS_10camera_ptrE
                0x00000000       0x10 bn_bgs_manager.o
 .text._ZN2bn14regular_bg_ptr10set_cameraERKNS_10camera_ptrE
                0x00000000       0x24 bn_bgs_manager.o
 .text._ZN2bn14regular_bg_ptr10set_cameraEONS_10camera_ptrE
                0x00000000       0x10 bn_bgs_manager.o
 .text._ZN2bn11bgs_manager13remove_cameraEPv
                0x00000000      0x104 bn_bgs_manager.o
 .text._ZN2bn13affine_bg_ptr13remove_cameraEv
                0x00000000       0x10 bn_bgs_manager.o
 .text._ZN2bn14regular_bg_ptr13remove_cameraEv
                0x00000000       0x10 bn_bgs_manager.o
 .text._ZN2bn13affine_bg_ptr10set_cameraERKNS_8optionalINS_10camera_ptrEEE
                0x00000000       0x30 bn_bgs_manager.o
 .text._ZN2bn13affine_bg_ptr10set_cameraEONS_8optionalINS_10camera_ptrEEE
                0x00000000       0x1c bn_bgs_manager.o
 .text._ZN2bn14regular_bg_ptr10set_cameraERKNS_8optionalINS_10camera_ptrEEE
                0x00000000       0x30 bn_bgs_manager.o
 .text._ZN2bn14regular_bg_ptr10set_cameraEONS_8optionalINS_10camera_ptrEEE
                0x00000000       0x1c bn_bgs_manager.o
 .text._ZN2bn11bgs_manager27update_affine_map_tiles_cbbEii
                0x00000000       0xa8 bn_bgs_manager.o
 .text._ZN3_bn6assert9show_argsIA18_ciEEvPKcS4_S4_iRKT_RKT0_
                0x00000000       0x54 bn_bgs_manager.o
 .rodata._ZN2bn17affine_bg_builder11set_z_orderEi.str1.4
                0x00000000       0x7a bn_bgs_manager.o
 .text._ZN2bn17affine_bg_builder11set_z_orderEi
                0x00000000       0x48 bn_bgs_manager.o
 .rodata._ZN2bn18regular_bg_builder11set_z_orderEi.str1.4
                0x00000000       0x1c bn_bgs_manager.o
 .text._ZN2bn18regular_bg_builder11set_z_orderEi
                0x00000000       0x48 bn_bgs_manager.o
 .text._ZN3_bn6assert9show_argsIA16_ciEEvPKcS4_S4_iRKT_RKT0_
                0x00000000       0x54 bn_bgs_manager.o
 .text._ZN2bn11bgs_manager10dimensionsEPv
                0x00000000       0x64 bn_bgs_manager.o
 .text._ZNK2bn13affine_bg_ptr10dimensionsEv
                0x00000000       0x64 bn_bgs_manager.o
 .text._ZN2bn13affine_bg_ptr21set_top_left_positionENS_7fixed_tILi12EEES2_
                0x00000000       0x48 bn_bgs_manager.o
 .text._ZN2bn13affine_bg_ptr21set_top_left_positionERKNS_13fixed_point_tILi12EEE
                0x00000000       0x4c bn_bgs_manager.o
 .text._ZNK2bn14regular_bg_ptr10dimensionsEv
                0x00000000       0x64 bn_bgs_manager.o
 .text._ZN2bn14regular_bg_ptr21set_top_left_positionERKNS_13fixed_point_tILi12EEE
                0x00000000       0xa4 bn_bgs_manager.o
 .text._ZN2bn14regular_bg_ptr21set_top_left_positionENS_7fixed_tILi12EEES2_
                0x00000000       0xa0 bn_bgs_manager.o
 .text._ZNK2bn13affine_bg_ptr10top_left_xEv
                0x00000000       0x6c bn_bgs_manager.o
 .text._ZNK2bn14regular_bg_ptr10top_left_xEv
                0x00000000       0x6c bn_bgs_manager.o
 .text._ZNK2bn13affine_bg_ptr10top_left_yEv
                0x00000000       0x6c bn_bgs_manager.o
 .text._ZNK2bn14regular_bg_ptr10top_left_yEv
                0x00000000       0x6c bn_bgs_manager.o
 .text._ZN2bn13affine_bg_ptr14set_top_left_xENS_7fixed_tILi12EEE
                0x00000000       0x6c bn_bgs_manager.o
 .text._ZN2bn13affine_bg_ptr14set_top_left_yENS_7fixed_tILi12EEE
                0x00000000       0x6c bn_bgs_manager.o
 .text._ZNK2bn13affine_bg_ptr17top_left_positionEv
                0x00000000       0x7c bn_bgs_manager.o
 .text._ZNK2bn14regular_bg_ptr17top_left_positionEv
                0x00000000       0x7c bn_bgs_manager.o
 .text._ZN2bn14regular_bg_ptr14set_top_left_xENS_7fixed_tILi12EEE
                0x00000000       0xc0 bn_bgs_manager.o
 .text._ZN2bn14regular_bg_ptr14set_top_left_yENS_7fixed_tILi12EEE
                0x00000000       0xc0 bn_bgs_manager.o
 .text._ZN3_bn6assert9show_argsIA15_ciEEvPKcS4_S4_iRKT_RKT0_
                0x00000000       0x54 bn_bgs_manager.o
 .rodata._ZNK2bn14affine_bg_item10decompressENS_4spanINS_4tileEEENS1_INS_5colorEEERhRKNS_4sizeE.str1.4
                0x00000000       0x33 bn_bgs_manager.o
 .text._ZNK2bn14affine_bg_item10decompressENS_4spanINS_4tileEEENS1_INS_5colorEEERhRKNS_4sizeE
                0x00000000       0x70 bn_bgs_manager.o
 .text._ZNK2bn15regular_bg_item10decompressENS_4spanINS_4tileEEENS1_INS_5colorEEERtRKNS_4sizeE
                0x00000000       0x74 bn_bgs_manager.o
 .text._ZN3_bn6assert9show_argsIA33_cEEvPKcS4_S4_iRKT_
                0x00000000       0x48 bn_bgs_manager.o
 .text._ZN3_bn6assert9show_argsIJA20_ciA4_ciEEEvPKcS5_S5_iDpRKT_
                0x00000000       0x64 bn_bgs_manager.o
 .text._ZN2bn17affine_bg_builderC2ERKNS_14affine_bg_itemEi
                0x00000000       0xc4 bn_bgs_manager.o
 .rodata._ZN2bn18regular_bg_builderC2ERKNS_15regular_bg_itemEi.str1.4
                0x00000000       0x13 bn_bgs_manager.o
 .text._ZN2bn18regular_bg_builderC2ERKNS_15regular_bg_itemEi
                0x00000000       0x80 bn_bgs_manager.o
 .text._ZN3_bn6assert9show_argsIA19_ciEEvPKcS4_S4_iRKT_RKT0_
                0x00000000       0x54 bn_bgs_manager.o
 .text._ZN2bn17affine_bg_builder12set_priorityEi
                0x00000000       0x38 bn_bgs_manager.o
 .rodata._ZN2bn20affine_bg_attributesC2ERKNS_17affine_bg_map_ptrEibb.str1.4
                0x00000000       0x36 bn_bgs_manager.o
 .text._ZN2bn20affine_bg_attributesC2ERKNS_17affine_bg_map_ptrEibb
                0x00000000       0x50 bn_bgs_manager.o
 .text._ZN2bn20affine_bg_attributesC2ERKNS_17affine_bg_map_ptrEibbNS_15green_swap_modeE
                0x00000000       0x54 bn_bgs_manager.o
 .text._ZN2bn20affine_bg_attributesC2EONS_17affine_bg_map_ptrEibb
                0x00000000       0x50 bn_bgs_manager.o
 .text._ZN2bn20affine_bg_attributesC2EONS_17affine_bg_map_ptrEibbNS_15green_swap_modeE
                0x00000000       0x54 bn_bgs_manager.o
 .text._ZN2bn20affine_bg_attributes12set_priorityEi
                0x00000000       0x38 bn_bgs_manager.o
 .text._ZN2bn18regular_bg_builder12set_priorityEi
                0x00000000       0x38 bn_bgs_manager.o
 .rodata._ZN2bn21regular_bg_attributesC2ERKNS_18regular_bg_map_ptrEib.str1.4
                0x00000000       0x37 bn_bgs_manager.o
 .text._ZN2bn21regular_bg_attributesC2ERKNS_18regular_bg_map_ptrEib
                0x00000000       0x4c bn_bgs_manager.o
 .text._ZN2bn21regular_bg_attributesC2ERKNS_18regular_bg_map_ptrEibNS_15green_swap_modeE
                0x00000000       0x4c bn_bgs_manager.o
 .text._ZN2bn21regular_bg_attributesC2EONS_18regular_bg_map_ptrEib
                0x00000000       0x4c bn_bgs_manager.o
 .text._ZN2bn21regular_bg_attributesC2EONS_18regular_bg_map_ptrEibNS_15green_swap_modeE
                0x00000000       0x4c bn_bgs_manager.o
 .text._ZN2bn21regular_bg_attributes12set_priorityEi
                0x00000000       0x38 bn_bgs_manager.o
 .text._ZN3_bn6assert9show_argsIA45_cEEvPKcS4_S4_iRKT_
                0x00000000       0x48 bn_bgs_manager.o
 .text._ZN3_bn6assert9show_argsIA25_cEEvPKcS4_S4_iRKT_
                0x00000000       0x48 bn_bgs_manager.o
 .text._ZN3_bn6assert9show_argsIA31_cEEvPKcS4_S4_iRKT_
                0x00000000       0x48 bn_bgs_manager.o
 .text._ZN2bn11bgs_manager15rebuild_handlesEv
                0x00000000       0x1c bn_bgs_manager.o
 .text._ZNK2bn13affine_bg_ptr5hw_idEv
                0x00000000       0x3c bn_bgs_manager.o
 .text._ZNK2bn14regular_bg_ptr5hw_idEv
                0x00000000       0x3c bn_bgs_manager.o
 .text._ZN2bn13ostringstream6appendILi12EEEvNS_7fixed_tIXT_EEE
                0x00000000       0xa0 bn_bgs_manager.o
 .rodata._ZN2bn11bgs_manager9set_scaleEPvNS_7fixed_tILi12EEE.str1.4
                0x00000000       0x44 bn_bgs_manager.o
 .text._ZN2bn11bgs_manager9set_scaleEPvNS_7fixed_tILi12EEE
                0x00000000      0x19c bn_bgs_manager.o
 .text._ZN2bn13affine_bg_ptr9set_scaleENS_7fixed_tILi12EEE
                0x00000000       0x10 bn_bgs_manager.o
 .rodata._ZN2bn11bgs_manager18set_rotation_angleEPvNS_7fixed_tILi12EEE.str1.4
                0x00000000       0x76 bn_bgs_manager.o
 .text._ZN2bn11bgs_manager18set_rotation_angleEPvNS_7fixed_tILi12EEE
                0x00000000      0x184 bn_bgs_manager.o
 .text._ZN2bn13affine_bg_ptr18set_rotation_angleENS_7fixed_tILi12EEE
                0x00000000       0x10 bn_bgs_manager.o
 .text._ZN2bn13affine_bg_ptr23set_rotation_angle_safeENS_7fixed_tILi12EEE
                0x00000000       0x2c bn_bgs_manager.o
 .text._ZN3_bn6assert9show_argsIA27_cN2bn7fixed_tILi12EEEEEvPKcS7_S7_iRKT_RKT0_
                0x00000000       0x54 bn_bgs_manager.o
 .rodata._ZN2bn11bgs_manager20set_horizontal_scaleEPvNS_7fixed_tILi12EEE.str1.4
                0x00000000       0x4b bn_bgs_manager.o
 .text._ZN2bn11bgs_manager20set_horizontal_scaleEPvNS_7fixed_tILi12EEE
                0x00000000      0x104 bn_bgs_manager.o
 .text._ZN2bn13affine_bg_ptr20set_horizontal_scaleENS_7fixed_tILi12EEE
                0x00000000       0x10 bn_bgs_manager.o
 .text._ZN3_bn6assert9show_argsIA25_cN2bn7fixed_tILi12EEEEEvPKcS7_S7_iRKT_RKT0_
                0x00000000       0x54 bn_bgs_manager.o
 .rodata._ZN2bn11bgs_manager18set_vertical_scaleEPvNS_7fixed_tILi12EEE.str1.4
                0x00000000       0x41 bn_bgs_manager.o
 .text._ZN2bn11bgs_manager18set_vertical_scaleEPvNS_7fixed_tILi12EEE
                0x00000000      0x108 bn_bgs_manager.o
 .text._ZN2bn13affine_bg_ptr18set_vertical_scaleENS_7fixed_tILi12EEE
                0x00000000       0x10 bn_bgs_manager.o
 .text._ZN2bn11bgs_manager9set_scaleEPvNS_7fixed_tILi12EEES3_
                0x00000000      0x210 bn_bgs_manager.o
 .text._ZN2bn13affine_bg_ptr9set_scaleENS_7fixed_tILi12EEES2_
                0x00000000       0x10 bn_bgs_manager.o
 .text._ZN3_bn6assert9show_argsIA22_cEEvPKcS4_S4_iRKT_
                0x00000000       0x48 bn_bgs_manager.o
 .text._ZNK2bn18regular_bg_builder11_dimensionsEv
                0x00000000       0x50 bn_bgs_manager.o
 .text._ZNK2bn17affine_bg_builder11_dimensionsEv
                0x00000000       0x54 bn_bgs_manager.o
 .text._ZN2bn11bgs_manager15set_regular_mapEPvRKNS_18regular_bg_map_ptrE
                0x00000000       0xb8 bn_bgs_manager.o
 .text._ZN2bn14regular_bg_ptr7set_mapERKNS_18regular_bg_map_ptrE
                0x00000000       0x10 bn_bgs_manager.o
 .text._ZN2bn11bgs_manager15set_regular_mapEPvONS_18regular_bg_map_ptrE
                0x00000000       0xb4 bn_bgs_manager.o
 .text._ZN2bn14regular_bg_ptr7set_mapEONS_18regular_bg_map_ptrE
                0x00000000       0x10 bn_bgs_manager.o
 .text._ZN2bn17affine_bg_builder11release_mapEv
                0x00000000       0x70 bn_bgs_manager.o
 .text._ZNK2bn17affine_bg_builder10top_left_xEv
                0x00000000       0x60 bn_bgs_manager.o
 .text._ZN2bn17affine_bg_builder14set_top_left_xENS_7fixed_tILi12EEE
                0x00000000       0x64 bn_bgs_manager.o
 .text._ZNK2bn17affine_bg_builder10top_left_yEv
                0x00000000       0x60 bn_bgs_manager.o
 .text._ZN2bn17affine_bg_builder14set_top_left_yENS_7fixed_tILi12EEE
                0x00000000       0x68 bn_bgs_manager.o
 .text._ZNK2bn18regular_bg_builder10top_left_xEv
                0x00000000       0x5c bn_bgs_manager.o
 .text._ZN2bn18regular_bg_builder14set_top_left_xENS_7fixed_tILi12EEE
                0x00000000       0x64 bn_bgs_manager.o
 .text._ZNK2bn18regular_bg_builder10top_left_yEv
                0x00000000       0x60 bn_bgs_manager.o
 .text._ZN2bn18regular_bg_builder14set_top_left_yENS_7fixed_tILi12EEE
                0x00000000       0x64 bn_bgs_manager.o
 .text._ZNK2bn17affine_bg_builder17top_left_positionEv
                0x00000000       0x7c bn_bgs_manager.o
 .text._ZN2bn17affine_bg_builder21set_top_left_positionENS_7fixed_tILi12EEES2_
                0x00000000       0x7c bn_bgs_manager.o
 .text._ZN2bn17affine_bg_builder21set_top_left_positionERKNS_13fixed_point_tILi12EEE
                0x00000000       0x80 bn_bgs_manager.o
 .text._ZNK2bn18regular_bg_builder17top_left_positionEv
                0x00000000       0x7c bn_bgs_manager.o
 .text._ZN2bn18regular_bg_builder21set_top_left_positionENS_7fixed_tILi12EEES2_
                0x00000000       0x7c bn_bgs_manager.o
 .text._ZN2bn18regular_bg_builder21set_top_left_positionERKNS_13fixed_point_tILi12EEE
                0x00000000       0x7c bn_bgs_manager.o
 .text._ZNK2bn13affine_bg_ptr3mapEv
                0x00000000       0x38 bn_bgs_manager.o
 .text._ZNK2bn14regular_bg_ptr3mapEv
                0x00000000       0x38 bn_bgs_manager.o
 .text._ZNK2bn13affine_bg_ptr5tilesEv
                0x00000000       0x3c bn_bgs_manager.o
 .text._ZNK2bn13affine_bg_ptr7paletteEv
                0x00000000       0x3c bn_bgs_manager.o
 .text._ZNK2bn14regular_bg_ptr5tilesEv
                0x00000000       0x3c bn_bgs_manager.o
 .text._ZNK2bn14regular_bg_ptr7paletteEv
                0x00000000       0x3c bn_bgs_manager.o
 .text._ZN2bn13affine_bg_ptr9set_tilesERKNS_19affine_bg_tiles_ptrE
                0x00000000       0x50 bn_bgs_manager.o
 .text._ZN2bn13affine_bg_ptr9set_tilesEONS_19affine_bg_tiles_ptrE
                0x00000000       0x50 bn_bgs_manager.o
 .text._ZN2bn13affine_bg_ptr9set_tilesERKNS_20affine_bg_tiles_itemE
                0x00000000       0x50 bn_bgs_manager.o
 .text._ZN2bn13affine_bg_ptr11set_paletteERKNS_14bg_palette_ptrE
                0x00000000       0x50 bn_bgs_manager.o
 .text._ZN2bn13affine_bg_ptr11set_paletteEONS_14bg_palette_ptrE
                0x00000000       0x50 bn_bgs_manager.o
 .text._ZN2bn13affine_bg_ptr11set_paletteERKNS_15bg_palette_itemE
                0x00000000       0x50 bn_bgs_manager.o
 .text._ZN2bn14regular_bg_ptr9set_tilesERKNS_20regular_bg_tiles_ptrE
                0x00000000       0x50 bn_bgs_manager.o
 .text._ZN2bn14regular_bg_ptr9set_tilesEONS_20regular_bg_tiles_ptrE
                0x00000000       0x50 bn_bgs_manager.o
 .text._ZN2bn14regular_bg_ptr9set_tilesERKNS_21regular_bg_tiles_itemE
                0x00000000       0x50 bn_bgs_manager.o
 .text._ZN2bn14regular_bg_ptr11set_paletteERKNS_14bg_palette_ptrE
                0x00000000       0x50 bn_bgs_manager.o
 .text._ZN2bn14regular_bg_ptr11set_paletteEONS_14bg_palette_ptrE
                0x00000000       0x50 bn_bgs_manager.o
 .text._ZN2bn14regular_bg_ptr11set_paletteERKNS_15bg_palette_itemE
                0x00000000       0x50 bn_bgs_manager.o
 .text._ZN2bn14regular_bg_ptr21set_tiles_and_paletteERKNS_21regular_bg_tiles_itemERKNS_15bg_palette_itemE
                0x00000000       0x54 bn_bgs_manager.o
 .text._ZNK2bn14regular_bg_ptr10attributesEv
                0x00000000       0x84 bn_bgs_manager.o
 .text._ZN2bn14regular_bg_ptr21set_tiles_and_paletteENS_20regular_bg_tiles_ptrENS_14bg_palette_ptrE
                0x00000000       0x74 bn_bgs_manager.o
 .text._ZN2bn11bgs_manager18regular_attributesEPv
                0x00000000       0x84 bn_bgs_manager.o
 .text._ZN2bn11bgs_manager17affine_attributesEPv
                0x00000000       0x88 bn_bgs_manager.o
 .text._ZNK2bn13affine_bg_ptr10attributesEv
                0x00000000       0x8c bn_bgs_manager.o
 .text._ZNK2bn17affine_bg_builder3mapEv
                0x00000000       0x58 bn_bgs_manager.o
 .text._ZNK2bn18regular_bg_builder3mapEv
                0x00000000       0x50 bn_bgs_manager.o
 .text._ZN2bn14regular_bg_ptr7set_mapERKNS_19regular_bg_map_itemE
                0x00000000      0x11c bn_bgs_manager.o
 .text._ZN2bn14regular_bg_ptr7set_mapERKNS_19regular_bg_map_itemEi
                0x00000000      0x12c bn_bgs_manager.o
 .text._ZN2bn14regular_bg_ptr8set_itemERKNS_15regular_bg_itemE
                0x00000000      0x144 bn_bgs_manager.o
 .text._ZN2bn14regular_bg_ptr8set_itemERKNS_15regular_bg_itemEi
                0x00000000      0x150 bn_bgs_manager.o
 .text._ZN3_bn6assert9show_argsIA17_cN2bn7fixed_tILi12EEEEEvPKcS7_S7_iRKT_RKT0_
                0x00000000       0x54 bn_bgs_manager.o
 .text._ZN2bn11bgs_manager12_GLOBAL__N_19item_type17update_affine_mapEb
                0x00000000      0x27c bn_bgs_manager.o
 .rodata._ZN2bn11bgs_manager14set_affine_mapEPvRKNS_17affine_bg_map_ptrE.str1.4
                0x00000000       0x3d bn_bgs_manager.o
 .text._ZN2bn11bgs_manager14set_affine_mapEPvRKNS_17affine_bg_map_ptrE
                0x00000000       0xac bn_bgs_manager.o
 .text._ZN2bn13affine_bg_ptr7set_mapERKNS_17affine_bg_map_ptrE
                0x00000000       0x10 bn_bgs_manager.o
 .text._ZN2bn11bgs_manager14set_affine_mapEPvONS_17affine_bg_map_ptrE
                0x00000000       0xac bn_bgs_manager.o
 .text._ZN2bn13affine_bg_ptr7set_mapEONS_17affine_bg_map_ptrE
                0x00000000       0x10 bn_bgs_manager.o
 .text._ZN2bn13affine_bg_ptr7set_mapERKNS_18affine_bg_map_itemE
                0x00000000      0x11c bn_bgs_manager.o
 .text._ZN2bn13affine_bg_ptr7set_mapERKNS_18affine_bg_map_itemEi
                0x00000000      0x12c bn_bgs_manager.o
 .text._ZN2bn13affine_bg_ptr8set_itemERKNS_14affine_bg_itemE
                0x00000000      0x14c bn_bgs_manager.o
 .text._ZN2bn13affine_bg_ptr8set_itemERKNS_14affine_bg_itemEi
                0x00000000      0x158 bn_bgs_manager.o
 .text._ZN2bn11bgs_manager12_GLOBAL__N_19item_typeC2EONS_17affine_bg_builderEONS_17affine_bg_map_ptrE.isra.0
                0x00000000      0x224 bn_bgs_manager.o
 .text._ZN3_bn6assert9show_argsIA17_cEEvPKcS4_S4_iRKT_
                0x00000000       0x48 bn_bgs_manager.o
 .text._ZN3_bn6assert9show_argsIA15_cEEvPKcS4_S4_iRKT_
                0x00000000       0x48 bn_bgs_manager.o
 .text._ZN2bn11bgs_manager15create_optionalEONS_18regular_bg_builderE
                0x00000000      0x1f8 bn_bgs_manager.o
 .text._ZN2bn11bgs_manager6createEONS_17affine_bg_builderE
                0x00000000       0xc8 bn_bgs_manager.o
 .text._ZN2bn13affine_bg_ptr6createERKNS_14affine_bg_itemE
                0x00000000       0xac bn_bgs_manager.o
 .text._ZN2bn13affine_bg_ptr6createENS_17affine_bg_map_ptrE
                0x00000000       0xac bn_bgs_manager.o
 .text._ZN2bn13affine_bg_ptr6createENS_7fixed_tILi12EEES2_RKNS_14affine_bg_itemE
                0x00000000       0xc0 bn_bgs_manager.o
 .text._ZN2bn13affine_bg_ptr6createERKNS_13fixed_point_tILi12EEERKNS_14affine_bg_itemE
                0x00000000       0xb0 bn_bgs_manager.o
 .text._ZN2bn13affine_bg_ptr6createENS_7fixed_tILi12EEES2_NS_17affine_bg_map_ptrE
                0x00000000       0xb8 bn_bgs_manager.o
 .text._ZN2bn13affine_bg_ptr6createERKNS_13fixed_point_tILi12EEENS_17affine_bg_map_ptrE
                0x00000000       0xac bn_bgs_manager.o
 .text._ZN2bn13affine_bg_ptr6createERKNS_17affine_bg_builderE
                0x00000000       0xc4 bn_bgs_manager.o
 .text._ZNK2bn17affine_bg_builder5buildEv
                0x00000000       0x10 bn_bgs_manager.o
 .text._ZN2bn13affine_bg_ptr6createEONS_17affine_bg_builderE
                0x00000000       0x14 bn_bgs_manager.o
 .text._ZN2bn17affine_bg_builder13release_buildEv
                0x00000000       0x14 bn_bgs_manager.o
 .text._ZN2bn13affine_bg_ptr6createERKNS_14affine_bg_itemEi
                0x00000000       0xfc bn_bgs_manager.o
 .text._ZN2bn13affine_bg_ptr6createENS_7fixed_tILi12EEES2_RKNS_14affine_bg_itemEi
                0x00000000      0x114 bn_bgs_manager.o
 .text._ZN2bn13affine_bg_ptr6createERKNS_13fixed_point_tILi12EEERKNS_14affine_bg_itemEi
                0x00000000      0x10c bn_bgs_manager.o
 .text._ZNK2bn14affine_bg_item9create_bgENS_7fixed_tILi12EEES2_i
                0x00000000      0x114 bn_bgs_manager.o
 .text._ZNK2bn14affine_bg_item9create_bgEi
                0x00000000       0xfc bn_bgs_manager.o
 .text._ZNK2bn14affine_bg_item9create_bgENS_7fixed_tILi12EEES2_
                0x00000000       0xc0 bn_bgs_manager.o
 .text._ZNK2bn14affine_bg_item9create_bgEv
                0x00000000       0xac bn_bgs_manager.o
 .text._ZNK2bn14affine_bg_item9create_bgERKNS_13fixed_point_tILi12EEEi
                0x00000000      0x10c bn_bgs_manager.o
 .text._ZNK2bn14affine_bg_item9create_bgERKNS_13fixed_point_tILi12EEE
                0x00000000       0xb0 bn_bgs_manager.o
 .text._ZN2bn11bgs_manager15create_optionalEONS_17affine_bg_builderE
                0x00000000       0xc4 bn_bgs_manager.o
 .text._ZN2bn14regular_bg_ptr6createERKNS_15regular_bg_itemE
                0x00000000       0x74 bn_bgs_manager.o
 .text._ZN2bn14regular_bg_ptr6createENS_18regular_bg_map_ptrE
                0x00000000       0x7c bn_bgs_manager.o
 .text._ZN2bn14regular_bg_ptr6createENS_7fixed_tILi12EEES2_RKNS_15regular_bg_itemE
                0x00000000       0x78 bn_bgs_manager.o
 .text._ZN2bn14regular_bg_ptr6createERKNS_13fixed_point_tILi12EEERKNS_15regular_bg_itemE
                0x00000000       0x78 bn_bgs_manager.o
 .text._ZN2bn14regular_bg_ptr6createENS_7fixed_tILi12EEES2_NS_18regular_bg_map_ptrE
                0x00000000       0x74 bn_bgs_manager.o
 .text._ZN2bn14regular_bg_ptr6createERKNS_13fixed_point_tILi12EEENS_18regular_bg_map_ptrE
                0x00000000       0x80 bn_bgs_manager.o
 .text._ZN2bn14regular_bg_ptr6createERKNS_18regular_bg_builderE
                0x00000000       0xa0 bn_bgs_manager.o
 .text._ZNK2bn18regular_bg_builder5buildEv
                0x00000000       0x10 bn_bgs_manager.o
 .text._ZN2bn14regular_bg_ptr6createEONS_18regular_bg_builderE
                0x00000000       0x14 bn_bgs_manager.o
 .text._ZN2bn18regular_bg_builder13release_buildEv
                0x00000000       0x14 bn_bgs_manager.o
 .text._ZN2bn14regular_bg_ptr6createERKNS_15regular_bg_itemEi
                0x00000000       0xc0 bn_bgs_manager.o
 .text._ZN2bn14regular_bg_ptr6createENS_7fixed_tILi12EEES2_RKNS_15regular_bg_itemEi
                0x00000000       0xd0 bn_bgs_manager.o
 .text._ZN2bn14regular_bg_ptr6createERKNS_13fixed_point_tILi12EEERKNS_15regular_bg_itemEi
                0x00000000       0xc8 bn_bgs_manager.o
 .text._ZNK2bn15regular_bg_item9create_bgENS_7fixed_tILi12EEES2_i
                0x00000000       0xd0 bn_bgs_manager.o
 .text._ZNK2bn15regular_bg_item9create_bgEi
                0x00000000       0xc0 bn_bgs_manager.o
 .text._ZNK2bn15regular_bg_item9create_bgEv
                0x00000000       0x74 bn_bgs_manager.o
 .text._ZNK2bn15regular_bg_item9create_bgERKNS_13fixed_point_tILi12EEEi
                0x00000000       0xc8 bn_bgs_manager.o
 .text._ZNK2bn15regular_bg_item9create_bgERKNS_13fixed_point_tILi12EEE
                0x00000000       0x78 bn_bgs_manager.o
 .text._ZN3_bn6assert9show_argsIA14_cEEvPKcS4_S4_iRKT_
                0x00000000       0x48 bn_bgs_manager.o
 .text._ZN3_bn6assert9show_argsIJA23_ciA4_ciEEEvPKcS5_S5_iDpRKT_
                0x00000000       0x64 bn_bgs_manager.o
 .text._ZN2bn13affine_bg_ptraSERKS0_
                0x00000000       0x28 bn_bgs_manager.o
 .text._ZN2bn13affine_bg_ptrD2Ev
                0x00000000       0x18 bn_bgs_manager.o
 .text._ZN2bn13affine_bg_ptr15create_optionalERKNS_14affine_bg_itemE
                0x00000000       0xd0 bn_bgs_manager.o
 .text._ZNK2bn14affine_bg_item18create_bg_optionalEv
                0x00000000       0x10 bn_bgs_manager.o
 .text._ZN2bn13affine_bg_ptr15create_optionalERKNS_14affine_bg_itemEi
                0x00000000      0x128 bn_bgs_manager.o
 .text._ZNK2bn14affine_bg_item18create_bg_optionalEi
                0x00000000       0x10 bn_bgs_manager.o
 .text._ZN2bn13affine_bg_ptr15create_optionalENS_17affine_bg_map_ptrE
                0x00000000       0xcc bn_bgs_manager.o
 .text._ZN2bn13affine_bg_ptr15create_optionalENS_7fixed_tILi12EEES2_RKNS_14affine_bg_itemE
                0x00000000       0xf0 bn_bgs_manager.o
 .text._ZN2bn13affine_bg_ptr15create_optionalENS_7fixed_tILi12EEES2_RKNS_14affine_bg_itemEi
                0x00000000      0x140 bn_bgs_manager.o
 .text._ZNK2bn14affine_bg_item18create_bg_optionalENS_7fixed_tILi12EEES2_i
                0x00000000       0x24 bn_bgs_manager.o
 .text._ZN2bn13affine_bg_ptr15create_optionalERKNS_13fixed_point_tILi12EEERKNS_14affine_bg_itemE
                0x00000000       0xe4 bn_bgs_manager.o
 .text._ZNK2bn14affine_bg_item18create_bg_optionalERKNS_13fixed_point_tILi12EEE
                0x00000000       0x18 bn_bgs_manager.o
 .text._ZN2bn13affine_bg_ptr15create_optionalERKNS_13fixed_point_tILi12EEERKNS_14affine_bg_itemEi
                0x00000000      0x140 bn_bgs_manager.o
 .text._ZNK2bn14affine_bg_item18create_bg_optionalERKNS_13fixed_point_tILi12EEEi
                0x00000000       0x18 bn_bgs_manager.o
 .text._ZN2bn13affine_bg_ptr15create_optionalENS_7fixed_tILi12EEES2_NS_17affine_bg_map_ptrE
                0x00000000       0xe4 bn_bgs_manager.o
 .text._ZN2bn13affine_bg_ptr15create_optionalERKNS_13fixed_point_tILi12EEENS_17affine_bg_map_ptrE
                0x00000000       0xdc bn_bgs_manager.o
 .text._ZN2bn13affine_bg_ptr15create_optionalERKNS_17affine_bg_builderE
                0x00000000       0xe8 bn_bgs_manager.o
 .text._ZNK2bn17affine_bg_builder14build_optionalEv
                0x00000000       0x10 bn_bgs_manager.o
 .text._ZN2bn13affine_bg_ptr15create_optionalEONS_17affine_bg_builderE
                0x00000000       0x3c bn_bgs_manager.o
 .text._ZN2bn14regular_bg_ptraSERKS0_
                0x00000000       0x28 bn_bgs_manager.o
 .text._ZN2bn14regular_bg_ptr15create_optionalERKNS_15regular_bg_itemE
                0x00000000       0x98 bn_bgs_manager.o
 .text._ZNK2bn15regular_bg_item18create_bg_optionalEv
                0x00000000       0x10 bn_bgs_manager.o
 .text._ZN2bn14regular_bg_ptr15create_optionalERKNS_15regular_bg_itemEi
                0x00000000       0xe8 bn_bgs_manager.o
 .text._ZNK2bn15regular_bg_item18create_bg_optionalEi
                0x00000000       0x10 bn_bgs_manager.o
 .text._ZN2bn14regular_bg_ptr15create_optionalENS_18regular_bg_map_ptrE
                0x00000000       0x9c bn_bgs_manager.o
 .text._ZN2bn14regular_bg_ptr15create_optionalENS_7fixed_tILi12EEES2_RKNS_15regular_bg_itemE
                0x00000000       0xb4 bn_bgs_manager.o
 .text._ZN2bn14regular_bg_ptr15create_optionalENS_7fixed_tILi12EEES2_RKNS_15regular_bg_itemEi
                0x00000000      0x108 bn_bgs_manager.o
 .text._ZNK2bn15regular_bg_item18create_bg_optionalENS_7fixed_tILi12EEES2_i
                0x00000000       0x24 bn_bgs_manager.o
 .text._ZN2bn14regular_bg_ptr15create_optionalERKNS_13fixed_point_tILi12EEERKNS_15regular_bg_itemE
                0x00000000       0xa4 bn_bgs_manager.o
 .text._ZNK2bn15regular_bg_item18create_bg_optionalERKNS_13fixed_point_tILi12EEE
                0x00000000       0x18 bn_bgs_manager.o
 .text._ZN2bn14regular_bg_ptr15create_optionalERKNS_13fixed_point_tILi12EEERKNS_15regular_bg_itemEi
                0x00000000      0x108 bn_bgs_manager.o
 .text._ZNK2bn15regular_bg_item18create_bg_optionalERKNS_13fixed_point_tILi12EEEi
                0x00000000       0x18 bn_bgs_manager.o
 .text._ZN2bn14regular_bg_ptr15create_optionalENS_7fixed_tILi12EEES2_NS_18regular_bg_map_ptrE
                0x00000000       0xac bn_bgs_manager.o
 .text._ZN2bn14regular_bg_ptr15create_optionalERKNS_13fixed_point_tILi12EEENS_18regular_bg_map_ptrE
                0x00000000       0xac bn_bgs_manager.o
 .text._ZN2bn14regular_bg_ptr15create_optionalERKNS_18regular_bg_builderE
                0x00000000       0xc4 bn_bgs_manager.o
 .text._ZNK2bn18regular_bg_builder14build_optionalEv
                0x00000000       0x10 bn_bgs_manager.o
 .text._ZN2bn14regular_bg_ptr15create_optionalEONS_18regular_bg_builderE
                0x00000000       0x3c bn_bgs_manager.o
 .text._ZN2bn17affine_bg_builder22release_build_optionalEv
                0x00000000       0x3c bn_bgs_manager.o
 .text._ZN2bn18regular_bg_builder22release_build_optionalEv
                0x00000000       0x3c bn_bgs_manager.o
 .text._ZNK2bn14affine_bg_item18create_bg_optionalENS_7fixed_tILi12EEES2_
                0x00000000       0xf0 bn_bgs_manager.o
 .text._ZNK2bn15regular_bg_item18create_bg_optionalENS_7fixed_tILi12EEES2_
                0x00000000       0xb4 bn_bgs_manager.o
 .text._ZN2bn11bgs_manager12set_priorityEPvi
                0x00000000       0x68 bn_bgs_manager.o
 .text._ZN2bn11bgs_manager22set_regular_attributesEPvRKNS_21regular_bg_attributesE
                0x00000000       0x84 bn_bgs_manager.o
 .text._ZN2bn11bgs_manager21set_affine_attributesEPvRKNS_20affine_bg_attributesE
                0x00000000       0xf8 bn_bgs_manager.o
 .text._ZN2bn13affine_bg_ptr14set_attributesERKNS_20affine_bg_attributesE
                0x00000000       0x10 bn_bgs_manager.o
 .text._ZN2bn14regular_bg_ptr14set_attributesERKNS_21regular_bg_attributesE
                0x00000000       0x88 bn_bgs_manager.o
 .text._ZN2bn11bgs_manager11set_z_orderEPvi
                0x00000000       0x70 bn_bgs_manager.o
 .text._ZN2bn13affine_bg_ptr11set_z_orderEi
                0x00000000       0x70 bn_bgs_manager.o
 .text._ZN2bn14regular_bg_ptr11set_z_orderEi
                0x00000000       0x70 bn_bgs_manager.o
 .text._ZN2bn13affine_bg_ptr12set_priorityEi
                0x00000000       0x68 bn_bgs_manager.o
 .group         0x00000000        0xc bn_cameras_manager.o
 .text          0x00000000        0x0 bn_cameras_manager.o
 .data          0x00000000        0x0 bn_cameras_manager.o
 .bss           0x00000000        0x0 bn_cameras_manager.o
 .text._ZN2bn7cameras16used_items_countEv
                0x00000000       0x10 bn_cameras_manager.o
 .text._ZN2bn7cameras21available_items_countEv
                0x00000000        0xc bn_cameras_manager.o
 .text._ZN2bn10camera_ptr15create_optionalEv
                0x00000000       0x38 bn_cameras_manager.o
 .text._ZN2bn10camera_ptr15create_optionalENS_7fixed_tILi12EEES2_
                0x00000000       0x3c bn_cameras_manager.o
 .text._ZN2bn10camera_ptr15create_optionalERKNS_13fixed_point_tILi12EEE
                0x00000000       0x3c bn_cameras_manager.o
 .text._ZNK2bn10camera_ptr1xEv
                0x00000000       0x14 bn_cameras_manager.o
 .text._ZN2bn10camera_ptr5set_xENS_7fixed_tILi12EEE
                0x00000000       0x24 bn_cameras_manager.o
 .text._ZNK2bn10camera_ptr1yEv
                0x00000000       0x18 bn_cameras_manager.o
 .text._ZN2bn10camera_ptr5set_yENS_7fixed_tILi12EEE
                0x00000000       0x24 bn_cameras_manager.o
 .text._ZN2bn10camera_ptr12set_positionENS_7fixed_tILi12EEES2_
                0x00000000       0x38 bn_cameras_manager.o
 .text._ZN2bn10camera_ptr12set_positionERKNS_13fixed_point_tILi12EEE
                0x00000000       0x40 bn_cameras_manager.o
 .text._ZN2bn15cameras_manager16used_items_countEv
                0x00000000       0x10 bn_cameras_manager.o
 .text._ZN2bn15cameras_manager21available_items_countEv
                0x00000000        0xc bn_cameras_manager.o
 .text._ZN2bn15cameras_manager15create_optionalERKNS_13fixed_point_tILi12EEE
                0x00000000       0x3c bn_cameras_manager.o
 .text._ZN2bn15cameras_manager15increase_usagesEi
                0x00000000       0x18 bn_cameras_manager.o
 .text._ZN2bn15cameras_manager15decrease_usagesEi
                0x00000000       0x28 bn_cameras_manager.o
 .text._ZN2bn15cameras_manager8positionEi
                0x00000000       0x10 bn_cameras_manager.o
 .text._ZN2bn15cameras_manager5set_xEiNS_7fixed_tILi12EEE
                0x00000000       0x1c bn_cameras_manager.o
 .text._ZN2bn15cameras_manager5set_yEiNS_7fixed_tILi12EEE
                0x00000000       0x20 bn_cameras_manager.o
 .text._ZN2bn15cameras_manager12set_positionEiRKNS_13fixed_point_tILi12EEE
                0x00000000       0x38 bn_cameras_manager.o
 .text._ZN3_bn6assert9show_argsIA26_cEEvPKcS4_S4_iRKT_
                0x00000000       0x48 bn_cameras_manager.o
 .rodata._ZN2bn15cameras_manager6createERKNS_13fixed_point_tILi12EEE.str1.4
                0x00000000       0x3e bn_cameras_manager.o
 .text._ZN2bn15cameras_manager6createERKNS_13fixed_point_tILi12EEE
                0x00000000       0x5c bn_cameras_manager.o
 .text._ZN2bn10camera_ptr6createEv
                0x00000000       0x58 bn_cameras_manager.o
 .text._ZN2bn10camera_ptr6createENS_7fixed_tILi12EEES2_
                0x00000000       0x58 bn_cameras_manager.o
 .text._ZN2bn10camera_ptr6createERKNS_13fixed_point_tILi12EEE
                0x00000000       0x5c bn_cameras_manager.o
 .group         0x00000000        0xc bn_core.o
 .group         0x00000000        0xc bn_core.o
 .group         0x00000000        0xc bn_core.o
 .group         0x00000000        0xc bn_core.o
 .group         0x00000000        0xc bn_core.o
 .text          0x00000000        0x0 bn_core.o
 .data          0x00000000        0x0 bn_core.o
 .bss           0x00000000        0x0 bn_core.o
 .text._ZN2bn4core11skip_framesEv
                0x00000000        0xc bn_core.o
 .text._ZN2bn4core4initERKNS_8optionalINS_5colorEEE
                0x00000000       0x18 bn_core.o
 .text._ZN2bn4core4initERKNS_11string_viewE
                0x00000000       0x1c bn_core.o
 .text._ZN2bn4core5resetEv
                0x00000000       0x10 bn_core.o
 .text._ZN2bn4core10hard_resetEv
                0x00000000       0x10 bn_core.o
 .text._ZN2bn4core17current_cpu_usageEv
                0x00000000       0x2c bn_core.o
 .text._ZN2bn4core17current_cpu_ticksEv
                0x00000000       0x14 bn_core.o
 .text._ZN2bn4core14last_cpu_usageEv
                0x00000000       0x24 bn_core.o
 .text._ZN2bn4core14last_cpu_ticksEv
                0x00000000        0xc bn_core.o
 .text._ZN2bn4core17last_vblank_usageEv
                0x00000000       0x1c bn_core.o
 .text._ZN2bn4core17last_vblank_ticksEv
                0x00000000        0xc bn_core.o
 .text._ZN2bn4core18last_missed_framesEv
                0x00000000        0xc bn_core.o
 .text._ZN2bn4core15vblank_callbackEv
                0x00000000        0xc bn_core.o
 .text._ZN2bn4core19set_vblank_callbackEPFvvE
                0x00000000        0xc bn_core.o
 .text._ZN2bn4core13slow_game_pakEv
                0x00000000        0xc bn_core.o
 .text._ZN2bn4core11system_fontEv
                0x00000000        0x8 bn_core.o
 .text._ZN2bn4core15set_system_fontERKNS_11system_fontE
                0x00000000       0x18 bn_core.o
 .text._ZN2bn4core10assert_tagEv
                0x00000000        0x8 bn_core.o
 .text._ZN2bn4core14set_assert_tagERKNS_11string_viewE
                0x00000000        0xc bn_core.o
 .text._ZN2bn9core_lockC2Ev
                0x00000000       0x24 bn_core.o
 .text._ZN2bn9core_lockD2Ev
                0x00000000       0x4c bn_core.o
 .text._ZN2bn6memory11dma_enabledEv
                0x00000000        0xc bn_core.o
 .text._ZN2bn6memory15set_dma_enabledEb
                0x00000000        0xc bn_core.o
 .text._ZN2bn6assert8callbackEv
                0x00000000        0xc bn_core.o
 .text._ZN2bn6assert12set_callbackEPFvvE
                0x00000000        0xc bn_core.o
 .text._ZN3_bn6assert9show_argsIA20_cEEvPKcS4_S4_iRKT_
                0x00000000       0x48 bn_core.o
 .text._ZN3_bn6assert4showEPKci
                0x00000000       0x28 bn_core.o
 .text._ZN3_bn6assert4showEPKcS2_S2_i
                0x00000000       0x30 bn_core.o
 .text._ZN3_bn6assert4showEPKcS2_S2_iS2_
                0x00000000       0x2c bn_core.o
 .text._ZN3_bn6assert9show_argsIA22_ciEEvPKcS4_S4_iRKT_RKT0_
                0x00000000       0x54 bn_core.o
 .rodata._ZN2bn4core15set_skip_framesEi.str1.4
                0x00000000       0x46 bn_core.o
 .text._ZN2bn4core15set_skip_framesEi
                0x00000000       0x40 bn_core.o
 .rodata._ZN2bn4core5sleepERKNS_4spanIKNS_6keypad8key_typeEEE.str1.4
                0x00000000       0x1a bn_core.o
 .text._ZN2bn4core5sleepERKNS_4spanIKNS_6keypad8key_typeEEE
                0x00000000       0xc8 bn_core.o
 .text._ZN2bn4core5sleepENS_6keypad8key_typeE
                0x00000000       0x1c bn_core.o
 .text._ZN3_bn6assert9show_argsIA32_cEEvPKcS4_S4_iRKT_
                0x00000000       0x48 bn_core.o
 .rodata._ZN2bn4core14log_stacktraceEv.str1.4
                0x00000000       0x30 bn_core.o
 .text._ZN2bn4core14log_stacktraceEv
                0x00000000       0x28 bn_core.o
 .group         0x00000000        0xc bn_display_manager.o
 .group         0x00000000        0xc bn_display_manager.o
 .group         0x00000000        0xc bn_display_manager.o
 .group         0x00000000        0xc bn_display_manager.o
 .group         0x00000000        0xc bn_display_manager.o
 .group         0x00000000        0xc bn_display_manager.o
 .group         0x00000000        0xc bn_display_manager.o
 .group         0x00000000        0xc bn_display_manager.o
 .group         0x00000000        0xc bn_display_manager.o
 .group         0x00000000        0xc bn_display_manager.o
 .group         0x00000000        0xc bn_display_manager.o
 .group         0x00000000        0xc bn_display_manager.o
 .group         0x00000000        0xc bn_display_manager.o
 .group         0x00000000        0xc bn_display_manager.o
 .group         0x00000000        0xc bn_display_manager.o
 .group         0x00000000        0xc bn_display_manager.o
 .group         0x00000000        0xc bn_display_manager.o
 .text          0x00000000        0x0 bn_display_manager.o
 .data          0x00000000        0x0 bn_display_manager.o
 .bss           0x00000000        0x0 bn_display_manager.o
 .text._ZNK2bn6window7show_bgERKNS_14regular_bg_ptrE
                0x00000000       0x14 bn_display_manager.o
 .text._ZNK2bn6window7show_bgERKNS_13affine_bg_ptrE
                0x00000000       0x14 bn_display_manager.o
 .text._ZN2bn6window11set_show_bgERKNS_14regular_bg_ptrEb
                0x00000000       0x14 bn_display_manager.o
 .text._ZN2bn6window11set_show_bgERKNS_13affine_bg_ptrEb
                0x00000000       0x14 bn_display_manager.o
 .text._ZNK2bn6window12show_spritesEv
                0x00000000       0x18 bn_display_manager.o
 .text._ZN2bn6window16set_show_spritesEb
                0x00000000       0x30 bn_display_manager.o
 .text._ZNK2bn6window13show_blendingEv
                0x00000000       0x18 bn_display_manager.o
 .text._ZN2bn6window17set_show_blendingEb
                0x00000000       0x30 bn_display_manager.o
 .text._ZNK2bn6window8show_allEv
                0x00000000       0x1c bn_display_manager.o
 .text._ZN2bn6window12set_show_allEv
                0x00000000       0x30 bn_display_manager.o
 .text._ZNK2bn6window12show_nothingEv
                0x00000000       0x1c bn_display_manager.o
 .text._ZN2bn6window16set_show_nothingEv
                0x00000000       0x30 bn_display_manager.o
 .text._ZN2bn6window7restoreEv
                0x00000000       0xd4 bn_display_manager.o
 .text._ZN2bn8blending18transparency_alphaEv
                0x00000000       0x18 bn_display_manager.o
 .text._ZN2bn8blending15intensity_alphaEv
                0x00000000       0x18 bn_display_manager.o
 .text._ZN2bn8blending23transparency_top_weightEv
                0x00000000       0x18 bn_display_manager.o
 .text._ZN2bn8blending26transparency_bottom_weightEv
                0x00000000       0x28 bn_display_manager.o
 .text._ZN2bn8blending10fade_colorEv
                0x00000000       0x10 bn_display_manager.o
 .text._ZN2bn8blending14set_fade_colorENS0_15fade_color_typeE
                0x00000000       0x28 bn_display_manager.o
 .text._ZN2bn8blending20set_black_fade_colorEv
                0x00000000       0x24 bn_display_manager.o
 .text._ZN2bn8blending20set_white_fade_colorEv
                0x00000000       0x28 bn_display_manager.o
 .text._ZN2bn8blending10fade_alphaEv
                0x00000000        0xc bn_display_manager.o
 .text._ZN2bn8blending7restoreEv
                0x00000000       0xc0 bn_display_manager.o
 .text._ZN2bn10bgs_mosaic18horizontal_stretchEv
                0x00000000        0xc bn_display_manager.o
 .text._ZN2bn10bgs_mosaic16vertical_stretchEv
                0x00000000        0xc bn_display_manager.o
 .text._ZN2bn10green_swap7enabledEv
                0x00000000        0xc bn_display_manager.o
 .text._ZN2bn10green_swap11set_enabledEb
                0x00000000       0x1c bn_display_manager.o
 .text._ZNK2bn11rect_window3topEv
                0x00000000       0x14 bn_display_manager.o
 .text._ZNK2bn11rect_window4leftEv
                0x00000000       0x14 bn_display_manager.o
 .text._ZNK2bn11rect_window8top_leftEv
                0x00000000       0x14 bn_display_manager.o
 .text._ZNK2bn11rect_window6bottomEv
                0x00000000       0x14 bn_display_manager.o
 .text._ZNK2bn11rect_window5rightEv
                0x00000000       0x14 bn_display_manager.o
 .text._ZNK2bn11rect_window12bottom_rightEv
                0x00000000       0x14 bn_display_manager.o
 .text._ZN2bn11rect_window14set_boundariesERKNS_12fixed_rect_tILi12EEE
                0x00000000       0x94 bn_display_manager.o
 .text._ZN2bn11rect_window14set_boundariesERKNS_21top_left_fixed_rect_tILi12EEE
                0x00000000       0x74 bn_display_manager.o
 .text._ZN2bn11rect_window18restore_boundariesEv
                0x00000000       0x4c bn_display_manager.o
 .text._ZNK2bn11rect_window6cameraEv
                0x00000000       0x14 bn_display_manager.o
 .text._ZN2bn11rect_window10set_cameraEONS_10camera_ptrE
                0x00000000       0x4c bn_display_manager.o
 .text._ZN2bn11rect_window13remove_cameraEv
                0x00000000       0x3c bn_display_manager.o
 .text._ZNK2bn13inside_window7visibleEv
                0x00000000       0x10 bn_display_manager.o
 .text._ZN2bn13inside_window11set_visibleEb
                0x00000000       0x20 bn_display_manager.o
 .text._ZN2bn14sprites_mosaic18horizontal_stretchEv
                0x00000000        0xc bn_display_manager.o
 .text._ZN2bn14sprites_mosaic16vertical_stretchEv
                0x00000000        0xc bn_display_manager.o
 .text._ZN2bn15display_manager10bg_enabledEi
                0x00000000        0xc bn_display_manager.o
 .text._ZN2bn15display_manager33sprites_mosaic_horizontal_stretchEv
                0x00000000        0xc bn_display_manager.o
 .text._ZN2bn15display_manager37set_sprites_mosaic_horizontal_stretchENS_7fixed_tILi12EEE
                0x00000000       0x34 bn_display_manager.o
 .text._ZN2bn15display_manager31sprites_mosaic_vertical_stretchEv
                0x00000000        0xc bn_display_manager.o
 .text._ZN2bn15display_manager35set_sprites_mosaic_vertical_stretchENS_7fixed_tILi12EEE
                0x00000000       0x34 bn_display_manager.o
 .text._ZN2bn15display_manager26set_sprites_mosaic_stretchENS_7fixed_tILi12EEE
                0x00000000       0x48 bn_display_manager.o
 .text._ZN2bn15display_manager26set_sprites_mosaic_stretchENS_7fixed_tILi12EEES2_
                0x00000000       0x50 bn_display_manager.o
 .text._ZN2bn15display_manager29bgs_mosaic_horizontal_stretchEv
                0x00000000        0xc bn_display_manager.o
 .text._ZN2bn15display_manager33set_bgs_mosaic_horizontal_stretchENS_7fixed_tILi12EEE
                0x00000000       0x34 bn_display_manager.o
 .text._ZN2bn15display_manager27bgs_mosaic_vertical_stretchEv
                0x00000000        0xc bn_display_manager.o
 .text._ZN2bn15display_manager31set_bgs_mosaic_vertical_stretchENS_7fixed_tILi12EEE
                0x00000000       0x34 bn_display_manager.o
 .text._ZN2bn15display_manager22set_bgs_mosaic_stretchENS_7fixed_tILi12EEE
                0x00000000       0x48 bn_display_manager.o
 .text._ZN2bn15display_manager22set_bgs_mosaic_stretchENS_7fixed_tILi12EEES2_
                0x00000000       0x50 bn_display_manager.o
 .text._ZN2bn15display_manager23blending_top_bg_enabledEi
                0x00000000        0xc bn_display_manager.o
 .text._ZN2bn15display_manager26blending_bottom_bg_enabledEi
                0x00000000        0xc bn_display_manager.o
 .text._ZN2bn15display_manager31blending_bottom_sprites_enabledEv
                0x00000000        0xc bn_display_manager.o
 .text._ZN2bn15display_manager35set_blending_bottom_sprites_enabledEb
                0x00000000       0x1c bn_display_manager.o
 .text._ZN2bn15display_manager32blending_bottom_backdrop_enabledEv
                0x00000000        0xc bn_display_manager.o
 .text._ZN2bn15display_manager36set_blending_bottom_backdrop_enabledEb
                0x00000000       0x1c bn_display_manager.o
 .text._ZN2bn15display_manager27blending_transparency_alphaEv
                0x00000000       0x18 bn_display_manager.o
 .text._ZN2bn15display_manager31set_blending_transparency_alphaENS_7fixed_tILi12EEE
                0x00000000       0x34 bn_display_manager.o
 .text._ZN2bn15display_manager24blending_intensity_alphaEv
                0x00000000       0x18 bn_display_manager.o
 .text._ZN2bn15display_manager28set_blending_intensity_alphaENS_7fixed_tILi12EEE
                0x00000000       0x34 bn_display_manager.o
 .text._ZN2bn15display_manager45set_blending_transparency_and_intensity_alphaENS_7fixed_tILi12EEES2_
                0x00000000       0x44 bn_display_manager.o
 .text._ZN2bn15display_manager36set_blending_transparency_top_weightENS_7fixed_tILi12EEE
                0x00000000       0x20 bn_display_manager.o
 .text._ZN2bn15display_manager39set_blending_transparency_bottom_weightENS_7fixed_tILi12EEE
                0x00000000       0x20 bn_display_manager.o
 .text._ZN2bn15display_manager33set_blending_transparency_weightsENS_7fixed_tILi12EEES2_
                0x00000000       0x34 bn_display_manager.o
 .text._ZN2bn15display_manager22blending_fade_to_blackEv
                0x00000000        0xc bn_display_manager.o
 .text._ZN2bn15display_manager26set_blending_fade_to_blackEb
                0x00000000       0x24 bn_display_manager.o
 .text._ZN2bn15display_manager19blending_fade_alphaEv
                0x00000000        0xc bn_display_manager.o
 .text._ZN2bn15display_manager23set_blending_fade_alphaENS_7fixed_tILi12EEE
                0x00000000       0x5c bn_display_manager.o
 .text._ZN2bn15display_manager22show_sprites_in_windowEi
                0x00000000       0x14 bn_display_manager.o
 .text._ZN2bn15display_manager26set_show_sprites_in_windowEib
                0x00000000       0x2c bn_display_manager.o
 .text._ZN2bn15display_manager23show_blending_in_windowEi
                0x00000000       0x14 bn_display_manager.o
 .text._ZN2bn15display_manager27set_show_blending_in_windowEib
                0x00000000       0x2c bn_display_manager.o
 .text._ZN2bn15display_manager18show_all_in_windowEi
                0x00000000       0x18 bn_display_manager.o
 .text._ZN2bn15display_manager22set_show_all_in_windowEi
                0x00000000       0x20 bn_display_manager.o
 .text._ZN2bn15display_manager22show_nothing_in_windowEi
                0x00000000       0x18 bn_display_manager.o
 .text._ZN2bn15display_manager26set_show_nothing_in_windowEi
                0x00000000       0x20 bn_display_manager.o
 .text._ZN2bn15display_manager20rect_window_top_leftEi
                0x00000000        0xc bn_display_manager.o
 .text._ZN2bn15display_manager24rect_window_bottom_rightEi
                0x00000000        0xc bn_display_manager.o
 .text._ZN2bn15display_manager24set_rect_window_top_leftEiRKNS_13fixed_point_tILi12EEE
                0x00000000       0x40 bn_display_manager.o
 .text._ZN2bn15display_manager28set_rect_window_bottom_rightEiRKNS_13fixed_point_tILi12EEE
                0x00000000       0x44 bn_display_manager.o
 .text._ZN2bn15display_manager18rect_window_cameraEi
                0x00000000       0x10 bn_display_manager.o
 .text._ZN2bn15display_manager22set_rect_window_cameraEiONS_10camera_ptrE
                0x00000000       0x48 bn_display_manager.o
 .text._ZN2bn11rect_window10set_cameraERKNS_10camera_ptrE
                0x00000000       0x24 bn_display_manager.o
 .text._ZN2bn11rect_window10set_cameraERKNS_8optionalINS_10camera_ptrEEE
                0x00000000       0x58 bn_display_manager.o
 .text._ZN2bn11rect_window10set_cameraEONS_8optionalINS_10camera_ptrEEE
                0x00000000       0x44 bn_display_manager.o
 .text._ZN2bn15display_manager25remove_rect_window_cameraEi
                0x00000000       0x38 bn_display_manager.o
 .text._ZN2bn15display_manager21inside_window_enabledEi
                0x00000000        0xc bn_display_manager.o
 .text._ZN2bn15display_manager25set_inside_window_enabledEib
                0x00000000       0x1c bn_display_manager.o
 .text._ZN2bn15display_manager18green_swap_enabledEv
                0x00000000        0xc bn_display_manager.o
 .text._ZN2bn15display_manager22set_green_swap_enabledEb
                0x00000000       0x1c bn_display_manager.o
 .text._ZN2bn15display_manager5sleepEv
                0x00000000       0x10 bn_display_manager.o
 .text._ZN2bn15display_manager7wake_upEv
                0x00000000       0x10 bn_display_manager.o
 .text._ZN2bn15display_manager13set_show_modeEv
                0x00000000       0x28 bn_display_manager.o
 .text._ZN2bn8blending27set_transparency_attributesERKNS_32blending_transparency_attributesE
                0x00000000       0x84 bn_display_manager.o
 .rodata._ZN2bn8blending14set_fade_alphaENS_19blending_fade_alphaE.str1.4
                0x00000000        0xf bn_display_manager.o
 .text._ZN2bn8blending14set_fade_alphaENS_19blending_fade_alphaE
                0x00000000       0xb4 bn_display_manager.o
 .text._ZN3_bn6assert9show_argsIA63_cEEvPKcS4_S4_iRKT_
                0x00000000       0x48 bn_display_manager.o
 .text._ZN2bn13ostringstream6appendILi12EEEvNS_7fixed_tIXT_EEE
                0x00000000       0xa0 bn_display_manager.o
 .rodata._ZN2bn10bgs_mosaic22set_horizontal_stretchENS_7fixed_tILi12EEE.str1.4
                0x00000000       0x7d bn_display_manager.o
 .text._ZN2bn10bgs_mosaic22set_horizontal_stretchENS_7fixed_tILi12EEE
                0x00000000       0x64 bn_display_manager.o
 .text._ZN2bn14sprites_mosaic22set_horizontal_stretchENS_7fixed_tILi12EEE
                0x00000000       0x64 bn_display_manager.o
 .text._ZN3_bn6assert9show_argsIA26_cN2bn7fixed_tILi12EEEEEvPKcS7_S7_iRKT_RKT0_
                0x00000000       0x54 bn_display_manager.o
 .rodata._ZN2bn8blending19set_intensity_alphaENS_7fixed_tILi12EEE.str1.4
                0x00000000       0x9f bn_display_manager.o
 .text._ZN2bn8blending19set_intensity_alphaENS_7fixed_tILi12EEE
                0x00000000       0x94 bn_display_manager.o
 .rodata._ZN2bn8blending36set_transparency_and_intensity_alphaENS_7fixed_tILi12EEES2_.str1.4
                0x00000000       0x25 bn_display_manager.o
 .text._ZN2bn8blending36set_transparency_and_intensity_alphaENS_7fixed_tILi12EEES2_
                0x00000000       0x9c bn_display_manager.o
 .text._ZN3_bn6assert9show_argsIA34_cN2bn7fixed_tILi12EEEEEvPKcS7_S7_iRKT_RKT0_
                0x00000000       0x54 bn_display_manager.o
 .rodata._ZN2bn8blending27set_transparency_top_weightENS_7fixed_tILi12EEE.str1.4
                0x00000000       0x7e bn_display_manager.o
 .text._ZN2bn8blending27set_transparency_top_weightENS_7fixed_tILi12EEE
                0x00000000       0x7c bn_display_manager.o
 .text._ZN3_bn6assert9show_argsIA37_cN2bn7fixed_tILi12EEEEEvPKcS7_S7_iRKT_RKT0_
                0x00000000       0x54 bn_display_manager.o
 .rodata._ZN2bn8blending30set_transparency_bottom_weightENS_7fixed_tILi12EEE.str1.4
                0x00000000       0x89 bn_display_manager.o
 .text._ZN2bn8blending30set_transparency_bottom_weightENS_7fixed_tILi12EEE
                0x00000000       0x80 bn_display_manager.o
 .rodata._ZN2bn8blending24set_transparency_weightsENS_7fixed_tILi12EEES2_.str1.4
                0x00000000       0x19 bn_display_manager.o
 .text._ZN2bn8blending24set_transparency_weightsENS_7fixed_tILi12EEES2_
                0x00000000       0xb8 bn_display_manager.o
 .rodata._ZN2bn8blending23transparency_attributesEv.str1.4
                0x00000000       0x4a bn_display_manager.o
 .text._ZN2bn8blending23transparency_attributesEv
                0x00000000       0x98 bn_display_manager.o
 .text._ZN3_bn6assert9show_argsIA21_cN2bn7fixed_tILi12EEEEEvPKcS7_S7_iRKT_RKT0_
                0x00000000       0x54 bn_display_manager.o
 .rodata._ZN2bn8blending14set_fade_alphaENS_7fixed_tILi12EEE.str1.4
                0x00000000       0x39 bn_display_manager.o
 .text._ZN2bn8blending14set_fade_alphaENS_7fixed_tILi12EEE
                0x00000000       0x90 bn_display_manager.o
 .text._ZN3_bn6assert9show_argsIA27_cN2bn7fixed_tILi12EEEEEvPKcS7_S7_iRKT_RKT0_
                0x00000000       0x54 bn_display_manager.o
 .rodata._ZN2bn10bgs_mosaic20set_vertical_stretchENS_7fixed_tILi12EEE.str1.4
                0x00000000       0x63 bn_display_manager.o
 .text._ZN2bn10bgs_mosaic20set_vertical_stretchENS_7fixed_tILi12EEE
                0x00000000       0x64 bn_display_manager.o
 .text._ZN2bn10bgs_mosaic11set_stretchENS_7fixed_tILi12EEES2_
                0x00000000       0x98 bn_display_manager.o
 .text._ZN2bn14sprites_mosaic20set_vertical_stretchENS_7fixed_tILi12EEE
                0x00000000       0x64 bn_display_manager.o
 .text._ZN2bn14sprites_mosaic11set_stretchENS_7fixed_tILi12EEES2_
                0x00000000       0x98 bn_display_manager.o
 .text._ZN2bn10bgs_mosaic11set_stretchENS_7fixed_tILi12EEE
                0x00000000       0x70 bn_display_manager.o
 .text._ZN3_bn6assert9show_argsIA16_cN2bn7fixed_tILi12EEEEEvPKcS7_S7_iRKT_RKT0_
                0x00000000       0x54 bn_display_manager.o
 .text._ZN2bn13ostringstream11append_argsINS_7fixed_tILi12EEEJA4_cS3_EEEvRKT_DpRKT0_.isra.0
                0x00000000       0xb4 bn_display_manager.o
 .text._ZN3_bn6assert9show_argsIJA24_cN2bn7fixed_tILi12EEEA4_cS5_EEEvPKcS8_S8_iDpRKT_
                0x00000000       0x58 bn_display_manager.o
 .rodata._ZN2bn11rect_window14set_boundariesERKNS_13fixed_point_tILi12EEES4_.str1.4
                0x00000000       0xa4 bn_display_manager.o
 .text._ZN2bn11rect_window14set_boundariesERKNS_13fixed_point_tILi12EEES4_
                0x00000000       0x8c bn_display_manager.o
 .text._ZN2bn11rect_window14set_boundariesENS_7fixed_tILi12EEES2_S2_S2_
                0x00000000       0xd8 bn_display_manager.o
 .text._ZN3_bn6assert9show_argsIJA16_cN2bn7fixed_tILi12EEEA4_cS5_EEEvPKcS8_S8_iDpRKT_
                0x00000000       0x58 bn_display_manager.o
 .rodata._ZN2bn11rect_window9set_rightENS_7fixed_tILi12EEE.str1.4
                0x00000000       0x34 bn_display_manager.o
 .text._ZN2bn11rect_window9set_rightENS_7fixed_tILi12EEE
                0x00000000       0x70 bn_display_manager.o
 .text._ZN3_bn6assert9show_argsIJA17_cN2bn7fixed_tILi12EEEA4_cS5_EEEvPKcS8_S8_iDpRKT_
                0x00000000       0x58 bn_display_manager.o
 .rodata._ZN2bn11rect_window10set_bottomENS_7fixed_tILi12EEE.str1.4
                0x00000000       0x39 bn_display_manager.o
 .text._ZN2bn11rect_window10set_bottomENS_7fixed_tILi12EEE
                0x00000000       0x74 bn_display_manager.o
 .rodata._ZN2bn11rect_window16set_bottom_rightERKNS_13fixed_point_tILi12EEE.str1.4
                0x00000000       0x5b bn_display_manager.o
 .text._ZN2bn11rect_window16set_bottom_rightERKNS_13fixed_point_tILi12EEE
                0x00000000       0x90 bn_display_manager.o
 .text._ZN2bn11rect_window16set_bottom_rightENS_7fixed_tILi12EEES2_
                0x00000000       0x14 bn_display_manager.o
 .text._ZN3_bn6assert9show_argsIJA15_cN2bn7fixed_tILi12EEEA4_cS5_EEEvPKcS8_S8_iDpRKT_
                0x00000000       0x58 bn_display_manager.o
 .rodata._ZN2bn11rect_window8set_leftENS_7fixed_tILi12EEE.str1.4
                0x00000000       0x37 bn_display_manager.o
 .text._ZN2bn11rect_window8set_leftENS_7fixed_tILi12EEE
                0x00000000       0x74 bn_display_manager.o
 .text._ZN3_bn6assert9show_argsIJA14_cN2bn7fixed_tILi12EEEA4_cS5_EEEvPKcS8_S8_iDpRKT_
                0x00000000       0x58 bn_display_manager.o
 .rodata._ZN2bn11rect_window7set_topENS_7fixed_tILi12EEE.str1.4
                0x00000000       0x32 bn_display_manager.o
 .text._ZN2bn11rect_window7set_topENS_7fixed_tILi12EEE
                0x00000000       0x74 bn_display_manager.o
 .rodata._ZN2bn11rect_window12set_top_leftERKNS_13fixed_point_tILi12EEE.str1.4
                0x00000000       0x57 bn_display_manager.o
 .text._ZN2bn11rect_window12set_top_leftERKNS_13fixed_point_tILi12EEE
                0x00000000       0x90 bn_display_manager.o
 .text._ZN2bn11rect_window12set_top_leftENS_7fixed_tILi12EEES2_
                0x00000000       0x14 bn_display_manager.o
 .text._ZN3_bn6assert9show_argsIA17_cN2bn7fixed_tILi12EEEEEvPKcS7_S7_iRKT_RKT0_
                0x00000000       0x54 bn_display_manager.o
 .rodata._ZNK2bn11rect_window10boundariesEv.str1.4
                0x00000000       0x59 bn_display_manager.o
 .text._ZNK2bn11rect_window10boundariesEv
                0x00000000       0x8c bn_display_manager.o
 .text._ZNK2bn11rect_window19top_left_boundariesEv
                0x00000000       0x88 bn_display_manager.o
 .group         0x00000000        0xc bn_gpio_manager.o
 .group         0x00000000        0xc bn_gpio_manager.o
 .group         0x00000000        0xc bn_gpio_manager.o
 .group         0x00000000        0xc bn_gpio_manager.o
 .group         0x00000000        0xc bn_gpio_manager.o
 .text          0x00000000        0x0 bn_gpio_manager.o
 .data          0x00000000        0x0 bn_gpio_manager.o
 .bss           0x00000000        0x0 bn_gpio_manager.o
 .text._ZN2bn4date6activeEv
                0x00000000       0x5c bn_gpio_manager.o
 .text._ZN2bn4time6activeEv
                0x00000000       0x5c bn_gpio_manager.o
 .text._ZN2bn6rumble7enabledEv
                0x00000000        0xc bn_gpio_manager.o
 .text._ZN2bn6rumble11set_enabledEb
                0x00000000       0x40 bn_gpio_manager.o
 .text._ZN2bn12gpio_manager10rtc_activeEv
                0x00000000       0x5c bn_gpio_manager.o
 .text._ZN2bn12gpio_manager14rumble_enabledEv
                0x00000000        0xc bn_gpio_manager.o
 .text._ZN2bn12gpio_manager18set_rumble_enabledEb
                0x00000000       0x40 bn_gpio_manager.o
 .text._ZN2bn12gpio_manager7wake_upEv
                0x00000000       0x30 bn_gpio_manager.o
 .text._ZN3_bn6assert9show_argsIJA15_ciciciA3_cicEEEvPKcS5_S5_iDpRKT_
                0x00000000       0x98 bn_gpio_manager.o
 .rodata._ZN2bn2hw4gpio8rtc_dateEv.str1.4
                0x00000000       0x2b bn_gpio_manager.o
 .text._ZN2bn2hw4gpio8rtc_dateEv
                0x00000000      0x180 bn_gpio_manager.o
 .text._ZN2bn12gpio_manager12current_dateEv
                0x00000000       0x74 bn_gpio_manager.o
 .text._ZN2bn4date7currentEv
                0x00000000       0x10 bn_gpio_manager.o
 .text._ZN3_bn6assert9show_argsIA15_ciEEvPKcS4_S4_iRKT_RKT0_
                0x00000000       0x54 bn_gpio_manager.o
 .text._ZN3_bn6assert9show_argsIA17_ciEEvPKcS4_S4_iRKT_RKT0_
                0x00000000       0x54 bn_gpio_manager.o
 .text._ZN2bn2hw4gpio8rtc_timeEv
                0x00000000       0x8c bn_gpio_manager.o
 .text._ZN2bn12gpio_manager12current_timeEv
                0x00000000       0x74 bn_gpio_manager.o
 .text._ZN2bn4time7currentEv
                0x00000000       0x74 bn_gpio_manager.o
 .group         0x00000000        0xc bn_hblank_effects_manager.o
 .group         0x00000000        0xc bn_hblank_effects_manager.o
 .group         0x00000000        0xc bn_hblank_effects_manager.o
 .group         0x00000000        0xc bn_hblank_effects_manager.o
 .group         0x00000000        0xc bn_hblank_effects_manager.o
 .group         0x00000000        0xc bn_hblank_effects_manager.o
 .group         0x00000000        0xc bn_hblank_effects_manager.o
 .group         0x00000000        0xc bn_hblank_effects_manager.o
 .group         0x00000000        0xc bn_hblank_effects_manager.o
 .group         0x00000000        0xc bn_hblank_effects_manager.o
 .group         0x00000000        0xc bn_hblank_effects_manager.o
 .group         0x00000000        0xc bn_hblank_effects_manager.o
 .group         0x00000000        0xc bn_hblank_effects_manager.o
 .text          0x00000000        0x0 bn_hblank_effects_manager.o
 .data          0x00000000        0x0 bn_hblank_effects_manager.o
 .bss           0x00000000        0x0 bn_hblank_effects_manager.o
 .text._ZN2bn4hbes10used_countEv
                0x00000000       0x1c bn_hblank_effects_manager.o
 .text._ZN2bn4hbes15available_countEv
                0x00000000       0x10 bn_hblank_effects_manager.o
 .text._ZNK2bn7hbe_ptr7visibleEv
                0x00000000       0x1c bn_hblank_effects_manager.o
 .text._ZN2bn7hbe_ptrC2ERKS0_
                0x00000000       0x20 bn_hblank_effects_manager.o
 .text._ZN2bn24bg_palette_color_hbe_ptr17reload_colors_refEv
                0x00000000       0x2c bn_hblank_effects_manager.o
 .text._ZN2bn24bg_palette_color_hbe_ptr4swapERS0_
                0x00000000       0x2c bn_hblank_effects_manager.o
 .text._ZN2bn24bg_palette_color_hbe_ptrC2EiiONS_14bg_palette_ptrE
                0x00000000       0x10 bn_hblank_effects_manager.o
 .text._ZN2bn37bg_palettes_transparent_color_hbe_ptr17reload_colors_refEv
                0x00000000       0x2c bn_hblank_effects_manager.o
 .text._ZN2bn37bg_palettes_transparent_color_hbe_ptr4swapERS0_
                0x00000000       0x10 bn_hblank_effects_manager.o
 .text._ZN2bn37bg_palettes_transparent_color_hbe_ptrC2Ei
                0x00000000        0x4 bn_hblank_effects_manager.o
 .text._ZN2bn22backdrop_color_hbe_ptr17reload_colors_refEv
                0x00000000       0x2c bn_hblank_effects_manager.o
 .text._ZN2bn22backdrop_color_hbe_ptr4swapERS0_
                0x00000000       0x10 bn_hblank_effects_manager.o
 .text._ZN2bn27blending_fade_alpha_hbe_ptr17reload_alphas_refEv
                0x00000000       0x2c bn_hblank_effects_manager.o
 .text._ZN2bn40blending_transparency_attributes_hbe_ptr21reload_attributes_refEv
                0x00000000       0x2c bn_hblank_effects_manager.o
 .text._ZN2bn18green_swap_hbe_ptr17reload_states_refEv
                0x00000000       0x2c bn_hblank_effects_manager.o
 .text._ZN2bn18green_swap_hbe_ptr4swapERS0_
                0x00000000       0x10 bn_hblank_effects_manager.o
 .text._ZN2bn25mosaic_attributes_hbe_ptr21reload_attributes_refEv
                0x00000000       0x2c bn_hblank_effects_manager.o
 .text._ZN2bn30rect_window_boundaries_hbe_ptr17reload_deltas_refEv
                0x00000000       0x2c bn_hblank_effects_manager.o
 .text._ZN2bn30rect_window_boundaries_hbe_ptr4swapERS0_
                0x00000000       0x18 bn_hblank_effects_manager.o
 .text._ZN2bn30rect_window_boundaries_hbe_ptrC2EiNS_11rect_windowE
                0x00000000        0x8 bn_hblank_effects_manager.o
 .text._ZN2bn29regular_bg_attributes_hbe_ptr21reload_attributes_refEv
                0x00000000       0x2c bn_hblank_effects_manager.o
 .text._ZN2bn29regular_bg_attributes_hbe_ptr4swapERS0_
                0x00000000       0x18 bn_hblank_effects_manager.o
 .text._ZN2bn29regular_bg_attributes_hbe_ptrC2EiONS_14regular_bg_ptrE
                0x00000000        0xc bn_hblank_effects_manager.o
 .text._ZN2bn28affine_bg_attributes_hbe_ptr21reload_attributes_refEv
                0x00000000       0x2c bn_hblank_effects_manager.o
 .text._ZN2bn28affine_bg_attributes_hbe_ptr4swapERS0_
                0x00000000       0x18 bn_hblank_effects_manager.o
 .text._ZN2bn28affine_bg_attributes_hbe_ptrC2EiONS_13affine_bg_ptrE
                0x00000000        0xc bn_hblank_effects_manager.o
 .text._ZN2bn27regular_bg_position_hbe_ptr17reload_deltas_refEv
                0x00000000       0x2c bn_hblank_effects_manager.o
 .text._ZN2bn27regular_bg_position_hbe_ptr4swapERS0_
                0x00000000       0x18 bn_hblank_effects_manager.o
 .text._ZN2bn27regular_bg_position_hbe_ptrC2EiONS_14regular_bg_ptrE
                0x00000000        0xc bn_hblank_effects_manager.o
 .text._ZN2bn32affine_bg_pivot_position_hbe_ptr17reload_deltas_refEv
                0x00000000       0x2c bn_hblank_effects_manager.o
 .text._ZN2bn32affine_bg_pivot_position_hbe_ptr4swapERS0_
                0x00000000       0x18 bn_hblank_effects_manager.o
 .text._ZN2bn32affine_bg_pivot_position_hbe_ptrC2EiONS_13affine_bg_ptrE
                0x00000000        0xc bn_hblank_effects_manager.o
 .text._ZN2bn29affine_bg_pa_register_hbe_ptr21reload_attributes_refEv
                0x00000000       0x2c bn_hblank_effects_manager.o
 .text._ZN2bn29affine_bg_pa_register_hbe_ptr17reload_values_refEv
                0x00000000       0x2c bn_hblank_effects_manager.o
 .text._ZN2bn29affine_bg_pa_register_hbe_ptr4swapERS0_
                0x00000000       0x20 bn_hblank_effects_manager.o
 .text._ZN2bn29affine_bg_pa_register_hbe_ptrC2EibONS_13affine_bg_ptrE
                0x00000000       0x10 bn_hblank_effects_manager.o
 .text._ZN2bn29affine_bg_pb_register_hbe_ptr21reload_attributes_refEv
                0x00000000       0x2c bn_hblank_effects_manager.o
 .text._ZN2bn29affine_bg_pb_register_hbe_ptr17reload_values_refEv
                0x00000000       0x2c bn_hblank_effects_manager.o
 .text._ZN2bn29affine_bg_pb_register_hbe_ptr4swapERS0_
                0x00000000       0x20 bn_hblank_effects_manager.o
 .text._ZN2bn29affine_bg_pb_register_hbe_ptrC2EibONS_13affine_bg_ptrE
                0x00000000       0x10 bn_hblank_effects_manager.o
 .text._ZN2bn29affine_bg_pc_register_hbe_ptr21reload_attributes_refEv
                0x00000000       0x2c bn_hblank_effects_manager.o
 .text._ZN2bn29affine_bg_pc_register_hbe_ptr17reload_values_refEv
                0x00000000       0x2c bn_hblank_effects_manager.o
 .text._ZN2bn29affine_bg_pc_register_hbe_ptr4swapERS0_
                0x00000000       0x20 bn_hblank_effects_manager.o
 .text._ZN2bn29affine_bg_pc_register_hbe_ptrC2EibONS_13affine_bg_ptrE
                0x00000000       0x10 bn_hblank_effects_manager.o
 .text._ZN2bn29affine_bg_pd_register_hbe_ptr21reload_attributes_refEv
                0x00000000       0x2c bn_hblank_effects_manager.o
 .text._ZN2bn29affine_bg_pd_register_hbe_ptr17reload_values_refEv
                0x00000000       0x2c bn_hblank_effects_manager.o
 .text._ZN2bn29affine_bg_pd_register_hbe_ptr4swapERS0_
                0x00000000       0x20 bn_hblank_effects_manager.o
 .text._ZN2bn29affine_bg_pd_register_hbe_ptrC2EibONS_13affine_bg_ptrE
                0x00000000       0x10 bn_hblank_effects_manager.o
 .text._ZN2bn29affine_bg_dx_register_hbe_ptr21reload_attributes_refEv
                0x00000000       0x2c bn_hblank_effects_manager.o
 .text._ZN2bn29affine_bg_dx_register_hbe_ptr17reload_values_refEv
                0x00000000       0x2c bn_hblank_effects_manager.o
 .text._ZN2bn29affine_bg_dx_register_hbe_ptr4swapERS0_
                0x00000000       0x20 bn_hblank_effects_manager.o
 .text._ZN2bn29affine_bg_dx_register_hbe_ptrC2EibONS_13affine_bg_ptrE
                0x00000000       0x10 bn_hblank_effects_manager.o
 .text._ZN2bn29affine_bg_dy_register_hbe_ptr21reload_attributes_refEv
                0x00000000       0x2c bn_hblank_effects_manager.o
 .text._ZN2bn29affine_bg_dy_register_hbe_ptr17reload_values_refEv
                0x00000000       0x2c bn_hblank_effects_manager.o
 .text._ZN2bn29affine_bg_dy_register_hbe_ptr4swapERS0_
                0x00000000       0x20 bn_hblank_effects_manager.o
 .text._ZN2bn29affine_bg_dy_register_hbe_ptrC2EibONS_13affine_bg_ptrE
                0x00000000       0x10 bn_hblank_effects_manager.o
 .text._ZN2bn32affine_bg_mat_attributes_hbe_ptr21reload_attributes_refEv
                0x00000000       0xdc bn_hblank_effects_manager.o
 .text._ZN2bn32affine_bg_mat_attributes_hbe_ptr4swapERS0_
                0x00000000       0xb0 bn_hblank_effects_manager.o
 .text._ZN2bn32affine_bg_mat_attributes_hbe_ptrC2EONS_29affine_bg_pa_register_hbe_ptrEONS_29affine_bg_pb_register_hbe_ptrEONS_29affine_bg_pc_register_hbe_ptrEONS_29affine_bg_pd_register_hbe_ptrEONS_29affine_bg_dx_register_hbe_ptrEONS_29affine_bg_dy_register_hbe_ptrE
                0x00000000       0x98 bn_hblank_effects_manager.o
 .text._ZN2bn36sprite_affine_mat_attributes_hbe_ptr21reload_attributes_refEv
                0x00000000       0x98 bn_hblank_effects_manager.o
 .text._ZN2bn36sprite_affine_mat_attributes_hbe_ptr4swapERS0_
                0x00000000       0x84 bn_hblank_effects_manager.o
 .text._ZN2bn36sprite_affine_mat_attributes_hbe_ptrC2EONS_37sprite_affine_mat_pa_register_hbe_ptrEONS_37sprite_affine_mat_pb_register_hbe_ptrEONS_37sprite_affine_mat_pc_register_hbe_ptrEONS_37sprite_affine_mat_pd_register_hbe_ptrE
                0x00000000       0x5c bn_hblank_effects_manager.o
 .text._ZN2bn37sprite_affine_mat_pa_register_hbe_ptr21reload_attributes_refEv
                0x00000000       0x2c bn_hblank_effects_manager.o
 .text._ZN2bn37sprite_affine_mat_pa_register_hbe_ptr17reload_values_refEv
                0x00000000       0x2c bn_hblank_effects_manager.o
 .text._ZN2bn37sprite_affine_mat_pa_register_hbe_ptr4swapERS0_
                0x00000000       0x24 bn_hblank_effects_manager.o
 .text._ZN2bn37sprite_affine_mat_pa_register_hbe_ptrC2EibONS_21sprite_affine_mat_ptrE
                0x00000000       0x10 bn_hblank_effects_manager.o
 .text._ZN2bn37sprite_affine_mat_pb_register_hbe_ptr21reload_attributes_refEv
                0x00000000       0x2c bn_hblank_effects_manager.o
 .text._ZN2bn37sprite_affine_mat_pb_register_hbe_ptr17reload_values_refEv
                0x00000000       0x2c bn_hblank_effects_manager.o
 .text._ZN2bn37sprite_affine_mat_pb_register_hbe_ptr4swapERS0_
                0x00000000       0x24 bn_hblank_effects_manager.o
 .text._ZN2bn37sprite_affine_mat_pb_register_hbe_ptrC2EibONS_21sprite_affine_mat_ptrE
                0x00000000       0x10 bn_hblank_effects_manager.o
 .text._ZN2bn37sprite_affine_mat_pc_register_hbe_ptr21reload_attributes_refEv
                0x00000000       0x2c bn_hblank_effects_manager.o
 .text._ZN2bn37sprite_affine_mat_pc_register_hbe_ptr17reload_values_refEv
                0x00000000       0x2c bn_hblank_effects_manager.o
 .text._ZN2bn37sprite_affine_mat_pc_register_hbe_ptr4swapERS0_
                0x00000000       0x24 bn_hblank_effects_manager.o
 .text._ZN2bn37sprite_affine_mat_pc_register_hbe_ptrC2EibONS_21sprite_affine_mat_ptrE
                0x00000000       0x10 bn_hblank_effects_manager.o
 .text._ZN2bn37sprite_affine_mat_pd_register_hbe_ptr21reload_attributes_refEv
                0x00000000       0x2c bn_hblank_effects_manager.o
 .text._ZN2bn37sprite_affine_mat_pd_register_hbe_ptr17reload_values_refEv
                0x00000000       0x2c bn_hblank_effects_manager.o
 .text._ZN2bn37sprite_affine_mat_pd_register_hbe_ptr4swapERS0_
                0x00000000       0x24 bn_hblank_effects_manager.o
 .text._ZN2bn37sprite_affine_mat_pd_register_hbe_ptrC2EibONS_21sprite_affine_mat_ptrE
                0x00000000       0x10 bn_hblank_effects_manager.o
 .text._ZN2bn39sprite_affine_second_attributes_hbe_ptr21reload_attributes_refEv
                0x00000000       0x2c bn_hblank_effects_manager.o
 .text._ZN2bn39sprite_affine_second_attributes_hbe_ptr4swapERS0_
                0x00000000       0x18 bn_hblank_effects_manager.o
 .text._ZN2bn39sprite_affine_second_attributes_hbe_ptrC2EiONS_10sprite_ptrE
                0x00000000        0xc bn_hblank_effects_manager.o
 .text._ZN2bn31sprite_first_attributes_hbe_ptr21reload_attributes_refEv
                0x00000000       0x2c bn_hblank_effects_manager.o
 .text._ZN2bn31sprite_first_attributes_hbe_ptr4swapERS0_
                0x00000000       0x18 bn_hblank_effects_manager.o
 .text._ZN2bn31sprite_first_attributes_hbe_ptrC2EiONS_10sprite_ptrE
                0x00000000        0xc bn_hblank_effects_manager.o
 .text._ZN2bn28sprite_palette_color_hbe_ptr17reload_colors_refEv
                0x00000000       0x2c bn_hblank_effects_manager.o
 .text._ZN2bn28sprite_palette_color_hbe_ptr4swapERS0_
                0x00000000       0x2c bn_hblank_effects_manager.o
 .text._ZN2bn28sprite_palette_color_hbe_ptrC2EiiONS_18sprite_palette_ptrE
                0x00000000       0x10 bn_hblank_effects_manager.o
 .text._ZN2bn23sprite_position_hbe_ptr4swapERS0_
                0x00000000       0x18 bn_hblank_effects_manager.o
 .text._ZN2bn23sprite_position_hbe_ptrC2EiONS_10sprite_ptrE
                0x00000000        0xc bn_hblank_effects_manager.o
 .text._ZN2bn40sprite_regular_second_attributes_hbe_ptr21reload_attributes_refEv
                0x00000000       0x2c bn_hblank_effects_manager.o
 .text._ZN2bn40sprite_regular_second_attributes_hbe_ptr4swapERS0_
                0x00000000       0x18 bn_hblank_effects_manager.o
 .text._ZN2bn40sprite_regular_second_attributes_hbe_ptrC2EiONS_10sprite_ptrE
                0x00000000        0xc bn_hblank_effects_manager.o
 .text._ZN2bn31sprite_third_attributes_hbe_ptr21reload_attributes_refEv
                0x00000000       0x2c bn_hblank_effects_manager.o
 .text._ZN2bn31sprite_third_attributes_hbe_ptr4swapERS0_
                0x00000000       0x18 bn_hblank_effects_manager.o
 .text._ZN2bn31sprite_third_attributes_hbe_ptrC2EiONS_10sprite_ptrE
                0x00000000        0xc bn_hblank_effects_manager.o
 .text._ZN2bn22hblank_effects_manager10used_countEv
                0x00000000       0x1c bn_hblank_effects_manager.o
 .text._ZN2bn22hblank_effects_manager15available_countEv
                0x00000000       0x10 bn_hblank_effects_manager.o
 .text._ZN2bn22hblank_effects_manager6enableEv
                0x00000000       0x24 bn_hblank_effects_manager.o
 .text._ZN2bn22hblank_effects_manager15increase_usagesEi
                0x00000000       0x18 bn_hblank_effects_manager.o
 .text._ZN2bn22hblank_effects_manager10values_refEi
                0x00000000       0x14 bn_hblank_effects_manager.o
 .text._ZN2bn22hblank_effects_manager17reload_values_refEi
                0x00000000       0x28 bn_hblank_effects_manager.o
 .text._ZN2bn22hblank_effects_manager7visibleEi
                0x00000000       0x18 bn_hblank_effects_manager.o
 .text._ZN3_bn6assert9show_argsIA18_ciEEvPKcS4_S4_iRKT_RKT0_
                0x00000000       0x54 bn_hblank_effects_manager.o
 .text._ZN2bn22hblank_effects_manager11set_visibleEib
                0x00000000       0x68 bn_hblank_effects_manager.o
 .text._ZN2bn7hbe_ptr11set_visibleEb
                0x00000000       0x6c bn_hblank_effects_manager.o
 .text._ZN2bn36sprite_affine_mat_attributes_hbe_ptr11set_visibleEb
                0x00000000       0x98 bn_hblank_effects_manager.o
 .text._ZN2bn32affine_bg_mat_attributes_hbe_ptr11set_visibleEb
                0x00000000       0xac bn_hblank_effects_manager.o
 .text._ZN3_bn6assert9show_argsIJA22_ciA4_ciEEEvPKcS5_S5_iDpRKT_
                0x00000000       0x64 bn_hblank_effects_manager.o
 .text._ZN3_bn6assert9show_argsIA66_cEEvPKcS4_S4_iRKT_
                0x00000000       0x48 bn_hblank_effects_manager.o
 .text._ZN3_bn6assert9show_argsIA22_cEEvPKcS4_S4_iRKT_
                0x00000000       0x48 bn_hblank_effects_manager.o
 .rodata._ZN2bn8optionalINS_29affine_bg_pa_register_hbe_ptrEEdeEv.part.0.str1.4
                0x00000000       0x32 bn_hblank_effects_manager.o
 .text._ZN2bn8optionalINS_29affine_bg_pa_register_hbe_ptrEEdeEv.part.0
                0x00000000       0x28 bn_hblank_effects_manager.o
 .text._ZN3_bn6assert9show_argsIA21_cEEvPKcS4_S4_iRKT_
                0x00000000       0x48 bn_hblank_effects_manager.o
 .text._ZN3_bn6assert9show_argsIA18_cEEvPKcS4_S4_iRKT_
                0x00000000       0x48 bn_hblank_effects_manager.o
 .text._ZN3_bn6assert9show_argsIA25_cEEvPKcS4_S4_iRKT_
                0x00000000       0x48 bn_hblank_effects_manager.o
 .text._ZN3_bn6assert9show_argsIA23_cEEvPKcS4_S4_iRKT_
                0x00000000       0x48 bn_hblank_effects_manager.o
 .text._ZN3_bn6assert9show_argsIJA23_ciA4_ciEEEvPKcS5_S5_iDpRKT_
                0x00000000       0x64 bn_hblank_effects_manager.o
 .text._ZN2bn22hblank_effects_manager6createEPKviiNS0_12handler_typeE
                0x00000000       0x58 bn_hblank_effects_manager.o
 .rodata._ZN2bn22hblank_effects_manager15create_optionalEPKviiNS0_12handler_typeE.str1.4
                0x00000000       0x10 bn_hblank_effects_manager.o
 .text._ZN2bn22hblank_effects_manager15create_optionalEPKviiNS0_12handler_typeE
                0x00000000       0x58 bn_hblank_effects_manager.o
 .rodata._ZN2bn22hblank_effects_manager14set_values_refEiPKvi.str1.4
                0x00000000        0xf bn_hblank_effects_manager.o
 .text._ZN2bn22hblank_effects_manager14set_values_refEiPKvi
                0x00000000       0x90 bn_hblank_effects_manager.o
 .rodata._ZN2bn36sprite_affine_mat_attributes_hbe_ptr18set_attributes_refERKNS_4spanIKNS_21affine_mat_attributesEEE.str1.4
                0x00000000       0xe7 bn_hblank_effects_manager.o
 .text._ZN2bn36sprite_affine_mat_attributes_hbe_ptr18set_attributes_refERKNS_4spanIKNS_21affine_mat_attributesEEE
                0x00000000       0xb0 bn_hblank_effects_manager.o
 .rodata._ZN2bn32affine_bg_mat_attributes_hbe_ptr18set_attributes_refERKNS_4spanIKNS_24affine_bg_mat_attributesEEE.str1.4
                0x00000000       0xef bn_hblank_effects_manager.o
 .text._ZN2bn32affine_bg_mat_attributes_hbe_ptr18set_attributes_refERKNS_4spanIKNS_24affine_bg_mat_attributesEEE
                0x00000000      0x104 bn_hblank_effects_manager.o
 .text._ZN2bn18green_swap_hbe_ptr6createERKNS_4spanIKbEE
                0x00000000       0x60 bn_hblank_effects_manager.o
 .text._ZN2bn37bg_palettes_transparent_color_hbe_ptr6createERKNS_4spanIKNS_5colorEEE
                0x00000000       0x64 bn_hblank_effects_manager.o
 .text._ZN2bn22backdrop_color_hbe_ptr6createERKNS_4spanIKNS_5colorEEE
                0x00000000       0x64 bn_hblank_effects_manager.o
 .text._ZN2bn25mosaic_attributes_hbe_ptr6createERKNS_4spanIKNS_17mosaic_attributesEEE
                0x00000000       0x64 bn_hblank_effects_manager.o
 .text._ZN2bn30rect_window_boundaries_hbe_ptr17create_horizontalENS_11rect_windowERKNS_4spanIKSt4pairINS_7fixed_tILi12EEES5_EEE
                0x00000000       0x6c bn_hblank_effects_manager.o
 .text._ZN2bn30rect_window_boundaries_hbe_ptr15create_verticalENS_11rect_windowERKNS_4spanIKSt4pairINS_7fixed_tILi12EEES5_EEE
                0x00000000       0x6c bn_hblank_effects_manager.o
 .text._ZN2bn29regular_bg_attributes_hbe_ptr6createENS_14regular_bg_ptrERKNS_4spanIKNS_21regular_bg_attributesEEE
                0x00000000       0x70 bn_hblank_effects_manager.o
 .text._ZN2bn28affine_bg_attributes_hbe_ptr6createENS_13affine_bg_ptrERKNS_4spanIKNS_20affine_bg_attributesEEE
                0x00000000       0x80 bn_hblank_effects_manager.o
 .text._ZN2bn27regular_bg_position_hbe_ptr17create_horizontalENS_14regular_bg_ptrERKNS_4spanIKNS_7fixed_tILi12EEEEE
                0x00000000       0x70 bn_hblank_effects_manager.o
 .text._ZN2bn27regular_bg_position_hbe_ptr15create_verticalENS_14regular_bg_ptrERKNS_4spanIKNS_7fixed_tILi12EEEEE
                0x00000000       0x70 bn_hblank_effects_manager.o
 .text._ZN2bn32affine_bg_pivot_position_hbe_ptr17create_horizontalENS_13affine_bg_ptrERKNS_4spanIKNS_7fixed_tILi12EEEEE
                0x00000000       0x70 bn_hblank_effects_manager.o
 .text._ZN2bn32affine_bg_pivot_position_hbe_ptr15create_verticalENS_13affine_bg_ptrERKNS_4spanIKNS_7fixed_tILi12EEEEE
                0x00000000       0x70 bn_hblank_effects_manager.o
 .text._ZN2bn23sprite_position_hbe_ptr15create_verticalENS_10sprite_ptrERKNS_4spanIKNS_7fixed_tILi12EEEEE
                0x00000000       0x70 bn_hblank_effects_manager.o
 .text._ZN2bn18green_swap_hbe_ptr15create_optionalERKNS_4spanIKbEE
                0x00000000       0x6c bn_hblank_effects_manager.o
 .text._ZN2bn29affine_bg_pa_register_hbe_ptr6createENS_13affine_bg_ptrERKNS_4spanIKNS_24affine_bg_mat_attributesEEE
                0x00000000       0x88 bn_hblank_effects_manager.o
 .text._ZN2bn29affine_bg_pa_register_hbe_ptr6createENS_13affine_bg_ptrERKNS_4spanIKsEE
                0x00000000       0x70 bn_hblank_effects_manager.o
 .text._ZN2bn29affine_bg_pb_register_hbe_ptr6createENS_13affine_bg_ptrERKNS_4spanIKNS_24affine_bg_mat_attributesEEE
                0x00000000       0x88 bn_hblank_effects_manager.o
 .text._ZN2bn29affine_bg_pb_register_hbe_ptr6createENS_13affine_bg_ptrERKNS_4spanIKsEE
                0x00000000       0x70 bn_hblank_effects_manager.o
 .text._ZN2bn29affine_bg_pc_register_hbe_ptr6createENS_13affine_bg_ptrERKNS_4spanIKNS_24affine_bg_mat_attributesEEE
                0x00000000       0x88 bn_hblank_effects_manager.o
 .text._ZN2bn29affine_bg_pc_register_hbe_ptr6createENS_13affine_bg_ptrERKNS_4spanIKsEE
                0x00000000       0x70 bn_hblank_effects_manager.o
 .text._ZN2bn29affine_bg_pd_register_hbe_ptr6createENS_13affine_bg_ptrERKNS_4spanIKNS_24affine_bg_mat_attributesEEE
                0x00000000       0x88 bn_hblank_effects_manager.o
 .text._ZN2bn29affine_bg_pd_register_hbe_ptr6createENS_13affine_bg_ptrERKNS_4spanIKsEE
                0x00000000       0x70 bn_hblank_effects_manager.o
 .text._ZN2bn29affine_bg_dx_register_hbe_ptr6createENS_13affine_bg_ptrERKNS_4spanIKNS_24affine_bg_mat_attributesEEE
                0x00000000       0x88 bn_hblank_effects_manager.o
 .text._ZN2bn29affine_bg_dx_register_hbe_ptr6createENS_13affine_bg_ptrERKNS_4spanIKiEE
                0x00000000       0x70 bn_hblank_effects_manager.o
 .text._ZN2bn29affine_bg_dy_register_hbe_ptr6createENS_13affine_bg_ptrERKNS_4spanIKNS_24affine_bg_mat_attributesEEE
                0x00000000       0x88 bn_hblank_effects_manager.o
 .text._ZN2bn29affine_bg_dy_register_hbe_ptr6createENS_13affine_bg_ptrERKNS_4spanIKiEE
                0x00000000       0x70 bn_hblank_effects_manager.o
 .text._ZN2bn37sprite_affine_mat_pa_register_hbe_ptr6createENS_21sprite_affine_mat_ptrERKNS_4spanIKNS_21affine_mat_attributesEEE
                0x00000000       0x8c bn_hblank_effects_manager.o
 .text._ZN2bn37sprite_affine_mat_pa_register_hbe_ptr6createENS_21sprite_affine_mat_ptrERKNS_4spanIKsEE
                0x00000000       0x78 bn_hblank_effects_manager.o
 .text._ZN2bn37sprite_affine_mat_pb_register_hbe_ptr6createENS_21sprite_affine_mat_ptrERKNS_4spanIKNS_21affine_mat_attributesEEE
                0x00000000       0x8c bn_hblank_effects_manager.o
 .text._ZN2bn37sprite_affine_mat_pb_register_hbe_ptr6createENS_21sprite_affine_mat_ptrERKNS_4spanIKsEE
                0x00000000       0x78 bn_hblank_effects_manager.o
 .text._ZN2bn37sprite_affine_mat_pc_register_hbe_ptr6createENS_21sprite_affine_mat_ptrERKNS_4spanIKNS_21affine_mat_attributesEEE
                0x00000000       0x8c bn_hblank_effects_manager.o
 .text._ZN2bn37sprite_affine_mat_pc_register_hbe_ptr6createENS_21sprite_affine_mat_ptrERKNS_4spanIKsEE
                0x00000000       0x78 bn_hblank_effects_manager.o
 .text._ZN2bn37sprite_affine_mat_pd_register_hbe_ptr6createENS_21sprite_affine_mat_ptrERKNS_4spanIKNS_21affine_mat_attributesEEE
                0x00000000       0x8c bn_hblank_effects_manager.o
 .text._ZN2bn37sprite_affine_mat_pd_register_hbe_ptr6createENS_21sprite_affine_mat_ptrERKNS_4spanIKsEE
                0x00000000       0x78 bn_hblank_effects_manager.o
 .text._ZN2bn37bg_palettes_transparent_color_hbe_ptr15create_optionalERKNS_4spanIKNS_5colorEEE
                0x00000000       0x74 bn_hblank_effects_manager.o
 .text._ZN2bn22backdrop_color_hbe_ptr15create_optionalERKNS_4spanIKNS_5colorEEE
                0x00000000       0x74 bn_hblank_effects_manager.o
 .text._ZN2bn25mosaic_attributes_hbe_ptr15create_optionalERKNS_4spanIKNS_17mosaic_attributesEEE
                0x00000000       0x74 bn_hblank_effects_manager.o
 .rodata._ZN2bn40blending_transparency_attributes_hbe_ptr6createERKNS_4spanIKNS_32blending_transparency_attributesEEE.str1.4
                0x00000000       0x32 bn_hblank_effects_manager.o
 .text._ZN2bn40blending_transparency_attributes_hbe_ptr6createERKNS_4spanIKNS_32blending_transparency_attributesEEE
                0x00000000       0x8c bn_hblank_effects_manager.o
 .text._ZN2bn40blending_transparency_attributes_hbe_ptr15create_optionalERKNS_4spanIKNS_32blending_transparency_attributesEEE
                0x00000000       0x98 bn_hblank_effects_manager.o
 .rodata._ZN2bn24bg_palette_color_hbe_ptr6createENS_14bg_palette_ptrEiRKNS_4spanIKNS_5colorEEE.str1.4
                0x00000000       0x76 bn_hblank_effects_manager.o
 .text._ZN2bn24bg_palette_color_hbe_ptr6createENS_14bg_palette_ptrEiRKNS_4spanIKNS_5colorEEE
                0x00000000       0xcc bn_hblank_effects_manager.o
 .rodata._ZN2bn28sprite_palette_color_hbe_ptr6createENS_18sprite_palette_ptrEiRKNS_4spanIKNS_5colorEEE.str1.4
                0x00000000       0x26 bn_hblank_effects_manager.o
 .text._ZN2bn28sprite_palette_color_hbe_ptr6createENS_18sprite_palette_ptrEiRKNS_4spanIKNS_5colorEEE
                0x00000000       0xcc bn_hblank_effects_manager.o
 .text._ZN2bn18green_swap_hbe_ptr14set_states_refERKNS_4spanIKbEE
                0x00000000       0x98 bn_hblank_effects_manager.o
 .text._ZN2bn32affine_bg_pivot_position_hbe_ptr14set_deltas_refERKNS_4spanIKNS_7fixed_tILi12EEEEE
                0x00000000       0xa0 bn_hblank_effects_manager.o
 .text._ZN2bn23sprite_position_hbe_ptr14set_deltas_refERKNS_4spanIKNS_7fixed_tILi12EEEEE
                0x00000000       0xa0 bn_hblank_effects_manager.o
 .text._ZN2bn37bg_palettes_transparent_color_hbe_ptr14set_colors_refERKNS_4spanIKNS_5colorEEE
                0x00000000       0xa0 bn_hblank_effects_manager.o
 .text._ZN2bn22backdrop_color_hbe_ptr14set_colors_refERKNS_4spanIKNS_5colorEEE
                0x00000000       0xa0 bn_hblank_effects_manager.o
 .text._ZN2bn28sprite_palette_color_hbe_ptr14set_colors_refERKNS_4spanIKNS_5colorEEE
                0x00000000       0xa0 bn_hblank_effects_manager.o
 .text._ZN2bn24bg_palette_color_hbe_ptr14set_colors_refERKNS_4spanIKNS_5colorEEE
                0x00000000       0xa0 bn_hblank_effects_manager.o
 .text._ZN2bn27blending_fade_alpha_hbe_ptr14set_alphas_refERKNS_4spanIKNS_19blending_fade_alphaEEE
                0x00000000       0xa0 bn_hblank_effects_manager.o
 .text._ZN2bn40blending_transparency_attributes_hbe_ptr18set_attributes_refERKNS_4spanIKNS_32blending_transparency_attributesEEE
                0x00000000       0xa0 bn_hblank_effects_manager.o
 .text._ZN2bn25mosaic_attributes_hbe_ptr18set_attributes_refERKNS_4spanIKNS_17mosaic_attributesEEE
                0x00000000       0xa0 bn_hblank_effects_manager.o
 .text._ZN2bn30rect_window_boundaries_hbe_ptr14set_deltas_refERKNS_4spanIKSt4pairINS_7fixed_tILi12EEES4_EEE
                0x00000000       0xa0 bn_hblank_effects_manager.o
 .text._ZN2bn29regular_bg_attributes_hbe_ptr18set_attributes_refERKNS_4spanIKNS_21regular_bg_attributesEEE
                0x00000000       0xa0 bn_hblank_effects_manager.o
 .text._ZN2bn28affine_bg_attributes_hbe_ptr18set_attributes_refERKNS_4spanIKNS_20affine_bg_attributesEEE
                0x00000000       0xb0 bn_hblank_effects_manager.o
 .text._ZN2bn27regular_bg_position_hbe_ptr14set_deltas_refERKNS_4spanIKNS_7fixed_tILi12EEEEE
                0x00000000       0xa0 bn_hblank_effects_manager.o
 .text._ZN2bn39sprite_affine_second_attributes_hbe_ptr18set_attributes_refERKNS_4spanIKNS_31sprite_affine_second_attributesEEE
                0x00000000       0xa0 bn_hblank_effects_manager.o
 .text._ZN2bn31sprite_first_attributes_hbe_ptr18set_attributes_refERKNS_4spanIKNS_23sprite_first_attributesEEE
                0x00000000       0xa0 bn_hblank_effects_manager.o
 .text._ZN2bn40sprite_regular_second_attributes_hbe_ptr18set_attributes_refERKNS_4spanIKNS_32sprite_regular_second_attributesEEE
                0x00000000       0xa0 bn_hblank_effects_manager.o
 .text._ZN2bn31sprite_third_attributes_hbe_ptr18set_attributes_refERKNS_4spanIKNS_23sprite_third_attributesEEE
                0x00000000       0xa0 bn_hblank_effects_manager.o
 .text._ZN2bn29affine_bg_pa_register_hbe_ptr18set_attributes_refERKNS_4spanIKNS_24affine_bg_mat_attributesEEE
                0x00000000       0xdc bn_hblank_effects_manager.o
 .rodata._ZN2bn29affine_bg_pa_register_hbe_ptr14set_values_refERKNS_4spanIKsEE.str1.4
                0x00000000       0x16 bn_hblank_effects_manager.o
 .text._ZN2bn29affine_bg_pa_register_hbe_ptr14set_values_refERKNS_4spanIKsEE
                0x00000000       0xc0 bn_hblank_effects_manager.o
 .text._ZN2bn29affine_bg_pb_register_hbe_ptr18set_attributes_refERKNS_4spanIKNS_24affine_bg_mat_attributesEEE
                0x00000000       0xdc bn_hblank_effects_manager.o
 .text._ZN2bn29affine_bg_pb_register_hbe_ptr14set_values_refERKNS_4spanIKsEE
                0x00000000       0xc0 bn_hblank_effects_manager.o
 .text._ZN2bn29affine_bg_pc_register_hbe_ptr18set_attributes_refERKNS_4spanIKNS_24affine_bg_mat_attributesEEE
                0x00000000       0xdc bn_hblank_effects_manager.o
 .text._ZN2bn29affine_bg_pc_register_hbe_ptr14set_values_refERKNS_4spanIKsEE
                0x00000000       0xc0 bn_hblank_effects_manager.o
 .text._ZN2bn29affine_bg_pd_register_hbe_ptr18set_attributes_refERKNS_4spanIKNS_24affine_bg_mat_attributesEEE
                0x00000000       0xdc bn_hblank_effects_manager.o
 .text._ZN2bn29affine_bg_pd_register_hbe_ptr14set_values_refERKNS_4spanIKsEE
                0x00000000       0xc0 bn_hblank_effects_manager.o
 .text._ZN2bn29affine_bg_dx_register_hbe_ptr18set_attributes_refERKNS_4spanIKNS_24affine_bg_mat_attributesEEE
                0x00000000       0xdc bn_hblank_effects_manager.o
 .text._ZN2bn29affine_bg_dx_register_hbe_ptr14set_values_refERKNS_4spanIKiEE
                0x00000000       0xc0 bn_hblank_effects_manager.o
 .text._ZN2bn29affine_bg_dy_register_hbe_ptr18set_attributes_refERKNS_4spanIKNS_24affine_bg_mat_attributesEEE
                0x00000000       0xdc bn_hblank_effects_manager.o
 .text._ZN2bn29affine_bg_dy_register_hbe_ptr14set_values_refERKNS_4spanIKiEE
                0x00000000       0xc0 bn_hblank_effects_manager.o
 .text._ZN2bn37sprite_affine_mat_pa_register_hbe_ptr18set_attributes_refERKNS_4spanIKNS_21affine_mat_attributesEEE
                0x00000000       0xdc bn_hblank_effects_manager.o
 .text._ZN2bn37sprite_affine_mat_pa_register_hbe_ptr14set_values_refERKNS_4spanIKsEE
                0x00000000       0xc0 bn_hblank_effects_manager.o
 .text._ZN2bn37sprite_affine_mat_pb_register_hbe_ptr18set_attributes_refERKNS_4spanIKNS_21affine_mat_attributesEEE
                0x00000000       0xdc bn_hblank_effects_manager.o
 .text._ZN2bn37sprite_affine_mat_pb_register_hbe_ptr14set_values_refERKNS_4spanIKsEE
                0x00000000       0xc0 bn_hblank_effects_manager.o
 .text._ZN2bn37sprite_affine_mat_pc_register_hbe_ptr18set_attributes_refERKNS_4spanIKNS_21affine_mat_attributesEEE
                0x00000000       0xdc bn_hblank_effects_manager.o
 .text._ZN2bn37sprite_affine_mat_pc_register_hbe_ptr14set_values_refERKNS_4spanIKsEE
                0x00000000       0xc0 bn_hblank_effects_manager.o
 .text._ZN2bn37sprite_affine_mat_pd_register_hbe_ptr18set_attributes_refERKNS_4spanIKNS_21affine_mat_attributesEEE
                0x00000000       0xdc bn_hblank_effects_manager.o
 .text._ZN2bn37sprite_affine_mat_pd_register_hbe_ptr14set_values_refERKNS_4spanIKsEE
                0x00000000       0xc0 bn_hblank_effects_manager.o
 .rodata._ZN2bn27blending_fade_alpha_hbe_ptr6createERKNS_4spanIKNS_19blending_fade_alphaEEE.str1.4
                0x00000000       0x25 bn_hblank_effects_manager.o
 .text._ZN2bn27blending_fade_alpha_hbe_ptr6createERKNS_4spanIKNS_19blending_fade_alphaEEE
                0x00000000       0x98 bn_hblank_effects_manager.o
 .text._ZN2bn27blending_fade_alpha_hbe_ptr15create_optionalERKNS_4spanIKNS_19blending_fade_alphaEEE
                0x00000000       0xa4 bn_hblank_effects_manager.o
 .text._ZN3_bn6assert9show_argsIA15_cEEvPKcS4_S4_iRKT_
                0x00000000       0x48 bn_hblank_effects_manager.o
 .text._ZN2bn22hblank_effects_manager15decrease_usagesEi
                0x00000000       0x24 bn_hblank_effects_manager.o
 .text._ZN2bn7hbe_ptraSERKS0_
                0x00000000       0x50 bn_hblank_effects_manager.o
 .text._ZN2bn30rect_window_boundaries_hbe_ptr26create_horizontal_optionalENS_11rect_windowERKNS_4spanIKSt4pairINS_7fixed_tILi12EEES5_EEE
                0x00000000       0x80 bn_hblank_effects_manager.o
 .text._ZN2bn30rect_window_boundaries_hbe_ptr24create_vertical_optionalENS_11rect_windowERKNS_4spanIKSt4pairINS_7fixed_tILi12EEES5_EEE
                0x00000000       0x80 bn_hblank_effects_manager.o
 .text._ZN2bn36sprite_affine_mat_attributes_hbe_ptr6createERKNS_21sprite_affine_mat_ptrERKNS_4spanIKNS_21affine_mat_attributesEEE
                0x00000000      0x300 bn_hblank_effects_manager.o
 .text._ZN2bn37sprite_affine_mat_pa_register_hbe_ptr15create_optionalENS_21sprite_affine_mat_ptrERKNS_4spanIKNS_21affine_mat_attributesEEE
                0x00000000       0xd8 bn_hblank_effects_manager.o
 .text._ZN2bn37sprite_affine_mat_pa_register_hbe_ptr15create_optionalENS_21sprite_affine_mat_ptrERKNS_4spanIKsEE
                0x00000000       0xc0 bn_hblank_effects_manager.o
 .text._ZN2bn37sprite_affine_mat_pb_register_hbe_ptr15create_optionalENS_21sprite_affine_mat_ptrERKNS_4spanIKNS_21affine_mat_attributesEEE
                0x00000000       0xd8 bn_hblank_effects_manager.o
 .text._ZN2bn37sprite_affine_mat_pb_register_hbe_ptr15create_optionalENS_21sprite_affine_mat_ptrERKNS_4spanIKsEE
                0x00000000       0xc0 bn_hblank_effects_manager.o
 .text._ZN2bn37sprite_affine_mat_pc_register_hbe_ptr15create_optionalENS_21sprite_affine_mat_ptrERKNS_4spanIKNS_21affine_mat_attributesEEE
                0x00000000       0xd8 bn_hblank_effects_manager.o
 .text._ZN2bn37sprite_affine_mat_pc_register_hbe_ptr15create_optionalENS_21sprite_affine_mat_ptrERKNS_4spanIKsEE
                0x00000000       0xc0 bn_hblank_effects_manager.o
 .text._ZN2bn37sprite_affine_mat_pd_register_hbe_ptr15create_optionalENS_21sprite_affine_mat_ptrERKNS_4spanIKNS_21affine_mat_attributesEEE
                0x00000000       0xd8 bn_hblank_effects_manager.o
 .text._ZN2bn37sprite_affine_mat_pd_register_hbe_ptr15create_optionalENS_21sprite_affine_mat_ptrERKNS_4spanIKsEE
                0x00000000       0xc0 bn_hblank_effects_manager.o
 .text._ZN2bn29regular_bg_attributes_hbe_ptr15create_optionalENS_14regular_bg_ptrERKNS_4spanIKNS_21regular_bg_attributesEEE
                0x00000000       0xb8 bn_hblank_effects_manager.o
 .text._ZN2bn28affine_bg_attributes_hbe_ptr15create_optionalENS_13affine_bg_ptrERKNS_4spanIKNS_20affine_bg_attributesEEE
                0x00000000       0xc8 bn_hblank_effects_manager.o
 .text._ZN2bn27regular_bg_position_hbe_ptr24create_vertical_optionalENS_14regular_bg_ptrERKNS_4spanIKNS_7fixed_tILi12EEEEE
                0x00000000       0xb8 bn_hblank_effects_manager.o
 .text._ZN2bn32affine_bg_pivot_position_hbe_ptr24create_vertical_optionalENS_13affine_bg_ptrERKNS_4spanIKNS_7fixed_tILi12EEEEE
                0x00000000       0xb8 bn_hblank_effects_manager.o
 .text._ZN2bn39sprite_affine_second_attributes_hbe_ptr15create_optionalENS_10sprite_ptrERKNS_4spanIKNS_31sprite_affine_second_attributesEEE
                0x00000000       0xb8 bn_hblank_effects_manager.o
 .text._ZN2bn31sprite_first_attributes_hbe_ptr15create_optionalENS_10sprite_ptrERKNS_4spanIKNS_23sprite_first_attributesEEE
                0x00000000       0xb8 bn_hblank_effects_manager.o
 .text._ZN2bn23sprite_position_hbe_ptr24create_vertical_optionalENS_10sprite_ptrERKNS_4spanIKNS_7fixed_tILi12EEEEE
                0x00000000       0xb8 bn_hblank_effects_manager.o
 .text._ZN2bn40sprite_regular_second_attributes_hbe_ptr15create_optionalENS_10sprite_ptrERKNS_4spanIKNS_32sprite_regular_second_attributesEEE
                0x00000000       0xb8 bn_hblank_effects_manager.o
 .text._ZN2bn31sprite_third_attributes_hbe_ptr15create_optionalENS_10sprite_ptrERKNS_4spanIKNS_23sprite_third_attributesEEE
                0x00000000       0xb8 bn_hblank_effects_manager.o
 .text._ZN2bn27regular_bg_position_hbe_ptr26create_horizontal_optionalENS_14regular_bg_ptrERKNS_4spanIKNS_7fixed_tILi12EEEEE
                0x00000000       0xb8 bn_hblank_effects_manager.o
 .text._ZN2bn32affine_bg_pivot_position_hbe_ptr26create_horizontal_optionalENS_13affine_bg_ptrERKNS_4spanIKNS_7fixed_tILi12EEEEE
                0x00000000       0xb8 bn_hblank_effects_manager.o
 .text._ZN2bn23sprite_position_hbe_ptr26create_horizontal_optionalENS_10sprite_ptrERKNS_4spanIKNS_7fixed_tILi12EEEEE
                0x00000000       0xb8 bn_hblank_effects_manager.o
 .text._ZN2bn29affine_bg_pa_register_hbe_ptr15create_optionalENS_13affine_bg_ptrERKNS_4spanIKNS_24affine_bg_mat_attributesEEE
                0x00000000       0xd4 bn_hblank_effects_manager.o
 .text._ZN2bn29affine_bg_pa_register_hbe_ptr15create_optionalENS_13affine_bg_ptrERKNS_4spanIKsEE
                0x00000000       0xb8 bn_hblank_effects_manager.o
 .text._ZN2bn29affine_bg_pb_register_hbe_ptr15create_optionalENS_13affine_bg_ptrERKNS_4spanIKNS_24affine_bg_mat_attributesEEE
                0x00000000       0xd4 bn_hblank_effects_manager.o
 .text._ZN2bn29affine_bg_pb_register_hbe_ptr15create_optionalENS_13affine_bg_ptrERKNS_4spanIKsEE
                0x00000000       0xb8 bn_hblank_effects_manager.o
 .text._ZN2bn29affine_bg_pc_register_hbe_ptr15create_optionalENS_13affine_bg_ptrERKNS_4spanIKNS_24affine_bg_mat_attributesEEE
                0x00000000       0xd4 bn_hblank_effects_manager.o
 .text._ZN2bn29affine_bg_pc_register_hbe_ptr15create_optionalENS_13affine_bg_ptrERKNS_4spanIKsEE
                0x00000000       0xb8 bn_hblank_effects_manager.o
 .text._ZN2bn29affine_bg_pd_register_hbe_ptr15create_optionalENS_13affine_bg_ptrERKNS_4spanIKNS_24affine_bg_mat_attributesEEE
                0x00000000       0xd4 bn_hblank_effects_manager.o
 .text._ZN2bn29affine_bg_pd_register_hbe_ptr15create_optionalENS_13affine_bg_ptrERKNS_4spanIKsEE
                0x00000000       0xb8 bn_hblank_effects_manager.o
 .text._ZN2bn29affine_bg_dx_register_hbe_ptr15create_optionalENS_13affine_bg_ptrERKNS_4spanIKNS_24affine_bg_mat_attributesEEE
                0x00000000       0xd4 bn_hblank_effects_manager.o
 .text._ZN2bn29affine_bg_dx_register_hbe_ptr15create_optionalENS_13affine_bg_ptrERKNS_4spanIKiEE
                0x00000000       0xb8 bn_hblank_effects_manager.o
 .text._ZN2bn29affine_bg_dy_register_hbe_ptr15create_optionalENS_13affine_bg_ptrERKNS_4spanIKNS_24affine_bg_mat_attributesEEE
                0x00000000       0xd4 bn_hblank_effects_manager.o
 .text._ZN2bn29affine_bg_dy_register_hbe_ptr15create_optionalENS_13affine_bg_ptrERKNS_4spanIKiEE
                0x00000000       0xb8 bn_hblank_effects_manager.o
 .text._ZN2bn32affine_bg_mat_attributes_hbe_ptr6createERKNS_13affine_bg_ptrERKNS_4spanIKNS_24affine_bg_mat_attributesEEE
                0x00000000      0x400 bn_hblank_effects_manager.o
 .text._ZN2bn24bg_palette_color_hbe_ptr15create_optionalENS_14bg_palette_ptrEiRKNS_4spanIKNS_5colorEEE
                0x00000000      0x11c bn_hblank_effects_manager.o
 .text._ZN2bn28sprite_palette_color_hbe_ptr15create_optionalENS_18sprite_palette_ptrEiRKNS_4spanIKNS_5colorEEE
                0x00000000      0x11c bn_hblank_effects_manager.o
 .text._ZN2bn36sprite_affine_mat_attributes_hbe_ptr15create_optionalERKNS_21sprite_affine_mat_ptrERKNS_4spanIKNS_21affine_mat_attributesEEE
                0x00000000      0x40c bn_hblank_effects_manager.o
 .text._ZN2bn32affine_bg_mat_attributes_hbe_ptr15create_optionalERKNS_13affine_bg_ptrERKNS_4spanIKNS_24affine_bg_mat_attributesEEE
                0x00000000      0x524 bn_hblank_effects_manager.o
 .text._ZN3_bn6assert9show_argsIA39_ciEEvPKcS4_S4_iRKT_RKT0_
                0x00000000       0x54 bn_hblank_effects_manager.o
 .rodata._ZNK2bn24bg_palette_color_hbe_ptr10colors_refEv.str1.4
                0x00000000       0x3f bn_hblank_effects_manager.o
 .text._ZNK2bn24bg_palette_color_hbe_ptr10colors_refEv
                0x00000000       0x58 bn_hblank_effects_manager.o
 .text._ZNK2bn27blending_fade_alpha_hbe_ptr10alphas_refEv
                0x00000000       0x5c bn_hblank_effects_manager.o
 .text._ZNK2bn40blending_transparency_attributes_hbe_ptr14attributes_refEv
                0x00000000       0x5c bn_hblank_effects_manager.o
 .text._ZNK2bn18green_swap_hbe_ptr10states_refEv
                0x00000000       0x54 bn_hblank_effects_manager.o
 .text._ZNK2bn25mosaic_attributes_hbe_ptr14attributes_refEv
                0x00000000       0x5c bn_hblank_effects_manager.o
 .text._ZNK2bn30rect_window_boundaries_hbe_ptr10deltas_refEv
                0x00000000       0x5c bn_hblank_effects_manager.o
 .text._ZNK2bn29regular_bg_attributes_hbe_ptr14attributes_refEv
                0x00000000       0x5c bn_hblank_effects_manager.o
 .text._ZNK2bn28affine_bg_attributes_hbe_ptr14attributes_refEv
                0x00000000       0x5c bn_hblank_effects_manager.o
 .text._ZNK2bn27regular_bg_position_hbe_ptr10deltas_refEv
                0x00000000       0x5c bn_hblank_effects_manager.o
 .rodata._ZNK2bn29affine_bg_dy_register_hbe_ptr14attributes_refEv.str1.4
                0x00000000        0xf bn_hblank_effects_manager.o
 .text._ZNK2bn29affine_bg_dy_register_hbe_ptr14attributes_refEv
                0x00000000       0x7c bn_hblank_effects_manager.o
 .rodata._ZNK2bn37sprite_affine_mat_pd_register_hbe_ptr10values_refEv.str1.4
                0x00000000        0xb bn_hblank_effects_manager.o
 .text._ZNK2bn37sprite_affine_mat_pd_register_hbe_ptr10values_refEv
                0x00000000       0x78 bn_hblank_effects_manager.o
 .text._ZNK2bn29affine_bg_dy_register_hbe_ptr10values_refEv
                0x00000000       0x7c bn_hblank_effects_manager.o
 .text._ZNK2bn37sprite_affine_mat_pd_register_hbe_ptr14attributes_refEv
                0x00000000       0x7c bn_hblank_effects_manager.o
 .text._ZNK2bn39sprite_affine_second_attributes_hbe_ptr14attributes_refEv
                0x00000000       0x5c bn_hblank_effects_manager.o
 .text._ZNK2bn31sprite_first_attributes_hbe_ptr14attributes_refEv
                0x00000000       0x5c bn_hblank_effects_manager.o
 .text._ZNK2bn40sprite_regular_second_attributes_hbe_ptr14attributes_refEv
                0x00000000       0x5c bn_hblank_effects_manager.o
 .text._ZNK2bn31sprite_third_attributes_hbe_ptr14attributes_refEv
                0x00000000       0x5c bn_hblank_effects_manager.o
 .text._ZNK2bn29affine_bg_dx_register_hbe_ptr10values_refEv
                0x00000000       0x7c bn_hblank_effects_manager.o
 .text._ZNK2bn37sprite_affine_mat_pa_register_hbe_ptr14attributes_refEv
                0x00000000       0x7c bn_hblank_effects_manager.o
 .text._ZNK2bn37sprite_affine_mat_pb_register_hbe_ptr14attributes_refEv
                0x00000000       0x7c bn_hblank_effects_manager.o
 .text._ZNK2bn37sprite_affine_mat_pc_register_hbe_ptr14attributes_refEv
                0x00000000       0x7c bn_hblank_effects_manager.o
 .text._ZNK2bn29affine_bg_pa_register_hbe_ptr14attributes_refEv
                0x00000000       0x7c bn_hblank_effects_manager.o
 .text._ZNK2bn29affine_bg_pb_register_hbe_ptr14attributes_refEv
                0x00000000       0x7c bn_hblank_effects_manager.o
 .text._ZNK2bn29affine_bg_pc_register_hbe_ptr14attributes_refEv
                0x00000000       0x7c bn_hblank_effects_manager.o
 .text._ZNK2bn29affine_bg_pd_register_hbe_ptr14attributes_refEv
                0x00000000       0x7c bn_hblank_effects_manager.o
 .text._ZNK2bn29affine_bg_dx_register_hbe_ptr14attributes_refEv
                0x00000000       0x7c bn_hblank_effects_manager.o
 .text._ZNK2bn32affine_bg_pivot_position_hbe_ptr10deltas_refEv
                0x00000000       0x5c bn_hblank_effects_manager.o
 .text._ZNK2bn23sprite_position_hbe_ptr10deltas_refEv
                0x00000000       0x5c bn_hblank_effects_manager.o
 .text._ZNK2bn29affine_bg_pa_register_hbe_ptr10values_refEv
                0x00000000       0x78 bn_hblank_effects_manager.o
 .text._ZNK2bn29affine_bg_pb_register_hbe_ptr10values_refEv
                0x00000000       0x78 bn_hblank_effects_manager.o
 .text._ZNK2bn29affine_bg_pc_register_hbe_ptr10values_refEv
                0x00000000       0x78 bn_hblank_effects_manager.o
 .text._ZNK2bn29affine_bg_pd_register_hbe_ptr10values_refEv
                0x00000000       0x78 bn_hblank_effects_manager.o
 .text._ZNK2bn37sprite_affine_mat_pa_register_hbe_ptr10values_refEv
                0x00000000       0x78 bn_hblank_effects_manager.o
 .text._ZNK2bn37sprite_affine_mat_pb_register_hbe_ptr10values_refEv
                0x00000000       0x78 bn_hblank_effects_manager.o
 .text._ZNK2bn37sprite_affine_mat_pc_register_hbe_ptr10values_refEv
                0x00000000       0x78 bn_hblank_effects_manager.o
 .text._ZNK2bn32affine_bg_mat_attributes_hbe_ptr14attributes_refEv
                0x00000000       0x7c bn_hblank_effects_manager.o
 .text._ZNK2bn36sprite_affine_mat_attributes_hbe_ptr14attributes_refEv
                0x00000000       0x7c bn_hblank_effects_manager.o
 .text._ZNK2bn37bg_palettes_transparent_color_hbe_ptr10colors_refEv
                0x00000000       0x58 bn_hblank_effects_manager.o
 .text._ZNK2bn22backdrop_color_hbe_ptr10colors_refEv
                0x00000000       0x58 bn_hblank_effects_manager.o
 .text._ZNK2bn28sprite_palette_color_hbe_ptr10colors_refEv
                0x00000000       0x58 bn_hblank_effects_manager.o
 .group         0x00000000        0xc bn_hdma_manager.o
 .group         0x00000000        0xc bn_hdma_manager.o
 .text          0x00000000        0x0 bn_hdma_manager.o
 .data          0x00000000        0x0 bn_hdma_manager.o
 .bss           0x00000000        0x0 bn_hdma_manager.o
 .text._ZN2bn4hdma7runningEv
                0x00000000       0x28 bn_hdma_manager.o
 .text._ZN2bn4hdma4stopEv
                0x00000000       0x28 bn_hdma_manager.o
 .text._ZN2bn4hdma21high_priority_runningEv
                0x00000000       0x28 bn_hdma_manager.o
 .text._ZN2bn4hdma18high_priority_stopEv
                0x00000000       0x28 bn_hdma_manager.o
 .text._ZN2bn12hdma_manager6enableEv
                0x00000000       0xd0 bn_hdma_manager.o
 .text._ZN2bn12hdma_manager20low_priority_runningEv
                0x00000000       0x28 bn_hdma_manager.o
 .text._ZN2bn12hdma_manager18low_priority_startERKtiRt
                0x00000000       0x30 bn_hdma_manager.o
 .text._ZN2bn12hdma_manager17low_priority_stopEv
                0x00000000       0x28 bn_hdma_manager.o
 .text._ZN2bn12hdma_manager21high_priority_runningEv
                0x00000000       0x28 bn_hdma_manager.o
 .text._ZN2bn12hdma_manager19high_priority_startERKtiRt
                0x00000000       0x30 bn_hdma_manager.o
 .text._ZN2bn12hdma_manager18high_priority_stopEv
                0x00000000       0x28 bn_hdma_manager.o
 .text._ZN3_bn6assert9show_argsIA22_ciEEvPKcS4_S4_iRKT_RKT0_
                0x00000000       0x54 bn_hdma_manager.o
 .text._ZN3_bn6assert9show_argsIA19_ciEEvPKcS4_S4_iRKT_RKT0_
                0x00000000       0x54 bn_hdma_manager.o
 .rodata._ZN2bn4hdma5startERKNS_4spanIKtEERt.str1.4
                0x00000000       0x7f bn_hdma_manager.o
 .text._ZN2bn4hdma5startERKNS_4spanIKtEERt
                0x00000000       0x98 bn_hdma_manager.o
 .text._ZN2bn4hdma5startERKtiRt
                0x00000000       0x5c bn_hdma_manager.o
 .rodata._ZN2bn4hdma19high_priority_startERKNS_4spanIKtEERt.str1.4
                0x00000000       0x14 bn_hdma_manager.o
 .text._ZN2bn4hdma19high_priority_startERKNS_4spanIKtEERt
                0x00000000       0x9c bn_hdma_manager.o
 .text._ZN2bn4hdma19high_priority_startERKtiRt
                0x00000000       0x60 bn_hdma_manager.o
 .group         0x00000000        0xc bn_keypad_manager.o
 .group         0x00000000        0xc bn_keypad_manager.o
 .group         0x00000000        0xc bn_keypad_manager.o
 .group         0x00000000        0xc bn_keypad_manager.o
 .text          0x00000000        0x0 bn_keypad_manager.o
 .data          0x00000000        0x0 bn_keypad_manager.o
 .bss           0x00000000        0x0 bn_keypad_manager.o
 .text._ZN2bn6keypad4heldENS0_8key_typeE
                0x00000000       0x10 bn_keypad_manager.o
 .text._ZN2bn6keypad7pressedENS0_8key_typeE
                0x00000000       0x10 bn_keypad_manager.o
 .text._ZN2bn6keypad8releasedENS0_8key_typeE
                0x00000000       0x10 bn_keypad_manager.o
 .text._ZN2bn6keypad6a_heldEv
                0x00000000       0x10 bn_keypad_manager.o
 .text._ZN2bn6keypad10a_releasedEv
                0x00000000       0x10 bn_keypad_manager.o
 .text._ZN2bn6keypad6b_heldEv
                0x00000000       0x10 bn_keypad_manager.o
 .text._ZN2bn6keypad10b_releasedEv
                0x00000000       0x10 bn_keypad_manager.o
 .text._ZN2bn6keypad11select_heldEv
                0x00000000       0x10 bn_keypad_manager.o
 .text._ZN2bn6keypad15select_releasedEv
                0x00000000       0x10 bn_keypad_manager.o
 .text._ZN2bn6keypad10start_heldEv
                0x00000000       0x10 bn_keypad_manager.o
 .text._ZN2bn6keypad14start_releasedEv
                0x00000000       0x10 bn_keypad_manager.o
 .text._ZN2bn6keypad14right_releasedEv
                0x00000000       0x10 bn_keypad_manager.o
 .text._ZN2bn6keypad13left_releasedEv
                0x00000000       0x10 bn_keypad_manager.o
 .text._ZN2bn6keypad11up_releasedEv
                0x00000000       0x10 bn_keypad_manager.o
 .text._ZN2bn6keypad13down_releasedEv
                0x00000000        0xc bn_keypad_manager.o
 .text._ZN2bn6keypad6r_heldEv
                0x00000000       0x10 bn_keypad_manager.o
 .text._ZN2bn6keypad10r_releasedEv
                0x00000000       0x10 bn_keypad_manager.o
 .text._ZN2bn6keypad6l_heldEv
                0x00000000       0x10 bn_keypad_manager.o
 .text._ZN2bn6keypad10l_releasedEv
                0x00000000       0x10 bn_keypad_manager.o
 .text._ZN2bn6keypad8any_heldEv
                0x00000000       0x10 bn_keypad_manager.o
 .text._ZN2bn6keypad11any_pressedEv
                0x00000000       0x10 bn_keypad_manager.o
 .text._ZN2bn6keypad12any_releasedEv
                0x00000000       0x10 bn_keypad_manager.o
 .text._ZN2bn14keypad_manager4heldENS_6keypad8key_typeE
                0x00000000       0x10 bn_keypad_manager.o
 .text._ZN2bn14keypad_manager7pressedENS_6keypad8key_typeE
                0x00000000       0x10 bn_keypad_manager.o
 .text._ZN2bn14keypad_manager8releasedENS_6keypad8key_typeE
                0x00000000       0x10 bn_keypad_manager.o
 .text._ZN2bn14keypad_manager8any_heldEv
                0x00000000       0x10 bn_keypad_manager.o
 .text._ZN2bn14keypad_manager11any_pressedEv
                0x00000000       0x10 bn_keypad_manager.o
 .text._ZN2bn14keypad_manager12any_releasedEv
                0x00000000       0x10 bn_keypad_manager.o
 .text._ZN3_bn6assert9show_argsIJA19_ciA4_ciEEEvPKcS5_S5_iDpRKT_
                0x00000000       0x64 bn_keypad_manager.o
 .text._ZN3_bn6assert9show_argsIJA16_ciA4_ciEEEvPKcS5_S5_iDpRKT_
                0x00000000       0x64 bn_keypad_manager.o
 .text._ZN3_bn6assert9show_argsIA24_ciEEvPKcS4_S4_iRKT_RKT0_
                0x00000000       0x54 bn_keypad_manager.o
 .text._ZN3_bn6assert9show_argsIA18_cEEvPKcS4_S4_iRKT_
                0x00000000       0x48 bn_keypad_manager.o
 .rodata._ZN2bn14keypad_manager13set_interruptERKNS_4spanIKNS_6keypad8key_typeEEE.str1.4
                0x00000000       0x26 bn_keypad_manager.o
 .text._ZN2bn14keypad_manager13set_interruptERKNS_4spanIKNS_6keypad8key_typeEEE
                0x00000000       0x4c bn_keypad_manager.o
 .group         0x00000000        0xc bn_link_manager.o
 .group         0x00000000        0xc bn_link_manager.o
 .group         0x00000000        0xc bn_link_manager.o
 .group         0x00000000        0xc bn_link_manager.o
 .group         0x00000000        0xc bn_link_manager.o
 .group         0x00000000        0xc bn_link_manager.o
 .text          0x00000000        0x0 bn_link_manager.o
 .data          0x00000000        0x0 bn_link_manager.o
 .bss           0x00000000        0x0 bn_link_manager.o
 .text._ZN2bn4link10deactivateEv
                0x00000000        0xc bn_link_manager.o
 .text._ZN2bn12link_manager4sendEi
                0x00000000       0x10 bn_link_manager.o
 .text._ZN2bn12link_manager10deactivateEv
                0x00000000        0xc bn_link_manager.o
 .text._ZN2bn12link_manager6enableEv
                0x00000000       0x18 bn_link_manager.o
 .text._ZN3_bn6assert9show_argsIA13_ciEEvPKcS4_S4_iRKT_RKT0_
                0x00000000       0x54 bn_link_manager.o
 .text._ZN3_bn6assert9show_argsIA15_ciEEvPKcS4_S4_iRKT_RKT0_
                0x00000000       0x54 bn_link_manager.o
 .text._ZN3_bn6assert9show_argsIA28_ciEEvPKcS4_S4_iRKT_RKT0_
                0x00000000       0x54 bn_link_manager.o
 .text._ZN3_bn6assert9show_argsIJA23_ciA4_ciEEEvPKcS5_S5_iDpRKT_
                0x00000000       0x64 bn_link_manager.o
 .text._ZN3_bn6assert9show_argsIA23_ciEEvPKcS4_S4_iRKT_RKT0_
                0x00000000       0x54 bn_link_manager.o
 .rodata._ZN2bn4link4sendEi.str1.4
                0x00000000       0x5b bn_link_manager.o
 .text._ZN2bn4link4sendEi
                0x00000000       0x40 bn_link_manager.o
 .text._ZN3_bn6assert9show_argsIA15_cEEvPKcS4_S4_iRKT_
                0x00000000       0x48 bn_link_manager.o
 .rodata._ZN2bn12link_manager7receiveEv.str1.4
                0x00000000      0x13f bn_link_manager.o
 .text._ZN2bn12link_manager7receiveEv
                0x00000000      0x160 bn_link_manager.o
 .text._ZN2bn4link7receiveEv
                0x00000000       0x10 bn_link_manager.o
 .group         0x00000000        0xc bn_memory_manager.o
 .group         0x00000000        0xc bn_memory_manager.o
 .group         0x00000000        0xc bn_memory_manager.o
 .group         0x00000000        0xc bn_memory_manager.o
 .group         0x00000000        0xc bn_memory_manager.o
 .group         0x00000000        0xc bn_memory_manager.o
 .group         0x00000000        0xc bn_memory_manager.o
 .group         0x00000000        0xc bn_memory_manager.o
 .group         0x00000000        0xc bn_memory_manager.o
 .text          0x00000000        0x0 bn_memory_manager.o
 .data          0x00000000        0x0 bn_memory_manager.o
 .bss           0x00000000        0x0 bn_memory_manager.o
 .text._ZdlPv   0x00000000       0x18 bn_memory_manager.o
 .text._ZdaPv   0x00000000       0x18 bn_memory_manager.o
 .text._ZdlPvj  0x00000000       0x18 bn_memory_manager.o
 .text._ZdaPvj  0x00000000       0x18 bn_memory_manager.o
 .text._ZdlPvRKSt9nothrow_t
                0x00000000       0x18 bn_memory_manager.o
 .text._ZdaPvRKSt9nothrow_t
                0x00000000       0x18 bn_memory_manager.o
 .text._ZN3_bn6memory17unsafe_copy_bytesEPKviPv
                0x00000000       0x14 bn_memory_manager.o
 .text._ZN3_bn6memory22unsafe_copy_half_wordsEPKviPv
                0x00000000       0x14 bn_memory_manager.o
 .text._ZN3_bn6memory17unsafe_copy_wordsEPKviPv
                0x00000000       0x14 bn_memory_manager.o
 .text._ZN3_bn6memory18unsafe_clear_bytesEiPv
                0x00000000       0x14 bn_memory_manager.o
 .text._ZN3_bn6memory23unsafe_clear_half_wordsEiPv
                0x00000000       0x14 bn_memory_manager.o
 .text._ZN3_bn6memory18unsafe_clear_wordsEiPv
                0x00000000       0x14 bn_memory_manager.o
 .text._ZN2bn6memory11ewram_allocEi
                0x00000000       0x18 bn_memory_manager.o
 .text._ZN2bn6memory12ewram_callocEii
                0x00000000       0x18 bn_memory_manager.o
 .text._ZN2bn6memory13ewram_reallocEPvi
                0x00000000       0x18 bn_memory_manager.o
 .text._ZN2bn6memory10ewram_freeEPv
                0x00000000       0x18 bn_memory_manager.o
 .text._ZN2bn6memory16used_alloc_ewramEv
                0x00000000       0x10 bn_memory_manager.o
 .text._ZN2bn6memory21available_alloc_ewramEv
                0x00000000        0xc bn_memory_manager.o
 .text._ZN2bn6memory22log_alloc_ewram_statusEv
                0x00000000       0x14 bn_memory_manager.o
 .text._ZN2bn6memory16used_stack_iwramEv
                0x00000000       0x14 bn_memory_manager.o
 .text._ZN2bn6memory17used_static_iwramEv
                0x00000000       0x10 bn_memory_manager.o
 .text._ZN2bn6memory17used_static_ewramEv
                0x00000000       0x10 bn_memory_manager.o
 .text._ZN2bn6memory8used_romEv
                0x00000000       0x10 bn_memory_manager.o
 .text._ZN2bn6memory10fast_ewramEv
                0x00000000       0x18 bn_memory_manager.o
 .text._ZN2bn6mallocEi
                0x00000000       0x18 bn_memory_manager.o
 .text._ZN2bn6callocEii
                0x00000000       0x18 bn_memory_manager.o
 .text._ZN2bn7reallocEPvi
                0x00000000       0x18 bn_memory_manager.o
 .text._ZN2bn4freeEPv
                0x00000000       0x18 bn_memory_manager.o
 .text._ZN2bn14memory_manager11ewram_allocEi
                0x00000000       0x18 bn_memory_manager.o
 .text._ZN2bn14memory_manager12ewram_callocEii
                0x00000000       0x18 bn_memory_manager.o
 .text._ZN2bn14memory_manager13ewram_reallocEPvi
                0x00000000       0x18 bn_memory_manager.o
 .text._ZN2bn14memory_manager10ewram_freeEPv
                0x00000000       0x18 bn_memory_manager.o
 .text._ZN2bn14memory_manager16used_alloc_ewramEv
                0x00000000       0x10 bn_memory_manager.o
 .text._ZN2bn14memory_manager21available_alloc_ewramEv
                0x00000000        0xc bn_memory_manager.o
 .text._ZN2bn14memory_manager22log_alloc_ewram_statusEv
                0x00000000       0x14 bn_memory_manager.o
 .text._ZN3_bn6assert9show_argsIA35_cjEEvPKcS4_S4_iRKT_RKT0_
                0x00000000       0x54 bn_memory_manager.o
 .rodata._Znwj.str1.4
                0x00000000       0x47 bn_memory_manager.o
 .text._Znwj    0x00000000       0x40 bn_memory_manager.o
 .rodata._Znaj.str1.4
                0x00000000       0x10 bn_memory_manager.o
 .text._Znaj    0x00000000       0x40 bn_memory_manager.o
 .text._ZnwjRKSt9nothrow_t
                0x00000000       0x40 bn_memory_manager.o
 .text._ZnajRKSt9nothrow_t
                0x00000000       0x40 bn_memory_manager.o
 .text._ZN3_bn6assert9show_argsIA16_ciEEvPKcS4_S4_iRKT_RKT0_
                0x00000000       0x54 bn_memory_manager.o
 .text._ZN3_bn6assert9show_argsIA20_cEEvPKcS4_S4_iRKT_
                0x00000000       0x48 bn_memory_manager.o
 .rodata._ZN2bn6memory9set_bytesEhiPv.str1.4
                0x00000000       0x3c bn_memory_manager.o
 .text._ZN2bn6memory9set_bytesEhiPv
                0x00000000       0x5c bn_memory_manager.o
 .rodata._ZN2bn6memsetEPvhi.str1.4
                0x00000000       0x19 bn_memory_manager.o
 .text._ZN2bn6memsetEPvhi
                0x00000000       0x58 bn_memory_manager.o
 .rodata._ZN2bn8memclearEPvi.str1.4
                0x00000000        0x9 bn_memory_manager.o
 .text._ZN2bn8memclearEPvi
                0x00000000       0x58 bn_memory_manager.o
 .text._ZN3_bn6assert9show_argsIA21_ciEEvPKcS4_S4_iRKT_RKT0_
                0x00000000       0x54 bn_memory_manager.o
 .text._ZN3_bn6assert9show_argsIA27_cEEvPKcS4_S4_iRKT_
                0x00000000       0x48 bn_memory_manager.o
 .rodata._ZN2bn6memory14set_half_wordsEtiPv.str1.4
                0x00000000       0x6f bn_memory_manager.o
 .text._ZN2bn6memory14set_half_wordsEtiPv
                0x00000000       0x7c bn_memory_manager.o
 .rodata._ZN2bn6memory9set_wordsEjiPv.str1.4
                0x00000000       0x44 bn_memory_manager.o
 .text._ZN2bn6memory9set_wordsEjiPv
                0x00000000       0x7c bn_memory_manager.o
 .text._ZN3_bn6assert9show_argsIA15_cEEvPKcS4_S4_iRKT_
                0x00000000       0x48 bn_memory_manager.o
 .rodata._ZN2bn6memcpyEPvPKvi.str1.4
                0x00000000       0x1f bn_memory_manager.o
 .text._ZN2bn6memcpyEPvPKvi
                0x00000000       0x70 bn_memory_manager.o
 .text._ZN3_bn6assert9show_argsIA27_ciEEvPKcS4_S4_iRKT_RKT0_
                0x00000000       0x54 bn_memory_manager.o
 .text._ZN3_bn6assert9show_argsIA19_ciEEvPKcS4_S4_iRKT_RKT0_
                0x00000000       0x54 bn_memory_manager.o
 .rodata._ZN2bn6memory4copyIcEEvRKT_iRS2_.str1.4
                0x00000000       0x37 bn_memory_manager.o
 .text._ZN2bn6memory4copyIcEEvRKT_iRS2_
                0x00000000       0x80 bn_memory_manager.o
 .rodata._ZN2bn6memory10decompressENS_16compression_typeEPKviPv.str1.4
                0x00000000       0x27 bn_memory_manager.o
 .text._ZN2bn6memory10decompressENS_16compression_typeEPKviPv
                0x00000000       0xc4 bn_memory_manager.o
 .group         0x00000000        0xc bn_palettes_manager.o
 .group         0x00000000        0xc bn_palettes_manager.o
 .group         0x00000000        0xc bn_palettes_manager.o
 .group         0x00000000        0xc bn_palettes_manager.o
 .group         0x00000000        0xc bn_palettes_manager.o
 .group         0x00000000        0xc bn_palettes_manager.o
 .group         0x00000000        0xc bn_palettes_manager.o
 .group         0x00000000        0xc bn_palettes_manager.o
 .group         0x00000000        0xc bn_palettes_manager.o
 .group         0x00000000        0xc bn_palettes_manager.o
 .group         0x00000000        0xc bn_palettes_manager.o
 .group         0x00000000        0xc bn_palettes_manager.o
 .group         0x00000000        0xc bn_palettes_manager.o
 .group         0x00000000        0xc bn_palettes_manager.o
 .group         0x00000000        0xc bn_palettes_manager.o
 .group         0x00000000        0xc bn_palettes_manager.o
 .group         0x00000000        0xc bn_palettes_manager.o
 .group         0x00000000        0xc bn_palettes_manager.o
 .group         0x00000000        0xc bn_palettes_manager.o
 .group         0x00000000        0xc bn_palettes_manager.o
 .group         0x00000000        0xc bn_palettes_manager.o
 .group         0x00000000        0xc bn_palettes_manager.o
 .text          0x00000000        0x0 bn_palettes_manager.o
 .data          0x00000000        0x0 bn_palettes_manager.o
 .bss           0x00000000        0x0 bn_palettes_manager.o
 .text._ZN2bn13ostringstream11append_argsIiJA4_ciEEEvRKT_DpRKT0_.isra.0
                0x00000000       0x24 bn_palettes_manager.o
 .text._ZN2bn11bg_palettes17used_colors_countEv
                0x00000000       0x24 bn_palettes_manager.o
 .text._ZN2bn11bg_palettes22available_colors_countEv
                0x00000000       0x2c bn_palettes_manager.o
 .text._ZN2bn11bg_palettes17transparent_colorEv
                0x00000000        0x8 bn_palettes_manager.o
 .text._ZN2bn11bg_palettes21set_transparent_colorERKNS_8optionalINS_5colorEEE
                0x00000000       0x4c bn_palettes_manager.o
 .text._ZN2bn11bg_palettes24remove_transparent_colorEv
                0x00000000       0x30 bn_palettes_manager.o
 .text._ZN2bn11bg_palettes10brightnessEv
                0x00000000       0x10 bn_palettes_manager.o
 .text._ZN2bn11bg_palettes8contrastEv
                0x00000000       0x10 bn_palettes_manager.o
 .text._ZN2bn11bg_palettes9intensityEv
                0x00000000       0x10 bn_palettes_manager.o
 .text._ZN2bn11bg_palettes8invertedEv
                0x00000000       0x10 bn_palettes_manager.o
 .text._ZN2bn11bg_palettes12set_invertedEb
                0x00000000       0x90 bn_palettes_manager.o
 .text._ZN2bn11bg_palettes19grayscale_intensityEv
                0x00000000       0x10 bn_palettes_manager.o
 .text._ZN2bn11bg_palettes19hue_shift_intensityEv
                0x00000000       0x10 bn_palettes_manager.o
 .text._ZN2bn11bg_palettes10fade_colorEv
                0x00000000       0x10 bn_palettes_manager.o
 .text._ZN2bn11bg_palettes14fade_intensityEv
                0x00000000       0x10 bn_palettes_manager.o
 .text._ZN2bn11bg_palettes14set_fade_colorENS_5colorE
                0x00000000       0x40 bn_palettes_manager.o
 .text._ZNK2bn14bg_palette_ptr12colors_countEv
                0x00000000       0x18 bn_palettes_manager.o
 .text._ZNK2bn14bg_palette_ptr8invertedEv
                0x00000000       0x20 bn_palettes_manager.o
 .text._ZN2bn14bg_palette_ptr12set_invertedEb
                0x00000000       0x48 bn_palettes_manager.o
 .text._ZNK2bn14bg_palette_ptr19grayscale_intensityEv
                0x00000000       0x1c bn_palettes_manager.o
 .text._ZNK2bn14bg_palette_ptr19hue_shift_intensityEv
                0x00000000       0x14 bn_palettes_manager.o
 .text._ZNK2bn14bg_palette_ptr10fade_colorEv
                0x00000000       0x14 bn_palettes_manager.o
 .text._ZNK2bn14bg_palette_ptr14fade_intensityEv
                0x00000000       0x14 bn_palettes_manager.o
 .text._ZN2bn14bg_palette_ptr14set_fade_colorENS_5colorE
                0x00000000       0x68 bn_palettes_manager.o
 .text._ZNK2bn14bg_palette_ptr12rotate_countEv
                0x00000000       0x14 bn_palettes_manager.o
 .text._ZNK2bn14bg_palette_ptr18rotate_range_startEv
                0x00000000       0x14 bn_palettes_manager.o
 .text._ZNK2bn14bg_palette_ptr17rotate_range_sizeEv
                0x00000000       0x14 bn_palettes_manager.o
 .text._ZN2bn15sprite_palettes17used_colors_countEv
                0x00000000       0x24 bn_palettes_manager.o
 .text._ZN2bn15sprite_palettes22available_colors_countEv
                0x00000000       0x2c bn_palettes_manager.o
 .text._ZN2bn15sprite_palettes10brightnessEv
                0x00000000       0x10 bn_palettes_manager.o
 .text._ZN2bn15sprite_palettes8contrastEv
                0x00000000       0x10 bn_palettes_manager.o
 .text._ZN2bn15sprite_palettes9intensityEv
                0x00000000       0x10 bn_palettes_manager.o
 .text._ZN2bn15sprite_palettes8invertedEv
                0x00000000       0x10 bn_palettes_manager.o
 .text._ZN2bn15sprite_palettes12set_invertedEb
                0x00000000       0x88 bn_palettes_manager.o
 .text._ZN2bn15sprite_palettes19grayscale_intensityEv
                0x00000000       0x10 bn_palettes_manager.o
 .text._ZN2bn15sprite_palettes19hue_shift_intensityEv
                0x00000000       0x10 bn_palettes_manager.o
 .text._ZN2bn15sprite_palettes10fade_colorEv
                0x00000000       0x10 bn_palettes_manager.o
 .text._ZN2bn15sprite_palettes14fade_intensityEv
                0x00000000       0x10 bn_palettes_manager.o
 .text._ZN2bn15sprite_palettes14set_fade_colorENS_5colorE
                0x00000000       0x3c bn_palettes_manager.o
 .text._ZNK2bn18sprite_palette_ptr12colors_countEv
                0x00000000       0x1c bn_palettes_manager.o
 .text._ZNK2bn18sprite_palette_ptr8invertedEv
                0x00000000       0x1c bn_palettes_manager.o
 .text._ZN2bn18sprite_palette_ptr12set_invertedEb
                0x00000000       0x44 bn_palettes_manager.o
 .text._ZNK2bn18sprite_palette_ptr19grayscale_intensityEv
                0x00000000       0x18 bn_palettes_manager.o
 .text._ZNK2bn18sprite_palette_ptr19hue_shift_intensityEv
                0x00000000       0x18 bn_palettes_manager.o
 .text._ZNK2bn18sprite_palette_ptr10fade_colorEv
                0x00000000       0x18 bn_palettes_manager.o
 .text._ZNK2bn18sprite_palette_ptr14fade_intensityEv
                0x00000000       0x18 bn_palettes_manager.o
 .text._ZN2bn18sprite_palette_ptr14set_fade_colorENS_5colorE
                0x00000000       0x4c bn_palettes_manager.o
 .text._ZNK2bn18sprite_palette_ptr12rotate_countEv
                0x00000000       0x18 bn_palettes_manager.o
 .text._ZNK2bn18sprite_palette_ptr18rotate_range_startEv
                0x00000000       0x18 bn_palettes_manager.o
 .text._ZNK2bn18sprite_palette_ptr17rotate_range_sizeEv
                0x00000000       0x18 bn_palettes_manager.o
 .text._ZNK2bn13palettes_bank17used_colors_countEv
                0x00000000       0x20 bn_palettes_manager.o
 .text._ZN2bn11bg_palettes10log_statusEv
                0x00000000       0x14 bn_palettes_manager.o
 .text._ZN2bn15sprite_palettes10log_statusEv
                0x00000000       0x14 bn_palettes_manager.o
 .text._ZN2bn13palettes_bank10find_bpp_8ERKNS_4spanIKNS_5colorEEE
                0x00000000       0x3c bn_palettes_manager.o
 .text._ZN2bn13palettes_bank15increase_usagesEi
                0x00000000       0x10 bn_palettes_manager.o
 .text._ZNK2bn13palettes_bank3bppEi
                0x00000000       0x10 bn_palettes_manager.o
 .text._ZN2bn13palettes_bank12set_invertedEib
                0x00000000       0x38 bn_palettes_manager.o
 .text._ZN2bn13palettes_bank14set_fade_colorEiNS_5colorE
                0x00000000       0x40 bn_palettes_manager.o
 .text._ZN2bn13palettes_bank21set_transparent_colorERKNS_8optionalINS_5colorEEE
                0x00000000       0x40 bn_palettes_manager.o
 .text._ZN2bn13palettes_bank12set_invertedEb
                0x00000000       0x84 bn_palettes_manager.o
 .text._ZN2bn13palettes_bank14set_fade_colorENS_5colorE
                0x00000000       0x3c bn_palettes_manager.o
 .text._ZN2bn13palettes_bank17reset_commit_dataEv
                0x00000000       0x20 bn_palettes_manager.o
 .text._ZNK2bn13palettes_bank12_same_colorsERKNS_4spanIKNS_5colorEEEi
                0x00000000       0x3c bn_palettes_manager.o
 .text._ZNK2bn13palettes_bank18_bpp_8_slots_countEv
                0x00000000       0x18 bn_palettes_manager.o
 .text._ZNK2bn13palettes_bank26_first_bpp_4_palette_indexEv
                0x00000000       0x34 bn_palettes_manager.o
 .text._ZN2bn13palettes_bank25_on_global_effect_updatedEb
                0x00000000       0x80 bn_palettes_manager.o
 .text._ZN2bn13palettes_bank20_set_colors_bpp_implEiRKNS_4spanIKNS_5colorEEE
                0x00000000       0x40 bn_palettes_manager.o
 .text._ZN3_bn6assert9show_argsIA15_ciEEvPKcS4_S4_iRKT_RKT0_
                0x00000000       0x54 bn_palettes_manager.o
 .text._ZNK2bn13palettes_bank6colorsEi
                0x00000000       0x58 bn_palettes_manager.o
 .text._ZNK2bn14bg_palette_ptr6colorsEv
                0x00000000       0x60 bn_palettes_manager.o
 .text._ZNK2bn18sprite_palette_ptr6colorsEv
                0x00000000       0x60 bn_palettes_manager.o
 .text._ZN3_bn6assert9show_argsIJA58_ciA4_ciEEEvPKcS5_S5_iDpRKT_
                0x00000000       0x58 bn_palettes_manager.o
 .text._ZN3_bn6assert9show_argsIA27_ciEEvPKcS4_S4_iRKT_RKT0_
                0x00000000       0x54 bn_palettes_manager.o
 .text._ZN3_bn6assert9show_argsIA23_cEEvPKcS4_S4_iRKT_
                0x00000000       0x48 bn_palettes_manager.o
 .text._ZN3_bn6assert9show_argsIJA25_ciA4_ciEEEvPKcS5_S5_iDpRKT_
                0x00000000       0x58 bn_palettes_manager.o
 .text._ZN3_bn6assert9show_argsIJA22_ciA4_ciEEEvPKcS5_S5_iDpRKT_
                0x00000000       0x58 bn_palettes_manager.o
 .text._ZN3_bn6assert9show_argsIJA16_ciA4_caEEEvPKcS5_S5_iDpRKT_
                0x00000000       0x68 bn_palettes_manager.o
 .text._ZN2bn13palettes_bank16set_rotate_countEii
                0x00000000       0x78 bn_palettes_manager.o
 .text._ZN2bn14bg_palette_ptr16set_rotate_countEi
                0x00000000       0x9c bn_palettes_manager.o
 .text._ZN2bn18sprite_palette_ptr16set_rotate_countEi
                0x00000000       0x80 bn_palettes_manager.o
 .text._ZN3_bn6assert9show_argsIJA16_ciA4_ciEEEvPKcS5_S5_iDpRKT_
                0x00000000       0x58 bn_palettes_manager.o
 .text._ZN3_bn6assert9show_argsIJA15_ciA4_ciEEEvPKcS5_S5_iDpRKT_
                0x00000000       0x58 bn_palettes_manager.o
 .text._ZN3_bn6assert9show_argsIJA16_ciA4_ciS3_iEEEvPKcS5_S5_iDpRKT_
                0x00000000       0x68 bn_palettes_manager.o
 .rodata._ZN2bn13palettes_bank16set_rotate_rangeEiii.str1.4
                0x00000000       0xbe bn_palettes_manager.o
 .text._ZN2bn13palettes_bank16set_rotate_rangeEiii
                0x00000000      0x160 bn_palettes_manager.o
 .text._ZN2bn14bg_palette_ptr16set_rotate_rangeEii
                0x00000000       0x1c bn_palettes_manager.o
 .text._ZN2bn18sprite_palette_ptr16set_rotate_rangeEii
                0x00000000       0x1c bn_palettes_manager.o
 .text._ZN2bn13ostringstream6appendILi12EEEvNS_7fixed_tIXT_EEE
                0x00000000       0xa0 bn_palettes_manager.o
 .text._ZN3_bn6assert9show_argsIA20_cN2bn7fixed_tILi12EEEEEvPKcS7_S7_iRKT_RKT0_
                0x00000000       0x54 bn_palettes_manager.o
 .rodata._ZN2bn13palettes_bank23set_grayscale_intensityEiNS_7fixed_tILi12EEE.str1.4
                0x00000000       0x50 bn_palettes_manager.o
 .text._ZN2bn13palettes_bank23set_grayscale_intensityEiNS_7fixed_tILi12EEE
                0x00000000       0x70 bn_palettes_manager.o
 .rodata._ZN2bn13palettes_bank23set_hue_shift_intensityEiNS_7fixed_tILi12EEE.str1.4
                0x00000000       0x18 bn_palettes_manager.o
 .text._ZN2bn13palettes_bank23set_hue_shift_intensityEiNS_7fixed_tILi12EEE
                0x00000000       0x70 bn_palettes_manager.o
 .rodata._ZN2bn13palettes_bank18set_fade_intensityEiNS_7fixed_tILi12EEE.str1.4
                0x00000000       0x13 bn_palettes_manager.o
 .text._ZN2bn13palettes_bank18set_fade_intensityEiNS_7fixed_tILi12EEE
                0x00000000       0x70 bn_palettes_manager.o
 .rodata._ZN2bn13palettes_bank8set_fadeEiNS_5colorENS_7fixed_tILi12EEE.str1.4
                0x00000000        0x9 bn_palettes_manager.o
 .text._ZN2bn13palettes_bank8set_fadeEiNS_5colorENS_7fixed_tILi12EEE
                0x00000000       0x94 bn_palettes_manager.o
 .rodata._ZN2bn13palettes_bank13set_intensityENS_7fixed_tILi12EEE.str1.4
                0x00000000        0xe bn_palettes_manager.o
 .text._ZN2bn13palettes_bank13set_intensityENS_7fixed_tILi12EEE
                0x00000000       0x64 bn_palettes_manager.o
 .text._ZN2bn13palettes_bank23set_grayscale_intensityENS_7fixed_tILi12EEE
                0x00000000       0x60 bn_palettes_manager.o
 .text._ZN2bn13palettes_bank23set_hue_shift_intensityENS_7fixed_tILi12EEE
                0x00000000       0x64 bn_palettes_manager.o
 .text._ZN2bn13palettes_bank18set_fade_intensityENS_7fixed_tILi12EEE
                0x00000000       0x60 bn_palettes_manager.o
 .text._ZN2bn13palettes_bank8set_fadeENS_5colorENS_7fixed_tILi12EEE
                0x00000000       0x90 bn_palettes_manager.o
 .text._ZN2bn14bg_palette_ptr23set_grayscale_intensityENS_7fixed_tILi12EEE
                0x00000000       0x84 bn_palettes_manager.o
 .text._ZN2bn18sprite_palette_ptr23set_grayscale_intensityENS_7fixed_tILi12EEE
                0x00000000       0x78 bn_palettes_manager.o
 .text._ZN2bn14bg_palette_ptr23set_hue_shift_intensityENS_7fixed_tILi12EEE
                0x00000000       0x88 bn_palettes_manager.o
 .text._ZN2bn18sprite_palette_ptr23set_hue_shift_intensityENS_7fixed_tILi12EEE
                0x00000000       0x78 bn_palettes_manager.o
 .text._ZN2bn14bg_palette_ptr18set_fade_intensityENS_7fixed_tILi12EEE
                0x00000000       0x84 bn_palettes_manager.o
 .text._ZN2bn18sprite_palette_ptr18set_fade_intensityENS_7fixed_tILi12EEE
                0x00000000       0x78 bn_palettes_manager.o
 .text._ZN2bn11bg_palettes13set_intensityENS_7fixed_tILi12EEE
                0x00000000       0x70 bn_palettes_manager.o
 .text._ZN2bn15sprite_palettes13set_intensityENS_7fixed_tILi12EEE
                0x00000000       0x6c bn_palettes_manager.o
 .text._ZN2bn11bg_palettes23set_grayscale_intensityENS_7fixed_tILi12EEE
                0x00000000       0x70 bn_palettes_manager.o
 .text._ZN2bn15sprite_palettes23set_grayscale_intensityENS_7fixed_tILi12EEE
                0x00000000       0x68 bn_palettes_manager.o
 .text._ZN2bn11bg_palettes23set_hue_shift_intensityENS_7fixed_tILi12EEE
                0x00000000       0x70 bn_palettes_manager.o
 .text._ZN2bn15sprite_palettes23set_hue_shift_intensityENS_7fixed_tILi12EEE
                0x00000000       0x6c bn_palettes_manager.o
 .text._ZN2bn11bg_palettes18set_fade_intensityENS_7fixed_tILi12EEE
                0x00000000       0x70 bn_palettes_manager.o
 .text._ZN2bn15sprite_palettes18set_fade_intensityENS_7fixed_tILi12EEE
                0x00000000       0x68 bn_palettes_manager.o
 .text._ZN2bn11bg_palettes8set_fadeENS_5colorENS_7fixed_tILi12EEE
                0x00000000       0xa8 bn_palettes_manager.o
 .text._ZN2bn15sprite_palettes8set_fadeENS_5colorENS_7fixed_tILi12EEE
                0x00000000       0x9c bn_palettes_manager.o
 .text._ZN2bn14bg_palette_ptr8set_fadeENS_5colorENS_7fixed_tILi12EEE
                0x00000000       0xcc bn_palettes_manager.o
 .text._ZN2bn18sprite_palette_ptr8set_fadeENS_5colorENS_7fixed_tILi12EEE
                0x00000000       0xa4 bn_palettes_manager.o
 .text._ZN3_bn6assert9show_argsIA21_cN2bn7fixed_tILi12EEEEEvPKcS7_S7_iRKT_RKT0_
                0x00000000       0x54 bn_palettes_manager.o
 .rodata._ZN2bn13palettes_bank14set_brightnessENS_7fixed_tILi12EEE.str1.4
                0x00000000       0x49 bn_palettes_manager.o
 .text._ZN2bn13palettes_bank14set_brightnessENS_7fixed_tILi12EEE
                0x00000000       0x64 bn_palettes_manager.o
 .text._ZN2bn11bg_palettes14set_brightnessENS_7fixed_tILi12EEE
                0x00000000       0x70 bn_palettes_manager.o
 .text._ZN2bn15sprite_palettes14set_brightnessENS_7fixed_tILi12EEE
                0x00000000       0x6c bn_palettes_manager.o
 .text._ZN3_bn6assert9show_argsIA19_cN2bn7fixed_tILi12EEEEEvPKcS7_S7_iRKT_RKT0_
                0x00000000       0x54 bn_palettes_manager.o
 .rodata._ZN2bn13palettes_bank12set_contrastENS_7fixed_tILi12EEE.str1.4
                0x00000000       0x43 bn_palettes_manager.o
 .text._ZN2bn13palettes_bank12set_contrastENS_7fixed_tILi12EEE
                0x00000000       0x64 bn_palettes_manager.o
 .text._ZN2bn11bg_palettes12set_contrastENS_7fixed_tILi12EEE
                0x00000000       0x70 bn_palettes_manager.o
 .text._ZN2bn15sprite_palettes12set_contrastENS_7fixed_tILi12EEE
                0x00000000       0x68 bn_palettes_manager.o
 .text._ZN3_bn6assert9show_argsIA39_ciEEvPKcS4_S4_iRKT_RKT0_
                0x00000000       0x54 bn_palettes_manager.o
 .text._ZN3_bn6assert9show_argsIA17_cEEvPKcS4_S4_iRKT_
                0x00000000       0x48 bn_palettes_manager.o
 .text._ZN3_bn6assert9show_argsIA25_ciEEvPKcS4_S4_iRKT_RKT0_
                0x00000000       0x54 bn_palettes_manager.o
 .text._ZN3_bn6assert9show_argsIA26_cEEvPKcS4_S4_iRKT_
                0x00000000       0x48 bn_palettes_manager.o
 .text._ZNK2bn15bg_palette_item14create_paletteEv
                0x00000000       0x10 bn_palettes_manager.o
 .text._ZN2bn14bg_palette_ptr15create_optionalERKNS_15bg_palette_itemE
                0x00000000       0x64 bn_palettes_manager.o
 .text._ZNK2bn15bg_palette_item23create_palette_optionalEv
                0x00000000       0x10 bn_palettes_manager.o
 .text._ZN2bn18sprite_palette_ptr15create_optionalERKNS_19sprite_palette_itemE
                0x00000000       0x58 bn_palettes_manager.o
 .text._ZNK2bn19sprite_palette_item23create_palette_optionalEv
                0x00000000       0x58 bn_palettes_manager.o
 .text._ZN2bn18sprite_palette_ptr19create_new_optionalERKNS_19sprite_palette_itemE
                0x00000000       0xd0 bn_palettes_manager.o
 .text._ZNK2bn19sprite_palette_item27create_new_palette_optionalEv
                0x00000000       0x10 bn_palettes_manager.o
 .text._ZN2bn14bg_palette_ptr19create_new_optionalERKNS_15bg_palette_itemE
                0x00000000       0xdc bn_palettes_manager.o
 .text._ZNK2bn15bg_palette_item27create_new_palette_optionalEv
                0x00000000       0x10 bn_palettes_manager.o
 .text._ZNK2bn19sprite_palette_item18create_new_paletteEv
                0x00000000       0xc4 bn_palettes_manager.o
 .text._ZN2bn14bg_palette_ptr10create_newERKNS_15bg_palette_itemE
                0x00000000       0xd0 bn_palettes_manager.o
 .text._ZNK2bn15bg_palette_item18create_new_paletteEv
                0x00000000       0x10 bn_palettes_manager.o
 .text._ZN2bn18sprite_palette_ptr10create_newERKNS_19sprite_palette_itemE
                0x00000000       0xc4 bn_palettes_manager.o
 .text._ZN2bn14bg_palette_ptr4findERKNS_15bg_palette_itemE
                0x00000000      0x11c bn_palettes_manager.o
 .text._ZNK2bn15bg_palette_item12find_paletteEv
                0x00000000       0x10 bn_palettes_manager.o
 .text._ZN2bn18sprite_palette_ptr4findERKNS_19sprite_palette_itemE
                0x00000000       0xf8 bn_palettes_manager.o
 .text._ZNK2bn19sprite_palette_item12find_paletteEv
                0x00000000       0x10 bn_palettes_manager.o
 .rodata._ZN2bn13palettes_bank10set_colorsEiRKNS_4spanIKNS_5colorEEE.str1.4
                0x00000000       0x25 bn_palettes_manager.o
 .text._ZN2bn13palettes_bank10set_colorsEiRKNS_4spanIKNS_5colorEEE
                0x00000000      0x104 bn_palettes_manager.o
 .text._ZN2bn14bg_palette_ptr10set_colorsERKNS_15bg_palette_itemE
                0x00000000       0x58 bn_palettes_manager.o
 .text._ZN2bn18sprite_palette_ptr10set_colorsERKNS_19sprite_palette_itemE
                0x00000000       0x58 bn_palettes_manager.o
 .rodata._ZN2bn13palettes_bank9set_colorEiiNS_5colorE.str1.4
                0x00000000       0x52 bn_palettes_manager.o
 .text._ZN2bn13palettes_bank9set_colorEiiNS_5colorE
                0x00000000      0x134 bn_palettes_manager.o
 .text._ZN2bn14bg_palette_ptr9set_colorEiNS_5colorE
                0x00000000       0x1c bn_palettes_manager.o
 .text._ZN2bn18sprite_palette_ptr9set_colorEiNS_5colorE
                0x00000000       0x1c bn_palettes_manager.o
 .text          0x00000000        0x0 bn_profiler.o
 .data          0x00000000        0x0 bn_profiler.o
 .bss           0x00000000        0x0 bn_profiler.o
 .debug_info    0x00000000      0x45f bn_profiler.o
 .debug_abbrev  0x00000000       0xdc bn_profiler.o
 .debug_aranges
                0x00000000       0x18 bn_profiler.o
 .debug_line    0x00000000      0x281 bn_profiler.o
 .debug_str     0x00000000      0x4e4 bn_profiler.o
 .comment       0x00000000       0x24 bn_profiler.o
 .group         0x00000000        0xc bn_regular_bg_animate_actions.o
 .group         0x00000000        0xc bn_regular_bg_animate_actions.o
 .group         0x00000000        0xc bn_regular_bg_animate_actions.o
 .group         0x00000000        0xc bn_regular_bg_animate_actions.o
 .group         0x00000000        0xc bn_regular_bg_animate_actions.o
 .group         0x00000000        0xc bn_regular_bg_animate_actions.o
 .group         0x00000000        0xc bn_regular_bg_animate_actions.o
 .group         0x00000000        0xc bn_regular_bg_animate_actions.o
 .group         0x00000000        0xc bn_regular_bg_animate_actions.o
 .text          0x00000000        0x0 bn_regular_bg_animate_actions.o
 .data          0x00000000        0x0 bn_regular_bg_animate_actions.o
 .bss           0x00000000        0x0 bn_regular_bg_animate_actions.o
 .text._ZN2bn13ostringstream11append_argsIiJA4_ciEEEvRKT_DpRKT0_.isra.0
                0x00000000       0x24 bn_regular_bg_animate_actions.o
 .text._ZN2bn26iregular_bg_animate_action9_set_refsERNS_14regular_bg_ptrERNS_19regular_bg_map_itemERNS_7ivectorItEE
                0x00000000        0x4 bn_regular_bg_animate_actions.o
 .text._ZN2bn26iregular_bg_animate_action7_assignERKS0_
                0x00000000       0x10 bn_regular_bg_animate_actions.o
 .text._ZN2bn33iregular_bg_cached_animate_action9_set_refsERNS_14regular_bg_ptrERNS_7ivectorINS_18regular_bg_map_ptrEEE
                0x00000000        0x4 bn_regular_bg_animate_actions.o
 .text._ZN2bn33iregular_bg_cached_animate_action7_assignERKS0_
                0x00000000       0x10 bn_regular_bg_animate_actions.o
 .text._ZN3_bn6assert9show_argsIJA16_ciA4_ciEEEvPKcS5_S5_iDpRKT_
                0x00000000       0x58 bn_regular_bg_animate_actions.o
 .text._ZN3_bn6assert9show_argsIJA23_ciA4_ciEEEvPKcS5_S5_iDpRKT_
                0x00000000       0x58 bn_regular_bg_animate_actions.o
 .text._ZN3_bn6assert9show_argsIA15_cEEvPKcS4_S4_iRKT_
                0x00000000       0x48 bn_regular_bg_animate_actions.o
 .rodata._ZN2bn26iregular_bg_animate_action6updateEv.str1.4
                0x00000000       0x90 bn_regular_bg_animate_actions.o
 .text._ZN2bn26iregular_bg_animate_action6updateEv
                0x00000000       0xb8 bn_regular_bg_animate_actions.o
 .text._ZN2bn33iregular_bg_cached_animate_action6updateEv
                0x00000000       0xa4 bn_regular_bg_animate_actions.o
 .text._ZN3_bn6assert9show_argsIA23_ciEEvPKcS4_S4_iRKT_RKT0_
                0x00000000       0x54 bn_regular_bg_animate_actions.o
 .text._ZN3_bn6assert9show_argsIA24_ciEEvPKcS4_S4_iRKT_RKT0_
                0x00000000       0x54 bn_regular_bg_animate_actions.o
 .rodata._ZN2bn26iregular_bg_animate_action16set_wait_updatesEi.str1.4
                0x00000000       0x98 bn_regular_bg_animate_actions.o
 .text._ZN2bn26iregular_bg_animate_action16set_wait_updatesEi
                0x00000000       0x68 bn_regular_bg_animate_actions.o
 .text._ZN2bn33iregular_bg_cached_animate_action16set_wait_updatesEi
                0x00000000       0x68 bn_regular_bg_animate_actions.o
 .text._ZN3_bn6assert9show_argsIA28_ciEEvPKcS4_S4_iRKT_RKT0_
                0x00000000       0x54 bn_regular_bg_animate_actions.o
 .rodata._ZN2bn26iregular_bg_animate_action19_assign_map_indexesERKNS_4spanIKtEE.str1.4
                0x00000000       0x9f bn_regular_bg_animate_actions.o
 .text._ZN2bn26iregular_bg_animate_action19_assign_map_indexesERKNS_4spanIKtEE
                0x00000000       0x84 bn_regular_bg_animate_actions.o
 .text._ZN3_bn6assert9show_argsIJA28_ciA4_ciEEEvPKcS5_S5_iDpRKT_
                0x00000000       0x58 bn_regular_bg_animate_actions.o
 .rodata._ZN2bn33iregular_bg_cached_animate_action19_assign_map_indexesERKNS_19regular_bg_map_itemERKNS_4spanIKtEE.str1.4
                0x00000000       0x46 bn_regular_bg_animate_actions.o
 .text._ZN2bn33iregular_bg_cached_animate_action19_assign_map_indexesERKNS_19regular_bg_map_itemERKNS_4spanIKtEE
                0x00000000      0x104 bn_regular_bg_animate_actions.o
 .text._ZN3_bn6assert9show_argsIJA21_ciA4_ciEEEvPKcS5_S5_iDpRKT_
                0x00000000       0x58 bn_regular_bg_animate_actions.o
 .rodata._ZN2bn33iregular_bg_cached_animate_action12_assign_mapsENS_4spanINS_18regular_bg_map_ptrEEE.str1.4
                0x00000000       0x5d bn_regular_bg_animate_actions.o
 .text._ZN2bn33iregular_bg_cached_animate_action12_assign_mapsENS_4spanINS_18regular_bg_map_ptrEEE
                0x00000000       0x9c bn_regular_bg_animate_actions.o
 .text._ZN3_bn6assert9show_argsIJA19_ciA4_ciEEEvPKcS5_S5_iDpRKT_
                0x00000000       0x58 bn_regular_bg_animate_actions.o
 .rodata._ZN2bn33iregular_bg_cached_animate_actionaSERKS0_.str1.4
                0x00000000       0x77 bn_regular_bg_animate_actions.o
 .text._ZN2bn33iregular_bg_cached_animate_actionaSERKS0_
                0x00000000       0xfc bn_regular_bg_animate_actions.o
 .text._ZN2bn33iregular_bg_cached_animate_actionaSEOS0_
                0x00000000      0x118 bn_regular_bg_animate_actions.o
 .rodata._ZN2bn26iregular_bg_animate_actionaSEOS0_.str1.4
                0x00000000       0x4f bn_regular_bg_animate_actions.o
 .text._ZN2bn26iregular_bg_animate_actionaSEOS0_
                0x00000000       0xcc bn_regular_bg_animate_actions.o
 .text._ZN2bn33iregular_bg_cached_animate_action12_assign_mapsERKNS_7ivectorINS_18regular_bg_map_ptrEEE
                0x00000000       0x8c bn_regular_bg_animate_actions.o
 .text._ZN2bn33iregular_bg_cached_animate_action12_assign_mapsEONS_7ivectorINS_18regular_bg_map_ptrEEE
                0x00000000       0xa0 bn_regular_bg_animate_actions.o
 .text._ZN2bn26iregular_bg_animate_action19_assign_map_indexesERKNS_7ivectorItEE
                0x00000000       0x60 bn_regular_bg_animate_actions.o
 .text._ZN2bn26iregular_bg_animate_actionaSERKS0_
                0x00000000       0xcc bn_regular_bg_animate_actions.o
 .debug_info    0x00000000     0xdf34 bn_regular_bg_animate_actions.o
 .debug_abbrev  0x00000000      0xdc0 bn_regular_bg_animate_actions.o
 .debug_loc     0x00000000     0x2abd bn_regular_bg_animate_actions.o
 .debug_aranges
                0x00000000       0xf8 bn_regular_bg_animate_actions.o
 .debug_ranges  0x00000000      0x708 bn_regular_bg_animate_actions.o
 .debug_line    0x00000000     0x1ff7 bn_regular_bg_animate_actions.o
 .debug_str     0x00000000     0xbb84 bn_regular_bg_animate_actions.o
 .comment       0x00000000       0x24 bn_regular_bg_animate_actions.o
 .debug_frame   0x00000000      0x3a0 bn_regular_bg_animate_actions.o
 .group         0x00000000        0xc bn_sprite_affine_mats_manager.o
 .group         0x00000000        0xc bn_sprite_affine_mats_manager.o
 .group         0x00000000        0xc bn_sprite_affine_mats_manager.o
 .group         0x00000000        0xc bn_sprite_affine_mats_manager.o
 .group         0x00000000        0xc bn_sprite_affine_mats_manager.o
 .group         0x00000000        0xc bn_sprite_affine_mats_manager.o
 .group         0x00000000        0xc bn_sprite_affine_mats_manager.o
 .group         0x00000000        0xc bn_sprite_affine_mats_manager.o
 .group         0x00000000        0xc bn_sprite_affine_mats_manager.o
 .group         0x00000000        0xc bn_sprite_affine_mats_manager.o
 .group         0x00000000        0xc bn_sprite_affine_mats_manager.o
 .text          0x00000000        0x0 bn_sprite_affine_mats_manager.o
 .data          0x00000000        0x0 bn_sprite_affine_mats_manager.o
 .bss           0x00000000        0x0 bn_sprite_affine_mats_manager.o
 .text._ZN2bn18sprite_affine_mats10used_countEv
                0x00000000       0x1c bn_sprite_affine_mats_manager.o
 .text._ZN2bn18sprite_affine_mats15available_countEv
                0x00000000       0x10 bn_sprite_affine_mats_manager.o
 .text._ZNK2bn21sprite_affine_mat_ptr10attributesEv
                0x00000000       0x14 bn_sprite_affine_mats_manager.o
 .text._ZNK2bn21sprite_affine_mat_ptr8identityEv
                0x00000000       0x4c bn_sprite_affine_mats_manager.o
 .text._ZN2bn26sprite_affine_mats_manager10used_countEv
                0x00000000       0x1c bn_sprite_affine_mats_manager.o
 .text._ZN2bn26sprite_affine_mats_manager15available_countEv
                0x00000000       0x10 bn_sprite_affine_mats_manager.o
 .text._ZN2bn26sprite_affine_mats_manager15increase_usagesEi
                0x00000000       0x18 bn_sprite_affine_mats_manager.o
 .text._ZN2bn26sprite_affine_mats_manager14rotation_angleEi
                0x00000000       0x10 bn_sprite_affine_mats_manager.o
 .text._ZN2bn26sprite_affine_mats_manager16horizontal_scaleEi
                0x00000000       0x14 bn_sprite_affine_mats_manager.o
 .text._ZN2bn26sprite_affine_mats_manager14vertical_scaleEi
                0x00000000       0x14 bn_sprite_affine_mats_manager.o
 .text._ZN2bn26sprite_affine_mats_manager16horizontal_shearEi
                0x00000000       0x14 bn_sprite_affine_mats_manager.o
 .text._ZN2bn26sprite_affine_mats_manager20set_horizontal_shearEiNS_7fixed_tILi12EEE
                0x00000000       0x88 bn_sprite_affine_mats_manager.o
 .text._ZN2bn26sprite_affine_mats_manager14vertical_shearEi
                0x00000000       0x14 bn_sprite_affine_mats_manager.o
 .text._ZN2bn26sprite_affine_mats_manager18set_vertical_shearEiNS_7fixed_tILi12EEE
                0x00000000       0x84 bn_sprite_affine_mats_manager.o
 .text._ZN2bn26sprite_affine_mats_manager9set_shearEiNS_7fixed_tILi12EEES2_
                0x00000000       0xd4 bn_sprite_affine_mats_manager.o
 .text._ZN2bn21sprite_affine_mat_ptr9set_shearENS_7fixed_tILi12EEES2_
                0x00000000       0x14 bn_sprite_affine_mats_manager.o
 .text._ZN2bn26sprite_affine_mats_manager15horizontal_flipEi
                0x00000000       0x14 bn_sprite_affine_mats_manager.o
 .text._ZN2bn26sprite_affine_mats_manager19set_horizontal_flipEib
                0x00000000       0x70 bn_sprite_affine_mats_manager.o
 .text._ZN2bn26sprite_affine_mats_manager13vertical_flipEi
                0x00000000       0x14 bn_sprite_affine_mats_manager.o
 .text._ZN2bn26sprite_affine_mats_manager17set_vertical_flipEib
                0x00000000       0x70 bn_sprite_affine_mats_manager.o
 .text._ZN2bn26sprite_affine_mats_manager10attributesEi
                0x00000000       0x10 bn_sprite_affine_mats_manager.o
 .text._ZN2bn26sprite_affine_mats_manager14set_attributesEiRKNS_21affine_mat_attributesE
                0x00000000      0x100 bn_sprite_affine_mats_manager.o
 .text._ZN2bn21sprite_affine_mat_ptr14set_attributesERKNS_21affine_mat_attributesE
                0x00000000       0x14 bn_sprite_affine_mats_manager.o
 .text._ZN2bn26sprite_affine_mats_manager8identityEi
                0x00000000       0x48 bn_sprite_affine_mats_manager.o
 .text._ZN2bn26sprite_affine_mats_manager16flipped_identityEi
                0x00000000       0x10 bn_sprite_affine_mats_manager.o
 .text._ZN3_bn6assert9show_argsIJA46_ciA4_ciEEEvPKcS5_S5_iDpRKT_
                0x00000000       0x64 bn_sprite_affine_mats_manager.o
 .text._ZN2bn26sprite_affine_mats_manager22reserve_sprite_handlesEi
                0x00000000       0xb0 bn_sprite_affine_mats_manager.o
 .text._ZN2bn13ostringstream6appendILi12EEEvNS_7fixed_tIXT_EEE
                0x00000000       0xa0 bn_sprite_affine_mats_manager.o
 .text._ZN3_bn6assert9show_argsIA38_cN2bn7fixed_tILi12EEEEEvPKcS7_S7_iRKT_RKT0_
                0x00000000       0x54 bn_sprite_affine_mats_manager.o
 .text._ZN2bn21sprite_affine_mat_ptr23set_rotation_angle_safeENS_7fixed_tILi12EEE
                0x00000000       0x2c bn_sprite_affine_mats_manager.o
 .text._ZN3_bn6assert9show_argsIA27_cN2bn7fixed_tILi12EEEEEvPKcS7_S7_iRKT_RKT0_
                0x00000000       0x54 bn_sprite_affine_mats_manager.o
 .text._ZN3_bn6assert9show_argsIA25_cN2bn7fixed_tILi12EEEEEvPKcS7_S7_iRKT_RKT0_
                0x00000000       0x54 bn_sprite_affine_mats_manager.o
 .text._ZN2bn26sprite_affine_mats_manager9set_scaleEiNS_7fixed_tILi12EEES2_
                0x00000000      0x1d0 bn_sprite_affine_mats_manager.o
 .text._ZN2bn21sprite_affine_mat_ptr9set_scaleENS_7fixed_tILi12EEES2_
                0x00000000       0x14 bn_sprite_affine_mats_manager.o
 .text._ZN3_bn6assert9show_argsIA16_cN2bn7fixed_tILi12EEEEEvPKcS7_S7_iRKT_RKT0_
                0x00000000       0x54 bn_sprite_affine_mats_manager.o
 .text._ZN3_bn6assert9show_argsIA17_cEEvPKcS4_S4_iRKT_
                0x00000000       0x48 bn_sprite_affine_mats_manager.o
 .text._ZN2bn26sprite_affine_mats_manager15create_optionalEv
                0x00000000       0x78 bn_sprite_affine_mats_manager.o
 .text._ZN2bn26sprite_affine_mats_manager6createERKNS_21affine_mat_attributesE
                0x00000000       0x34 bn_sprite_affine_mats_manager.o
 .text._ZN2bn21sprite_affine_mat_ptr15create_optionalERKNS_21affine_mat_attributesE
                0x00000000       0x24 bn_sprite_affine_mats_manager.o
 .text._ZN2bn21sprite_affine_mat_ptr15create_optionalEv
                0x00000000       0x9c bn_sprite_affine_mats_manager.o
 .text._ZN2bn26sprite_affine_mats_manager6createEv
                0x00000000       0xac bn_sprite_affine_mats_manager.o
 .text._ZN3_bn6assert9show_argsIA15_cEEvPKcS4_S4_iRKT_
                0x00000000       0x48 bn_sprite_affine_mats_manager.o
 .text._ZN2bn26sprite_affine_mats_manager15decrease_usagesEi
                0x00000000       0x28 bn_sprite_affine_mats_manager.o
 .text._ZN3_bn6assert9show_argsIA14_cEEvPKcS4_S4_iRKT_
                0x00000000       0x48 bn_sprite_affine_mats_manager.o
 .group         0x00000000        0xc bn_sprite_animate_actions.o
 .group         0x00000000        0xc bn_sprite_animate_actions.o
 .group         0x00000000        0xc bn_sprite_animate_actions.o
 .group         0x00000000        0xc bn_sprite_animate_actions.o
 .group         0x00000000        0xc bn_sprite_animate_actions.o
 .group         0x00000000        0xc bn_sprite_animate_actions.o
 .group         0x00000000        0xc bn_sprite_animate_actions.o
 .group         0x00000000        0xc bn_sprite_animate_actions.o
 .group         0x00000000        0xc bn_sprite_animate_actions.o
 .group         0x00000000        0xc bn_sprite_animate_actions.o
 .text          0x00000000        0x0 bn_sprite_animate_actions.o
 .data          0x00000000        0x0 bn_sprite_animate_actions.o
 .bss           0x00000000        0x0 bn_sprite_animate_actions.o
 .text._ZN2bn13ostringstream11append_argsIiJA4_ciEEEvRKT_DpRKT0_.isra.0
                0x00000000       0x24 bn_sprite_animate_actions.o
 .text._ZN2bn29isprite_cached_animate_action9_set_refsERNS_10sprite_ptrERNS_7ivectorINS_16sprite_tiles_ptrEEE
                0x00000000        0x4 bn_sprite_animate_actions.o
 .text._ZN2bn29isprite_cached_animate_action7_assignERKS0_
                0x00000000       0x10 bn_sprite_animate_actions.o
 .text._ZN3_bn6assert9show_argsIJA28_ciA4_ciEEEvPKcS5_S5_iDpRKT_
                0x00000000       0x58 bn_sprite_animate_actions.o
 .text._ZN3_bn6assert9show_argsIA15_cEEvPKcS4_S4_iRKT_
                0x00000000       0x48 bn_sprite_animate_actions.o
 .text._ZN3_bn6assert9show_argsIA23_ciEEvPKcS4_S4_iRKT_RKT0_
                0x00000000       0x54 bn_sprite_animate_actions.o
 .text._ZN3_bn6assert9show_argsIA24_ciEEvPKcS4_S4_iRKT_RKT0_
                0x00000000       0x54 bn_sprite_animate_actions.o
 .text._ZN2bn29isprite_cached_animate_action16set_wait_updatesEi
                0x00000000       0x68 bn_sprite_animate_actions.o
 .text._ZN3_bn6assert9show_argsIJA17_ciA4_ciEEEvPKcS5_S5_iDpRKT_
                0x00000000       0x58 bn_sprite_animate_actions.o
 .text._ZN3_bn6assert9show_argsIJA33_ciA4_ciEEEvPKcS5_S5_iDpRKT_
                0x00000000       0x58 bn_sprite_animate_actions.o
 .text._ZN2bn29isprite_cached_animate_action24_assign_graphics_indexesERKNS_17sprite_tiles_itemERKNS_4spanIKtEE
                0x00000000       0xcc bn_sprite_animate_actions.o
 .text._ZN3_bn6assert9show_argsIJA22_ciA4_ciEEEvPKcS5_S5_iDpRKT_
                0x00000000       0x58 bn_sprite_animate_actions.o
 .rodata._ZN2bn29isprite_cached_animate_action18_assign_tiles_listENS_4spanINS_16sprite_tiles_ptrEEE.str1.4
                0x00000000       0x76 bn_sprite_animate_actions.o
 .text._ZN2bn29isprite_cached_animate_action18_assign_tiles_listENS_4spanINS_16sprite_tiles_ptrEEE
                0x00000000       0xa0 bn_sprite_animate_actions.o
 .text._ZN3_bn6assert9show_argsIJA16_ciA4_ciEEEvPKcS5_S5_iDpRKT_
                0x00000000       0x58 bn_sprite_animate_actions.o
 .text._ZN2bn29isprite_cached_animate_action6updateEv
                0x00000000       0xa8 bn_sprite_animate_actions.o
 .text._ZN3_bn6assert9show_argsIJA19_ciA4_ciEEEvPKcS5_S5_iDpRKT_
                0x00000000       0x58 bn_sprite_animate_actions.o
 .rodata._ZN2bn29isprite_cached_animate_actionaSERKS0_.str1.4
                0x00000000       0x87 bn_sprite_animate_actions.o
 .text._ZN2bn29isprite_cached_animate_actionaSERKS0_
                0x00000000      0x100 bn_sprite_animate_actions.o
 .text._ZN2bn29isprite_cached_animate_actionaSEOS0_
                0x00000000      0x11c bn_sprite_animate_actions.o
 .rodata._ZN2bn22isprite_animate_actionaSEOS0_.str1.4
                0x00000000       0x60 bn_sprite_animate_actions.o
 .text._ZN2bn22isprite_animate_actionaSEOS0_
                0x00000000       0xc8 bn_sprite_animate_actions.o
 .text._ZN2bn29isprite_cached_animate_action18_assign_tiles_listERKNS_7ivectorINS_16sprite_tiles_ptrEEE
                0x00000000       0x90 bn_sprite_animate_actions.o
 .text._ZN2bn29isprite_cached_animate_action18_assign_tiles_listEONS_7ivectorINS_16sprite_tiles_ptrEEE
                0x00000000       0xa8 bn_sprite_animate_actions.o
 .text._ZN2bn22isprite_animate_action24_assign_graphics_indexesERKNS_7ivectorItEE
                0x00000000       0x60 bn_sprite_animate_actions.o
 .text._ZN2bn22isprite_animate_actionaSERKS0_
                0x00000000       0xc8 bn_sprite_animate_actions.o
 .text          0x00000000        0x0 bn_sprites_manager.bn_iwram.o
 .data          0x00000000        0x0 bn_sprites_manager.bn_iwram.o
 .bss           0x00000000        0x0 bn_sprites_manager.bn_iwram.o
 .group         0x00000000        0xc bn_sprites_manager.o
 .group         0x00000000        0xc bn_sprites_manager.o
 .group         0x00000000        0xc bn_sprites_manager.o
 .group         0x00000000        0xc bn_sprites_manager.o
 .group         0x00000000        0xc bn_sprites_manager.o
 .group         0x00000000        0xc bn_sprites_manager.o
 .group         0x00000000        0xc bn_sprites_manager.o
 .group         0x00000000        0xc bn_sprites_manager.o
 .group         0x00000000        0xc bn_sprites_manager.o
 .group         0x00000000        0xc bn_sprites_manager.o
 .group         0x00000000        0xc bn_sprites_manager.o
 .group         0x00000000        0xc bn_sprites_manager.o
 .group         0x00000000        0xc bn_sprites_manager.o
 .group         0x00000000        0xc bn_sprites_manager.o
 .group         0x00000000        0xc bn_sprites_manager.o
 .group         0x00000000        0xc bn_sprites_manager.o
 .group         0x00000000        0xc bn_sprites_manager.o
 .group         0x00000000        0xc bn_sprites_manager.o
 .group         0x00000000        0xc bn_sprites_manager.o
 .group         0x00000000        0xc bn_sprites_manager.o
 .group         0x00000000        0xc bn_sprites_manager.o
 .group         0x00000000        0xc bn_sprites_manager.o
 .group         0x00000000        0xc bn_sprites_manager.o
 .group         0x00000000        0xc bn_sprites_manager.o
 .group         0x00000000        0xc bn_sprites_manager.o
 .group         0x00000000        0xc bn_sprites_manager.o
 .group         0x00000000        0xc bn_sprites_manager.o
 .group         0x00000000        0xc bn_sprites_manager.o
 .group         0x00000000        0xc bn_sprites_manager.o
 .group         0x00000000        0xc bn_sprites_manager.o
 .text          0x00000000        0x0 bn_sprites_manager.o
 .data          0x00000000        0x0 bn_sprites_manager.o
 .bss           0x00000000        0x0 bn_sprites_manager.o
 .text._ZN2bn7sprites16used_items_countEv
                0x00000000        0xc bn_sprites_manager.o
 .text._ZN2bn7sprites21available_items_countEv
                0x00000000       0x10 bn_sprites_manager.o
 .text._ZN2bn7sprites23blending_bottom_enabledEv
                0x00000000        0xc bn_sprites_manager.o
 .text._ZN2bn7sprites27set_blending_bottom_enabledEb
                0x00000000        0xc bn_sprites_manager.o
 .text._ZN2bn7sprites22reserved_handles_countEv
                0x00000000       0x10 bn_sprites_manager.o
 .text._ZN2bn7sprites6reloadEv
                0x00000000       0x24 bn_sprites_manager.o
 .text._ZNK2bn10sprite_ptr10shape_sizeEv
                0x00000000       0x14 bn_sprites_manager.o
 .text._ZN2bn10sprite_ptr12set_positionENS_7fixed_tILi12EEES2_
                0x00000000       0x70 bn_sprites_manager.o
 .text._ZNK2bn10sprite_ptr13vertical_flipEv
                0x00000000       0x20 bn_sprites_manager.o
 .text._ZNK2bn10sprite_ptr14mosaic_enabledEv
                0x00000000        0xc bn_sprites_manager.o
 .text._ZNK2bn10sprite_ptr16blending_enabledEv
                0x00000000        0xc bn_sprites_manager.o
 .text._ZNK2bn10sprite_ptr14window_enabledEv
                0x00000000        0xc bn_sprites_manager.o
 .text._ZNK2bn10sprite_ptr11double_sizeEv
                0x00000000        0xc bn_sprites_manager.o
 .text._ZNK2bn10sprite_ptr6cameraEv
                0x00000000        0x8 bn_sprites_manager.o
 .text._ZN2bn10sprite_ptr13remove_cameraEv
                0x00000000       0x7c bn_sprites_manager.o
 .text._ZNK2bn10sprite_ptr10affine_matEv
                0x00000000        0x8 bn_sprites_manager.o
 .text._ZNK2bn10sprite_ptr33remove_affine_mat_when_not_neededEv
                0x00000000        0xc bn_sprites_manager.o
 .text._ZN2bn10sprite_ptr37set_remove_affine_mat_when_not_neededEb
                0x00000000       0x1c bn_sprites_manager.o
 .text._ZNK2bn11sprite_item10decompressENS_4spanINS_4tileEEENS1_INS_5colorEEE
                0x00000000       0x4c bn_sprites_manager.o
 .text._ZNK2bn14sprite_builder14rotation_angleEv
                0x00000000       0x18 bn_sprites_manager.o
 .text._ZNK2bn14sprite_builder16horizontal_scaleEv
                0x00000000       0x1c bn_sprites_manager.o
 .text._ZNK2bn14sprite_builder14vertical_scaleEv
                0x00000000       0x1c bn_sprites_manager.o
 .text._ZNK2bn14sprite_builder16horizontal_shearEv
                0x00000000       0x18 bn_sprites_manager.o
 .text._ZN2bn14sprite_builder20set_horizontal_shearENS_7fixed_tILi12EEE
                0x00000000       0xac bn_sprites_manager.o
 .text._ZNK2bn14sprite_builder14vertical_shearEv
                0x00000000       0x18 bn_sprites_manager.o
 .text._ZN2bn14sprite_builder18set_vertical_shearENS_7fixed_tILi12EEE
                0x00000000       0xac bn_sprites_manager.o
 .text._ZN2bn14sprite_builder9set_shearENS_7fixed_tILi12EEE
                0x00000000       0xb4 bn_sprites_manager.o
 .text._ZN2bn14sprite_builder9set_shearENS_7fixed_tILi12EEES2_
                0x00000000       0xb8 bn_sprites_manager.o
 .text._ZNK2bn14sprite_builder15horizontal_flipEv
                0x00000000       0x1c bn_sprites_manager.o
 .text._ZNK2bn14sprite_builder13vertical_flipEv
                0x00000000       0x1c bn_sprites_manager.o
 .text._ZN2bn14sprite_builder17set_vertical_flipEb
                0x00000000       0x1c bn_sprites_manager.o
 .text._ZN2bn14sprite_builder14release_cameraEv
                0x00000000       0x30 bn_sprites_manager.o
 .text._ZNK2bn14sprite_builder14tiles_optionalEv
                0x00000000       0x8c bn_sprites_manager.o
 .text._ZNK2bn14sprite_builder16palette_optionalEv
                0x00000000       0x80 bn_sprites_manager.o
 .text._ZN2bn14sprite_builder22release_tiles_optionalEv
                0x00000000       0xa0 bn_sprites_manager.o
 .text._ZN2bn14sprite_builder24release_palette_optionalEv
                0x00000000       0x94 bn_sprites_manager.o
 .text._ZN2bn14sprite_builder14set_affine_matERKNS_21sprite_affine_mat_ptrE
                0x00000000       0x2c bn_sprites_manager.o
 .text._ZN2bn14sprite_builder14set_affine_matEONS_21sprite_affine_mat_ptrE
                0x00000000       0x30 bn_sprites_manager.o
 .text._ZN2bn14sprite_builder14set_affine_matERKNS_8optionalINS_21sprite_affine_mat_ptrEEE
                0x00000000       0x40 bn_sprites_manager.o
 .text._ZN2bn14sprite_builder14set_affine_matEONS_8optionalINS_21sprite_affine_mat_ptrEEE
                0x00000000       0x48 bn_sprites_manager.o
 .text._ZN2bn14sprite_builder18release_affine_matEv
                0x00000000       0x30 bn_sprites_manager.o
 .text._ZN2bn31sprite_affine_second_attributesC2ENS_7fixed_tILi12EEERKNS_21sprite_affine_mat_ptrE
                0x00000000       0x14 bn_sprites_manager.o
 .text._ZN2bn31sprite_affine_second_attributesC2ENS_7fixed_tILi12EEEONS_21sprite_affine_mat_ptrE
                0x00000000       0x10 bn_sprites_manager.o
 .text._ZN2bn15sprites_manager16used_items_countEv
                0x00000000        0xc bn_sprites_manager.o
 .text._ZN2bn15sprites_manager21available_items_countEv
                0x00000000       0x10 bn_sprites_manager.o
 .text._ZN2bn15sprites_manager15increase_usagesEPv
                0x00000000        0x8 bn_sprites_manager.o
 .text._ZN2bn15sprites_manager12remove_tilesEPv
                0x00000000       0x1c bn_sprites_manager.o
 .text._ZN2bn15sprites_manager14remove_paletteEPv
                0x00000000       0x1c bn_sprites_manager.o
 .text._ZN2bn15sprites_manager8positionEPv
                0x00000000        0x4 bn_sprites_manager.o
 .text._ZN2bn15sprites_manager5set_xEPvNS_7fixed_tILi12EEE
                0x00000000       0x48 bn_sprites_manager.o
 .text._ZN2bn15sprites_manager5set_yEPvNS_7fixed_tILi12EEE
                0x00000000       0x44 bn_sprites_manager.o
 .text._ZN2bn15sprites_manager12set_positionEPvRKNS_13fixed_point_tILi12EEE
                0x00000000       0x78 bn_sprites_manager.o
 .text._ZN2bn15sprites_manager11bg_priorityEPv
                0x00000000        0x4 bn_sprites_manager.o
 .text._ZN2bn15sprites_manager7z_orderEPv
                0x00000000       0x10 bn_sprites_manager.o
 .text._ZN2bn15sprites_manager15horizontal_flipEPv
                0x00000000       0x20 bn_sprites_manager.o
 .text._ZN2bn15sprites_manager13vertical_flipEPv
                0x00000000       0x20 bn_sprites_manager.o
 .text._ZN2bn15sprites_manager14mosaic_enabledEPv
                0x00000000        0x8 bn_sprites_manager.o
 .text._ZN2bn15sprites_manager18set_mosaic_enabledEPvb
                0x00000000       0x40 bn_sprites_manager.o
 .text._ZN2bn15sprites_manager16blending_enabledEPv
                0x00000000        0xc bn_sprites_manager.o
 .text._ZN2bn15sprites_manager14window_enabledEPv
                0x00000000        0x8 bn_sprites_manager.o
 .text._ZN2bn15sprites_manager11double_sizeEPv
                0x00000000        0xc bn_sprites_manager.o
 .text._ZN2bn15sprites_manager16double_size_modeEPv
                0x00000000        0xc bn_sprites_manager.o
 .text._ZN2bn15sprites_manager7visibleEPv
                0x00000000        0xc bn_sprites_manager.o
 .text._ZN2bn15sprites_manager11set_visibleEPvb
                0x00000000       0x64 bn_sprites_manager.o
 .text._ZN2bn15sprites_manager6cameraEPv
                0x00000000        0x4 bn_sprites_manager.o
 .text._ZN2bn15sprites_manager10set_cameraEPvONS_10camera_ptrE
                0x00000000       0xa4 bn_sprites_manager.o
 .text._ZN2bn10sprite_ptr10set_cameraERKNS_10camera_ptrE
                0x00000000       0x24 bn_sprites_manager.o
 .text._ZN2bn10sprite_ptr10set_cameraEONS_10camera_ptrE
                0x00000000       0x10 bn_sprites_manager.o
 .text._ZN2bn10sprite_ptr10set_cameraERKNS_8optionalINS_10camera_ptrEEE
                0x00000000       0x98 bn_sprites_manager.o
 .text._ZN2bn10sprite_ptr10set_cameraEONS_8optionalINS_10camera_ptrEEE
                0x00000000       0x88 bn_sprites_manager.o
 .text._ZN2bn15sprites_manager13remove_cameraEPv
                0x00000000       0x7c bn_sprites_manager.o
 .text._ZN2bn15sprites_manager33remove_affine_mat_when_not_neededEPv
                0x00000000        0xc bn_sprites_manager.o
 .text._ZN2bn15sprites_manager37set_remove_affine_mat_when_not_neededEPvb
                0x00000000       0x1c bn_sprites_manager.o
 .text._ZN2bn15sprites_manager10reload_allEv
                0x00000000       0x24 bn_sprites_manager.o
 .text._ZN2bn14sprite_builder18set_window_enabledEb
                0x00000000       0x3c bn_sprites_manager.o
 .text._ZN2bn15sprites_manager16first_attributesEPv
                0x00000000       0x5c bn_sprites_manager.o
 .text._ZN2bn10sprite_ptr18set_window_enabledEb
                0x00000000       0x6c bn_sprites_manager.o
 .text._ZN2bn10sprite_ptr20set_blending_enabledEb
                0x00000000       0x9c bn_sprites_manager.o
 .text._ZN3_bn6assert9show_argsIA16_ciEEvPKcS4_S4_iRKT_RKT0_
                0x00000000       0x54 bn_sprites_manager.o
 .text._ZN3_bn6assert9show_argsIA17_ciEEvPKcS4_S4_iRKT_RKT0_
                0x00000000       0x54 bn_sprites_manager.o
 .rodata._ZNK2bn10sprite_ptr10dimensionsEv.str1.4
                0x00000000       0x4d bn_sprites_manager.o
 .text._ZNK2bn10sprite_ptr10dimensionsEv
                0x00000000       0x68 bn_sprites_manager.o
 .text._ZN2bn10sprite_ptr21set_top_left_positionENS_7fixed_tILi12EEES2_
                0x00000000       0xa4 bn_sprites_manager.o
 .text._ZN2bn10sprite_ptr21set_top_left_positionERKNS_13fixed_point_tILi12EEE
                0x00000000       0xa4 bn_sprites_manager.o
 .text._ZN2bn15sprites_manager10dimensionsEPv
                0x00000000       0x68 bn_sprites_manager.o
 .text._ZNK2bn10sprite_ptr10top_left_xEv
                0x00000000       0x70 bn_sprites_manager.o
 .text._ZNK2bn10sprite_ptr10top_left_yEv
                0x00000000       0x70 bn_sprites_manager.o
 .text._ZN2bn10sprite_ptr14set_top_left_xENS_7fixed_tILi12EEE
                0x00000000       0xb0 bn_sprites_manager.o
 .text._ZNK2bn10sprite_ptr17top_left_positionEv
                0x00000000       0x80 bn_sprites_manager.o
 .text._ZN2bn10sprite_ptr14set_top_left_yENS_7fixed_tILi12EEE
                0x00000000       0xb0 bn_sprites_manager.o
 .text._ZN3_bn6assert9show_argsIA15_ciEEvPKcS4_S4_iRKT_RKT0_
                0x00000000       0x54 bn_sprites_manager.o
 .text._ZNK2bn14sprite_builder10top_left_xEv
                0x00000000       0xf0 bn_sprites_manager.o
 .text._ZNK2bn14sprite_builder10top_left_yEv
                0x00000000       0xf4 bn_sprites_manager.o
 .text._ZN2bn14sprite_builder14set_top_left_xENS_7fixed_tILi12EEE
                0x00000000       0xf0 bn_sprites_manager.o
 .text._ZN2bn14sprite_builder14set_top_left_yENS_7fixed_tILi12EEE
                0x00000000       0xf4 bn_sprites_manager.o
 .text._ZNK2bn14sprite_builder17top_left_positionEv
                0x00000000      0x13c bn_sprites_manager.o
 .text._ZN2bn14sprite_builder21set_top_left_positionENS_7fixed_tILi12EEES2_
                0x00000000      0x138 bn_sprites_manager.o
 .text._ZN2bn14sprite_builder21set_top_left_positionERKNS_13fixed_point_tILi12EEE
                0x00000000      0x138 bn_sprites_manager.o
 .text._ZN3_bn6assert9show_argsIA22_cEEvPKcS4_S4_iRKT_
                0x00000000       0x48 bn_sprites_manager.o
 .text._ZN2bn15sprites_manager17remove_affine_matEPv
                0x00000000       0x18 bn_sprites_manager.o
 .text._ZN2bn10sprite_ptr17remove_affine_matEv
                0x00000000       0x1c bn_sprites_manager.o
 .text._ZN2bn15sprites_manager5tilesEPv
                0x00000000       0x34 bn_sprites_manager.o
 .text._ZNK2bn10sprite_ptr5tilesEv
                0x00000000       0x38 bn_sprites_manager.o
 .text._ZNK2bn10sprite_ptr7paletteEv
                0x00000000       0x38 bn_sprites_manager.o
 .text._ZNK2bn14sprite_builder7paletteEv
                0x00000000       0x4c bn_sprites_manager.o
 .text._ZNK2bn14sprite_builder5tilesEv
                0x00000000       0x4c bn_sprites_manager.o
 .text._ZN2bn15sprites_manager20set_double_size_modeEPvNS_23sprite_double_size_modeE
                0x00000000       0x94 bn_sprites_manager.o
 .text._ZN2bn10sprite_ptr9set_shearENS_7fixed_tILi12EEES2_
                0x00000000       0x54 bn_sprites_manager.o
 .text._ZN2bn15sprites_manager14set_affine_matEPvRKNS_21sprite_affine_mat_ptrE
                0x00000000       0x3c bn_sprites_manager.o
 .text._ZN2bn15sprites_manager14set_affine_matEPvONS_21sprite_affine_mat_ptrE
                0x00000000       0x2c bn_sprites_manager.o
 .text._ZN2bn10sprite_ptr14set_affine_matEONS_21sprite_affine_mat_ptrE
                0x00000000       0x2c bn_sprites_manager.o
 .text._ZN2bn10sprite_ptr14set_affine_matEONS_8optionalINS_21sprite_affine_mat_ptrEEE
                0x00000000       0x3c bn_sprites_manager.o
 .text._ZN2bn10sprite_ptr14set_affine_matERKNS_21sprite_affine_mat_ptrE
                0x00000000       0x3c bn_sprites_manager.o
 .text._ZN2bn10sprite_ptr14set_affine_matERKNS_8optionalINS_21sprite_affine_mat_ptrEEE
                0x00000000       0x50 bn_sprites_manager.o
 .text._ZN3_bn6assert9show_argsIA37_cEEvPKcS4_S4_iRKT_
                0x00000000       0x48 bn_sprites_manager.o
 .text._ZN3_bn6assert9show_argsIA18_ciEEvPKcS4_S4_iRKT_RKT0_
                0x00000000       0x54 bn_sprites_manager.o
 .text._ZN3_bn6assert9show_argsIJA22_ciA4_ciEEEvPKcS5_S5_iDpRKT_
                0x00000000       0x58 bn_sprites_manager.o
 .text._ZN2bn15sprites_manager9set_tilesEPvRKNS_16sprite_tiles_ptrE
                0x00000000      0x240 bn_sprites_manager.o
 .text._ZN2bn10sprite_ptr9set_tilesERKNS_16sprite_tiles_ptrE
                0x00000000       0x10 bn_sprites_manager.o
 .text._ZN2bn10sprite_ptr9set_tilesERKNS_17sprite_tiles_itemE
                0x00000000       0x7c bn_sprites_manager.o
 .text._ZN3_bn6assert9show_argsIJA25_ciA4_ciEEEvPKcS5_S5_iDpRKT_
                0x00000000       0x58 bn_sprites_manager.o
 .rodata._ZN2bn14sprite_builderC2ERKNS_11sprite_itemEi.str1.4
                0x00000000       0x65 bn_sprites_manager.o
 .text._ZN2bn14sprite_builderC2ERKNS_11sprite_itemEi
                0x00000000       0xb0 bn_sprites_manager.o
 .text._ZN3_bn6assert9show_argsIA22_ciEEvPKcS4_S4_iRKT_RKT0_
                0x00000000       0x54 bn_sprites_manager.o
 .text._ZN2bn23sprite_third_attributesC2ENS_16sprite_tiles_ptrENS_18sprite_palette_ptrEi
                0x00000000       0x4c bn_sprites_manager.o
 .text._ZN2bn23sprite_third_attributes15set_bg_priorityEi
                0x00000000       0x38 bn_sprites_manager.o
 .text._ZN3_bn6assert9show_argsIA27_cEEvPKcS4_S4_iRKT_
                0x00000000       0x48 bn_sprites_manager.o
 .text._ZN3_bn6assert9show_argsIA31_cEEvPKcS4_S4_iRKT_
                0x00000000       0x48 bn_sprites_manager.o
 .text._ZN3_bn6assert9show_argsIJA30_ciA4_ciEEEvPKcS5_S5_iDpRKT_
                0x00000000       0x58 bn_sprites_manager.o
 .rodata._ZN2bn15sprites_manager9set_tilesEPvRKNS_17sprite_shape_sizeERKNS_16sprite_tiles_ptrE.str1.4
                0x00000000       0x62 bn_sprites_manager.o
 .text._ZN2bn15sprites_manager9set_tilesEPvRKNS_17sprite_shape_sizeERKNS_16sprite_tiles_ptrE
                0x00000000      0x334 bn_sprites_manager.o
 .text._ZN2bn10sprite_ptr9set_tilesERKNS_17sprite_shape_sizeERKNS_16sprite_tiles_ptrE
                0x00000000       0x10 bn_sprites_manager.o
 .text._ZN2bn15sprites_manager9set_tilesEPvRKNS_17sprite_shape_sizeEONS_16sprite_tiles_ptrE
                0x00000000      0x33c bn_sprites_manager.o
 .text._ZN2bn10sprite_ptr9set_tilesERKNS_17sprite_shape_sizeEONS_16sprite_tiles_ptrE
                0x00000000       0x10 bn_sprites_manager.o
 .text._ZN2bn10sprite_ptr9set_tilesERKNS_17sprite_tiles_itemERKNS_17sprite_shape_sizeE
                0x00000000       0x88 bn_sprites_manager.o
 .text._ZN2bn10sprite_ptr9set_tilesERKNS_17sprite_tiles_itemERKNS_17sprite_shape_sizeEi
                0x00000000       0x94 bn_sprites_manager.o
 .text._ZN3_bn6assert9show_argsIJA29_ciA4_ciEEEvPKcS5_S5_iDpRKT_
                0x00000000       0x58 bn_sprites_manager.o
 .rodata._ZN2bn15sprites_manager11set_paletteEPvNS_8bpp_modeERKNS_18sprite_palette_ptrE.str1.4
                0x00000000       0x29 bn_sprites_manager.o
 .text._ZN2bn15sprites_manager11set_paletteEPvNS_8bpp_modeERKNS_18sprite_palette_ptrE
                0x00000000       0xb0 bn_sprites_manager.o
 .text._ZN2bn10sprite_ptr11set_paletteERKNS_18sprite_palette_ptrE
                0x00000000       0x4c bn_sprites_manager.o
 .text._ZN2bn15sprites_manager11set_paletteEPvNS_8bpp_modeEONS_18sprite_palette_ptrE
                0x00000000       0xb8 bn_sprites_manager.o
 .text._ZN2bn10sprite_ptr11set_paletteEONS_18sprite_palette_ptrE
                0x00000000       0x4c bn_sprites_manager.o
 .text._ZN2bn10sprite_ptr11set_paletteERKNS_19sprite_palette_itemE
                0x00000000       0xe0 bn_sprites_manager.o
 .text._ZN2bn10sprite_ptr21set_tiles_and_paletteENS_16sprite_tiles_ptrENS_18sprite_palette_ptrE
                0x00000000       0x28 bn_sprites_manager.o
 .text._ZN2bn10sprite_ptr21set_tiles_and_paletteERKNS_17sprite_shape_sizeENS_16sprite_tiles_ptrENS_18sprite_palette_ptrE
                0x00000000       0x10 bn_sprites_manager.o
 .text._ZN2bn10sprite_ptr8set_itemERKNS_11sprite_itemE
                0x00000000      0x164 bn_sprites_manager.o
 .text._ZN2bn10sprite_ptr8set_itemERKNS_11sprite_itemEi
                0x00000000      0x164 bn_sprites_manager.o
 .text._ZN3_bn6assert9show_argsIA20_cEEvPKcS4_S4_iRKT_
                0x00000000       0x48 bn_sprites_manager.o
 .text._ZN2bn15sprites_manager25regular_second_attributesEPv
                0x00000000       0x4c bn_sprites_manager.o
 .text._ZN3_bn6assert9show_argsIA19_cEEvPKcS4_S4_iRKT_
                0x00000000       0x48 bn_sprites_manager.o
 .text._ZN2bn15sprites_manager24affine_second_attributesEPv
                0x00000000       0x48 bn_sprites_manager.o
 .text._ZN2bn15sprites_manager28set_affine_second_attributesEPvRKNS_31sprite_affine_second_attributesE
                0x00000000       0xb4 bn_sprites_manager.o
 .text._ZN3_bn6assert9show_argsIA33_ciEEvPKcS4_S4_iRKT_RKT0_
                0x00000000       0x54 bn_sprites_manager.o
 .rodata._ZN2bn15sprites_manager26set_reserved_handles_countEi.str1.4
                0x00000000       0x8d bn_sprites_manager.o
 .text._ZN2bn15sprites_manager26set_reserved_handles_countEi
                0x00000000       0xa8 bn_sprites_manager.o
 .text._ZN2bn7sprites26set_reserved_handles_countEi
                0x00000000       0xa8 bn_sprites_manager.o
 .text._ZN3_bn6assert9show_argsIA13_cEEvPKcS4_S4_iRKT_
                0x00000000       0x48 bn_sprites_manager.o
 .text._ZN2bn10sprite_ptr6createERKNS_11sprite_itemE
                0x00000000       0x48 bn_sprites_manager.o
 .text._ZNK2bn11sprite_item13create_spriteEv
                0x00000000       0x10 bn_sprites_manager.o
 .text._ZN2bn10sprite_ptr6createERKNS_11sprite_itemEi
                0x00000000       0x48 bn_sprites_manager.o
 .text._ZNK2bn11sprite_item13create_spriteEi
                0x00000000       0x10 bn_sprites_manager.o
 .rodata._ZN2bn10sprite_ptr6createERKNS_17sprite_shape_sizeENS_16sprite_tiles_ptrENS_18sprite_palette_ptrE.str1.4
                0x00000000       0x51 bn_sprites_manager.o
 .text._ZN2bn10sprite_ptr6createERKNS_17sprite_shape_sizeENS_16sprite_tiles_ptrENS_18sprite_palette_ptrE
                0x00000000      0x210 bn_sprites_manager.o
 .text._ZN2bn10sprite_ptr6createENS_7fixed_tILi12EEES2_RKNS_11sprite_itemE
                0x00000000       0x48 bn_sprites_manager.o
 .text._ZN2bn10sprite_ptr6createENS_7fixed_tILi12EEES2_RKNS_11sprite_itemEi
                0x00000000       0x48 bn_sprites_manager.o
 .text._ZN2bn10sprite_ptr6createERKNS_13fixed_point_tILi12EEERKNS_11sprite_itemE
                0x00000000       0x44 bn_sprites_manager.o
 .text._ZN2bn10sprite_ptr6createERKNS_13fixed_point_tILi12EEERKNS_11sprite_itemEi
                0x00000000       0x44 bn_sprites_manager.o
 .text._ZN2bn10sprite_ptr6createENS_7fixed_tILi12EEES2_RKNS_17sprite_shape_sizeENS_16sprite_tiles_ptrENS_18sprite_palette_ptrE
                0x00000000      0x210 bn_sprites_manager.o
 .text._ZN2bn10sprite_ptr6createERKNS_13fixed_point_tILi12EEERKNS_17sprite_shape_sizeENS_16sprite_tiles_ptrENS_18sprite_palette_ptrE
                0x00000000      0x208 bn_sprites_manager.o
 .text._ZNK2bn11sprite_item13create_spriteERKNS_13fixed_point_tILi12EEEi
                0x00000000       0x44 bn_sprites_manager.o
 .text._ZNK2bn11sprite_item13create_spriteERKNS_13fixed_point_tILi12EEE
                0x00000000       0x40 bn_sprites_manager.o
 .text._ZNK2bn11sprite_item13create_spriteENS_7fixed_tILi12EEES2_i
                0x00000000       0x48 bn_sprites_manager.o
 .text._ZN2bn15sprites_manager15create_optionalERKNS_13fixed_point_tILi12EEERKNS_17sprite_shape_sizeEONS_16sprite_tiles_ptrEONS_18sprite_palette_ptrE
                0x00000000      0x1b8 bn_sprites_manager.o
 .text._ZN2bn14sprite_builder13release_buildEv
                0x00000000       0x14 bn_sprites_manager.o
 .text._ZN2bn15sprites_manager15create_optionalEONS_14sprite_builderE
                0x00000000      0x1d4 bn_sprites_manager.o
 .text._ZN3_bn6assert9show_argsIA33_cEEvPKcS4_S4_iRKT_
                0x00000000       0x48 bn_sprites_manager.o
 .text._ZN3_bn6assert9show_argsIA14_cEEvPKcS4_S4_iRKT_
                0x00000000       0x48 bn_sprites_manager.o
 .rodata._ZN2bn15sprites_manager9put_belowEPv.str1.4
                0x00000000        0x5 bn_sprites_manager.o
 .text._ZN2bn15sprites_manager9put_belowEPv
                0x00000000       0x74 bn_sprites_manager.o
 .text._ZN2bn10sprite_ptr9put_belowEv
                0x00000000       0x10 bn_sprites_manager.o
 .text._ZN2bn10sprite_ptraSERKS0_
                0x00000000       0x28 bn_sprites_manager.o
 .rodata._ZN2bn10sprite_ptr15create_optionalERKNS_17sprite_shape_sizeENS_16sprite_tiles_ptrENS_18sprite_palette_ptrE.str1.4
                0x00000000       0x10 bn_sprites_manager.o
 .text._ZN2bn10sprite_ptr15create_optionalERKNS_17sprite_shape_sizeENS_16sprite_tiles_ptrENS_18sprite_palette_ptrE
                0x00000000      0x23c bn_sprites_manager.o
 .text._ZN2bn10sprite_ptr15create_optionalERKNS_13fixed_point_tILi12EEERKNS_11sprite_itemE
                0x00000000       0x9c bn_sprites_manager.o
 .text._ZN2bn10sprite_ptr15create_optionalERKNS_11sprite_itemE
                0x00000000       0x24 bn_sprites_manager.o
 .text._ZNK2bn11sprite_item22create_sprite_optionalEv
                0x00000000       0x24 bn_sprites_manager.o
 .text._ZN2bn10sprite_ptr15create_optionalENS_7fixed_tILi12EEES2_RKNS_11sprite_itemE
                0x00000000       0x20 bn_sprites_manager.o
 .text._ZNK2bn11sprite_item22create_sprite_optionalENS_7fixed_tILi12EEES2_
                0x00000000       0x20 bn_sprites_manager.o
 .text._ZNK2bn11sprite_item22create_sprite_optionalERKNS_13fixed_point_tILi12EEE
                0x00000000       0x18 bn_sprites_manager.o
 .text._ZN2bn10sprite_ptr15create_optionalERKNS_13fixed_point_tILi12EEERKNS_11sprite_itemEi
                0x00000000       0xa4 bn_sprites_manager.o
 .text._ZN2bn10sprite_ptr15create_optionalERKNS_11sprite_itemEi
                0x00000000       0x24 bn_sprites_manager.o
 .text._ZNK2bn11sprite_item22create_sprite_optionalEi
                0x00000000       0x24 bn_sprites_manager.o
 .text._ZN2bn10sprite_ptr15create_optionalENS_7fixed_tILi12EEES2_RKNS_11sprite_itemEi
                0x00000000       0x24 bn_sprites_manager.o
 .text._ZNK2bn11sprite_item22create_sprite_optionalENS_7fixed_tILi12EEES2_i
                0x00000000       0x24 bn_sprites_manager.o
 .text._ZNK2bn11sprite_item22create_sprite_optionalERKNS_13fixed_point_tILi12EEEi
                0x00000000       0x18 bn_sprites_manager.o
 .text._ZN2bn10sprite_ptr15create_optionalENS_7fixed_tILi12EEES2_RKNS_17sprite_shape_sizeENS_16sprite_tiles_ptrENS_18sprite_palette_ptrE
                0x00000000      0x23c bn_sprites_manager.o
 .text._ZN2bn10sprite_ptr15create_optionalERKNS_13fixed_point_tILi12EEERKNS_17sprite_shape_sizeENS_16sprite_tiles_ptrENS_18sprite_palette_ptrE
                0x00000000      0x234 bn_sprites_manager.o
 .text._ZN2bn10sprite_ptr15create_optionalERKNS_14sprite_builderE
                0x00000000      0x11c bn_sprites_manager.o
 .text._ZNK2bn14sprite_builder14build_optionalEv
                0x00000000       0x10 bn_sprites_manager.o
 .text._ZN2bn10sprite_ptr15create_optionalEONS_14sprite_builderE
                0x00000000       0x3c bn_sprites_manager.o
 .text._ZN2bn14sprite_builder22release_build_optionalEv
                0x00000000       0x3c bn_sprites_manager.o
 .text._ZN2bn15sprites_manager11set_z_orderEPvi
                0x00000000      0x14c bn_sprites_manager.o
 .text._ZN2bn13ostringstream6appendILi12EEEvNS_7fixed_tIXT_EEE
                0x00000000       0xa0 bn_sprites_manager.o
 .text._ZN3_bn6assert9show_argsIA38_cN2bn7fixed_tILi12EEEEEvPKcS7_S7_iRKT_RKT0_
                0x00000000       0x54 bn_sprites_manager.o
 .text._ZN2bn14sprite_builder23set_rotation_angle_safeENS_7fixed_tILi12EEE
                0x00000000       0x2c bn_sprites_manager.o
 .text._ZN2bn10sprite_ptr23set_rotation_angle_safeENS_7fixed_tILi12EEE
                0x00000000       0x2c bn_sprites_manager.o
 .text._ZN3_bn6assert9show_argsIA27_cN2bn7fixed_tILi12EEEEEvPKcS7_S7_iRKT_RKT0_
                0x00000000       0x54 bn_sprites_manager.o
 .text._ZN2bn14sprite_builder20set_horizontal_scaleENS_7fixed_tILi12EEE
                0x00000000      0x10c bn_sprites_manager.o
 .text._ZN3_bn6assert9show_argsIA25_cN2bn7fixed_tILi12EEEEEvPKcS7_S7_iRKT_RKT0_
                0x00000000       0x54 bn_sprites_manager.o
 .text._ZN2bn14sprite_builder18set_vertical_scaleENS_7fixed_tILi12EEE
                0x00000000      0x10c bn_sprites_manager.o
 .text._ZN2bn14sprite_builder9set_scaleENS_7fixed_tILi12EEES2_
                0x00000000      0x1a8 bn_sprites_manager.o
 .text._ZN2bn10sprite_ptr9set_scaleENS_7fixed_tILi12EEES2_
                0x00000000      0x14c bn_sprites_manager.o
 .text._ZN3_bn6assert9show_argsIA16_cN2bn7fixed_tILi12EEEEEvPKcS7_S7_iRKT_RKT0_
                0x00000000       0x54 bn_sprites_manager.o
 .group         0x00000000        0xc bn_sprite_text_generator.o
 .group         0x00000000        0xc bn_sprite_text_generator.o
 .group         0x00000000        0xc bn_sprite_text_generator.o
 .group         0x00000000        0xc bn_sprite_text_generator.o
 .group         0x00000000        0xc bn_sprite_text_generator.o
 .group         0x00000000        0xc bn_sprite_text_generator.o
 .group         0x00000000        0xc bn_sprite_text_generator.o
 .group         0x00000000        0xc bn_sprite_text_generator.o
 .group         0x00000000        0xc bn_sprite_text_generator.o
 .group         0x00000000        0xc bn_sprite_text_generator.o
 .group         0x00000000        0xc bn_sprite_text_generator.o
 .group         0x00000000        0xc bn_sprite_text_generator.o
 .group         0x00000000        0xc bn_sprite_text_generator.o
 .group         0x00000000        0xc bn_sprite_text_generator.o
 .group         0x00000000        0xc bn_sprite_text_generator.o
 .group         0x00000000        0xc bn_sprite_text_generator.o
 .text          0x00000000        0x0 bn_sprite_text_generator.o
 .data          0x00000000        0x0 bn_sprite_text_generator.o
 .bss           0x00000000        0x0 bn_sprite_text_generator.o
 .text._ZN2bn12_GLOBAL__N_122_fix_top_left_positionEiRNS_7ivectorINS_10sprite_ptrEEE.isra.0
                0x00000000       0x84 bn_sprite_text_generator.o
 .text._ZN2bn21sprite_text_generator14release_cameraEv
                0x00000000       0x30 bn_sprite_text_generator.o
 .text._ZN3_bn6assert9show_argsIA16_ciEEvPKcS4_S4_iRKT_RKT0_
                0x00000000       0x54 bn_sprite_text_generator.o
 .text._ZN3_bn6assert9show_argsIA15_ciEEvPKcS4_S4_iRKT_RKT0_
                0x00000000       0x54 bn_sprite_text_generator.o
 .text._ZN3_bn6assert9show_argsIA54_cEEvPKcS4_S4_iRKT_
                0x00000000       0x48 bn_sprite_text_generator.o
 .text._ZN3_bn6assert9show_argsIA22_cEEvPKcS4_S4_iRKT_
                0x00000000       0x48 bn_sprite_text_generator.o
 .text._ZN3_bn6assert9show_argsIA24_cEEvPKcS4_S4_iRKT_
                0x00000000       0x48 bn_sprite_text_generator.o
 .text._ZN3_bn6assert9show_argsIA28_ciEEvPKcS4_S4_iRKT_RKT0_
                0x00000000       0x54 bn_sprite_text_generator.o
 .text._ZN3_bn6assert9show_argsIA25_cEEvPKcS4_S4_iRKT_
                0x00000000       0x48 bn_sprite_text_generator.o
 .text._ZN2bn21sprite_text_generator16set_palette_itemERKNS_19sprite_palette_itemE
                0x00000000       0x3c bn_sprite_text_generator.o
 .rodata._ZN2bn21sprite_text_generatorC2ERKNS_11sprite_fontERKNS_19sprite_palette_itemE.str1.4
                0x00000000       0x16 bn_sprite_text_generator.o
 .text._ZN2bn21sprite_text_generatorC2ERKNS_11sprite_fontERKNS_19sprite_palette_itemE
                0x00000000       0x64 bn_sprite_text_generator.o
 .text._ZN3_bn6assert9show_argsIA22_ciEEvPKcS4_S4_iRKT_RKT0_
                0x00000000       0x54 bn_sprite_text_generator.o
 .text._ZN3_bn6assert9show_argsIA18_ciEEvPKcS4_S4_iRKT_RKT0_
                0x00000000       0x54 bn_sprite_text_generator.o
 .rodata._ZN2bn21sprite_text_generator11set_z_orderEi.str1.4
                0x00000000       0x66 bn_sprite_text_generator.o
 .text._ZN2bn21sprite_text_generator11set_z_orderEi
                0x00000000       0x4c bn_sprite_text_generator.o
 .text._ZN3_bn6assert9show_argsIA20_ciEEvPKcS4_S4_iRKT_RKT0_
                0x00000000       0x54 bn_sprite_text_generator.o
 .text._ZN3_bn6assert9show_argsIA39_ciEEvPKcS4_S4_iRKT_RKT0_
                0x00000000       0x54 bn_sprite_text_generator.o
 .text._ZN3_bn6assert9show_argsIA15_cEEvPKcS4_S4_iRKT_
                0x00000000       0x48 bn_sprite_text_generator.o
 .text._ZN2bn12_GLOBAL__N_122_build_sprite_optionalILNS_11sprite_sizeE1EEEPNS_4tileERKNS_21sprite_text_generatorERKNS_18sprite_palette_ptrERKNS_13fixed_point_tILi12EEERNS_7ivectorINS_10sprite_ptrEEE
                0x00000000      0x1b0 bn_sprite_text_generator.o
 .text._ZN2bn12_GLOBAL__N_122_build_sprite_optionalILNS_11sprite_sizeE2EEEPNS_4tileERKNS_21sprite_text_generatorERKNS_18sprite_palette_ptrERKNS_13fixed_point_tILi12EEERNS_7ivectorINS_10sprite_ptrEEE
                0x00000000      0x1b0 bn_sprite_text_generator.o
 .text._ZNK2bn21sprite_text_generator8generateERKNS_13fixed_point_tILi12EEERKNS_11string_viewERNS_7ivectorINS_10sprite_ptrEEE
                0x00000000       0x34 bn_sprite_text_generator.o
 .text._ZNK2bn21sprite_text_generator8generateERKNS_11string_viewERNS_7ivectorINS_10sprite_ptrEEE
                0x00000000       0x3c bn_sprite_text_generator.o
 .text._ZNK2bn21sprite_text_generator17generate_top_leftERKNS_13fixed_point_tILi12EEERKNS_11string_viewERNS_7ivectorINS_10sprite_ptrEEE
                0x00000000       0x3c bn_sprite_text_generator.o
 .rodata._ZN2bn12_GLOBAL__N_19_generateILb1EEEbRKNS_21sprite_text_generatorERKNS_13fixed_point_tILi12EEERKNS_11string_viewERKNS_23utf8_characters_map_refEiibRNS_7ivectorINS_10sprite_ptrEEE.str1.4
                0x00000000       0x35 bn_sprite_text_generator.o
 .text._ZN2bn12_GLOBAL__N_19_generateILb1EEEbRKNS_21sprite_text_generatorERKNS_13fixed_point_tILi12EEERKNS_11string_viewERKNS_23utf8_characters_map_refEiibRNS_7ivectorINS_10sprite_ptrEEE
                0x00000000     0x13ec bn_sprite_text_generator.o
 .text._ZNK2bn21sprite_text_generator17generate_optionalERKNS_11string_viewERNS_7ivectorINS_10sprite_ptrEEE
                0x00000000       0x3c bn_sprite_text_generator.o
 .text._ZNK2bn21sprite_text_generator17generate_optionalENS_7fixed_tILi12EEES2_RKNS_11string_viewERNS_7ivectorINS_10sprite_ptrEEE
                0x00000000       0x40 bn_sprite_text_generator.o
 .text._ZNK2bn21sprite_text_generator17generate_optionalERKNS_13fixed_point_tILi12EEERKNS_11string_viewERNS_7ivectorINS_10sprite_ptrEEE
                0x00000000       0x34 bn_sprite_text_generator.o
 .text._ZNK2bn21sprite_text_generator26generate_top_left_optionalERKNS_13fixed_point_tILi12EEERKNS_11string_viewERNS_7ivectorINS_10sprite_ptrEEE
                0x00000000       0x44 bn_sprite_text_generator.o
 .group         0x00000000        0xc bn_sprite_tiles_manager.o
 .group         0x00000000        0xc bn_sprite_tiles_manager.o
 .group         0x00000000        0xc bn_sprite_tiles_manager.o
 .group         0x00000000        0xc bn_sprite_tiles_manager.o
 .group         0x00000000        0xc bn_sprite_tiles_manager.o
 .group         0x00000000        0xc bn_sprite_tiles_manager.o
 .group         0x00000000        0xc bn_sprite_tiles_manager.o
 .group         0x00000000        0xc bn_sprite_tiles_manager.o
 .group         0x00000000        0xc bn_sprite_tiles_manager.o
 .group         0x00000000        0xc bn_sprite_tiles_manager.o
 .group         0x00000000        0xc bn_sprite_tiles_manager.o
 .group         0x00000000        0xc bn_sprite_tiles_manager.o
 .group         0x00000000        0xc bn_sprite_tiles_manager.o
 .group         0x00000000        0xc bn_sprite_tiles_manager.o
 .group         0x00000000        0xc bn_sprite_tiles_manager.o
 .group         0x00000000        0xc bn_sprite_tiles_manager.o
 .group         0x00000000        0xc bn_sprite_tiles_manager.o
 .group         0x00000000        0xc bn_sprite_tiles_manager.o
 .group         0x00000000        0xc bn_sprite_tiles_manager.o
 .group         0x00000000        0xc bn_sprite_tiles_manager.o
 .group         0x00000000        0xc bn_sprite_tiles_manager.o
 .group         0x00000000        0xc bn_sprite_tiles_manager.o
 .text          0x00000000        0x0 bn_sprite_tiles_manager.o
 .data          0x00000000        0x0 bn_sprite_tiles_manager.o
 .bss           0x00000000        0x0 bn_sprite_tiles_manager.o
 .text._ZN2bn13ostringstream11append_argsIiJA4_ciEEEvRKT_DpRKT0_.isra.0
                0x00000000       0x24 bn_sprite_tiles_manager.o
 .text._ZN2bn12sprite_tiles16used_tiles_countEv
                0x00000000       0x18 bn_sprite_tiles_manager.o
 .text._ZN2bn12sprite_tiles21available_tiles_countEv
                0x00000000       0x10 bn_sprite_tiles_manager.o
 .text._ZN2bn12sprite_tiles16used_items_countEv
                0x00000000       0x14 bn_sprite_tiles_manager.o
 .text._ZN2bn12sprite_tiles21available_items_countEv
                0x00000000       0x10 bn_sprite_tiles_manager.o
 .text._ZNK2bn16sprite_tiles_ptr11compressionEv
                0x00000000       0x18 bn_sprite_tiles_manager.o
 .text._ZN2bn20sprite_tiles_manager16used_tiles_countEv
                0x00000000       0x18 bn_sprite_tiles_manager.o
 .text._ZN2bn20sprite_tiles_manager21available_tiles_countEv
                0x00000000       0x10 bn_sprite_tiles_manager.o
 .text._ZN2bn20sprite_tiles_manager16used_items_countEv
                0x00000000       0x14 bn_sprite_tiles_manager.o
 .text._ZN2bn20sprite_tiles_manager21available_items_countEv
                0x00000000       0x10 bn_sprite_tiles_manager.o
 .text._ZN2bn12sprite_tiles10log_statusEv
                0x00000000        0xc bn_sprite_tiles_manager.o
 .text._ZN2bn20sprite_tiles_manager15increase_usagesEi
                0x00000000       0x14 bn_sprite_tiles_manager.o
 .text._ZN2bn20sprite_tiles_manager10start_tileEi
                0x00000000       0x14 bn_sprite_tiles_manager.o
 .text._ZN2bn20sprite_tiles_manager11tiles_countEi
                0x00000000       0x14 bn_sprite_tiles_manager.o
 .text._ZN2bn20sprite_tiles_manager11compressionEi
                0x00000000       0x14 bn_sprite_tiles_manager.o
 .text._ZN3_bn6assert9show_argsIA25_ciEEvPKcS4_S4_iRKT_RKT0_
                0x00000000       0x54 bn_sprite_tiles_manager.o
 .text._ZN3_bn6assert9show_argsIA54_cEEvPKcS4_S4_iRKT_
                0x00000000       0x48 bn_sprite_tiles_manager.o
 .text._ZN3_bn6assert9show_argsIJA25_ciA4_ctEEEvPKcS5_S5_iDpRKT_
                0x00000000       0x64 bn_sprite_tiles_manager.o
 .text._ZN3_bn6assert9show_argsIJA58_ciA4_ciEEEvPKcS5_S5_iDpRKT_
                0x00000000       0x58 bn_sprite_tiles_manager.o
 .text._ZN3_bn6assert9show_argsIA27_chEEvPKcS4_S4_iRKT_RKT0_
                0x00000000       0x54 bn_sprite_tiles_manager.o
 .text._ZN3_bn6assert9show_argsIA19_cEEvPKcS4_S4_iRKT_
                0x00000000       0x48 bn_sprite_tiles_manager.o
 .text._ZN3_bn6assert9show_argsIA22_ciEEvPKcS4_S4_iRKT_RKT0_
                0x00000000       0x54 bn_sprite_tiles_manager.o
 .text._ZN3_bn6assert9show_argsIA27_ciEEvPKcS4_S4_iRKT_RKT0_
                0x00000000       0x54 bn_sprite_tiles_manager.o
 .text._ZN3_bn6assert9show_argsIA37_cEEvPKcS4_S4_iRKT_
                0x00000000       0x48 bn_sprite_tiles_manager.o
 .text._ZN3_bn6assert9show_argsIJA22_ciA4_ciEEEvPKcS5_S5_iDpRKT_
                0x00000000       0x58 bn_sprite_tiles_manager.o
 .text._ZN3_bn6assert9show_argsIJA46_ciA4_ciEEEvPKcS5_S5_iDpRKT_
                0x00000000       0x58 bn_sprite_tiles_manager.o
 .text._ZN3_bn6assert9show_argsIA17_cEEvPKcS4_S4_iRKT_
                0x00000000       0x48 bn_sprite_tiles_manager.o
 .text._ZN3_bn6assert9show_argsIA53_cEEvPKcS4_S4_iRKT_
                0x00000000       0x48 bn_sprite_tiles_manager.o
 .text._ZN3_bn6assert9show_argsIA15_cEEvPKcS4_S4_iRKT_
                0x00000000       0x48 bn_sprite_tiles_manager.o
 .rodata._ZN2bn20sprite_tiles_manager16reload_tiles_refEi.str1.4
                0x00000000       0x25 bn_sprite_tiles_manager.o
 .text._ZN2bn20sprite_tiles_manager16reload_tiles_refEi
                0x00000000       0x48 bn_sprite_tiles_manager.o
 .text._ZN2bn16sprite_tiles_ptr16reload_tiles_refEv
                0x00000000       0x4c bn_sprite_tiles_manager.o
 .text._ZN3_bn6assert9show_argsIA16_cEEvPKcS4_S4_iRKT_
                0x00000000       0x48 bn_sprite_tiles_manager.o
 .text._ZN2bn16sprite_tiles_ptraSERKS0_
                0x00000000       0x3c bn_sprite_tiles_manager.o
 .text._ZN2bn20sprite_tiles_manager4findERKNS_4spanIKNS_4tileEEENS_16compression_typeE
                0x00000000       0x14 bn_sprite_tiles_manager.o
 .text._ZN3_bn6assert9show_argsIA15_ciEEvPKcS4_S4_iRKT_RKT0_
                0x00000000       0x54 bn_sprite_tiles_manager.o
 .text._ZN3_bn6assert9show_argsIA39_ciEEvPKcS4_S4_iRKT_RKT0_
                0x00000000       0x54 bn_sprite_tiles_manager.o
 .text._ZN2bn16sprite_tiles_ptr4findERKNS_17sprite_tiles_itemE
                0x00000000       0x8c bn_sprite_tiles_manager.o
 .text._ZNK2bn17sprite_tiles_item10find_tilesEv
                0x00000000       0x10 bn_sprite_tiles_manager.o
 .text._ZN2bn16sprite_tiles_ptr4findERKNS_17sprite_tiles_itemEi
                0x00000000       0xc8 bn_sprite_tiles_manager.o
 .text._ZN2bn20sprite_tiles_manager9tiles_refEi
                0x00000000       0x38 bn_sprite_tiles_manager.o
 .text._ZNK2bn16sprite_tiles_ptr9tiles_refEv
                0x00000000       0x3c bn_sprite_tiles_manager.o
 .rodata._ZNK2bn17sprite_tiles_item10decompressENS_4spanINS_4tileEEE.str1.4
                0x00000000       0xb3 bn_sprite_tiles_manager.o
 .text._ZNK2bn17sprite_tiles_item10decompressENS_4spanINS_4tileEEE
                0x00000000      0x160 bn_sprite_tiles_manager.o
 .text._ZN3_bn6assert9show_argsIA26_cEEvPKcS4_S4_iRKT_
                0x00000000       0x48 bn_sprite_tiles_manager.o
 .text._ZN2bn20sprite_tiles_manager17allocate_optionalEiNS_8bpp_modeE
                0x00000000       0x8c bn_sprite_tiles_manager.o
 .text._ZN2bn16sprite_tiles_ptr17allocate_optionalEiNS_8bpp_modeE
                0x00000000       0x2c bn_sprite_tiles_manager.o
 .rodata._ZN2bn20sprite_tiles_manager13set_tiles_refEiRKNS_4spanIKNS_4tileEEENS_16compression_typeE.str1.4
                0x00000000       0x45 bn_sprite_tiles_manager.o
 .text._ZN2bn20sprite_tiles_manager13set_tiles_refEiRKNS_4spanIKNS_4tileEEENS_16compression_typeE
                0x00000000      0x1d0 bn_sprite_tiles_manager.o
 .text._ZN2bn16sprite_tiles_ptr13set_tiles_refERKNS_17sprite_tiles_itemE
                0x00000000       0x7c bn_sprite_tiles_manager.o
 .text._ZN2bn16sprite_tiles_ptr13set_tiles_refERKNS_17sprite_tiles_itemEi
                0x00000000       0xbc bn_sprite_tiles_manager.o
 .text._ZN2bn20sprite_tiles_manager15create_optionalERKNS_4spanIKNS_4tileEEENS_16compression_typeE
                0x00000000       0x3c bn_sprite_tiles_manager.o
 .text._ZN2bn16sprite_tiles_ptr15create_optionalERKNS_17sprite_tiles_itemE
                0x00000000       0x98 bn_sprite_tiles_manager.o
 .text._ZNK2bn17sprite_tiles_item21create_tiles_optionalEv
                0x00000000       0x10 bn_sprite_tiles_manager.o
 .text._ZNK2bn17sprite_tiles_item25create_new_tiles_optionalEv
                0x00000000       0x10 bn_sprite_tiles_manager.o
 .text._ZN2bn16sprite_tiles_ptr15create_optionalERKNS_17sprite_tiles_itemEi
                0x00000000       0xd0 bn_sprite_tiles_manager.o
 .text._ZNK2bn17sprite_tiles_item21create_tiles_optionalEi
                0x00000000       0xd0 bn_sprite_tiles_manager.o
 .text._ZNK2bn17sprite_tiles_item25create_new_tiles_optionalEi
                0x00000000       0xd0 bn_sprite_tiles_manager.o
 .text._ZNK2bn17sprite_tiles_item12create_tilesEv
                0x00000000       0x10 bn_sprite_tiles_manager.o
 .text._ZNK2bn17sprite_tiles_item16create_new_tilesEv
                0x00000000       0x10 bn_sprite_tiles_manager.o
 .text._ZNK2bn17sprite_tiles_item16create_new_tilesEi
                0x00000000       0xbc bn_sprite_tiles_manager.o
 .group         0x00000000        0xc bn_sstream.o
 .group         0x00000000        0xc bn_sstream.o
 .group         0x00000000        0xc bn_sstream.o
 .group         0x00000000        0xc bn_sstream.o
 .group         0x00000000        0xc bn_sstream.o
 .group         0x00000000        0xc bn_sstream.o
 .group         0x00000000        0xc bn_sstream.o
 .text          0x00000000        0x0 bn_sstream.o
 .data          0x00000000        0x0 bn_sstream.o
 .bss           0x00000000        0x0 bn_sstream.o
 .text._ZN2bn13ostringstream9set_rdbufERNS_12istring_baseE
                0x00000000        0x4 bn_sstream.o
 .text._ZNK2bn13ostringstream4viewEv
                0x00000000       0x10 bn_sstream.o
 .text._ZNK2bn13ostringstream6lengthEv
                0x00000000        0x8 bn_sstream.o
 .text._ZNK2bn13ostringstream8max_sizeEv
                0x00000000        0x8 bn_sstream.o
 .text._ZNK2bn13ostringstream9availableEv
                0x00000000        0xc bn_sstream.o
 .text._ZNK2bn13ostringstream5emptyEv
                0x00000000        0xc bn_sstream.o
 .text._ZNK2bn13ostringstream4fullEv
                0x00000000       0x10 bn_sstream.o
 .text._ZN2bn13ostringstream4swapERS0_
                0x00000000       0x14 bn_sstream.o
 .text._ZN3_bn6assert9show_argsIJA19_ciA4_ciEEEvPKcS5_S5_iDpRKT_
                0x00000000      0x114 bn_sstream.o
 .text._ZN2bn13ostringstream6appendERKNS_12istring_baseE
                0x00000000       0x70 bn_sstream.o
 .text._ZN2bn7istring6appendEPKc.isra.0
                0x00000000       0xa4 bn_sstream.o
 .text._ZN3_bn6assert9show_argsIA20_cEEvPKcS4_S4_iRKT_
                0x00000000       0x40 bn_sstream.o
 .text._ZN3_bn6assert9show_argsIA26_ciEEvPKcS4_S4_iRKT_RKT0_
                0x00000000       0x50 bn_sstream.o
 .text._ZN2bn13ostringstream6appendEl
                0x00000000       0xb0 bn_sstream.o
 .text._ZN2bn13ostringstream6appendEm
                0x00000000       0xb0 bn_sstream.o
 .text._ZN2bn13ostringstream6appendEx
                0x00000000       0xb0 bn_sstream.o
 .text._ZN2bn13ostringstream6appendEy
                0x00000000       0xb0 bn_sstream.o
 .text._ZN2bn13ostringstream6appendEPKci
                0x00000000       0xb4 bn_sstream.o
 .text._ZN3_bn6assert9show_argsIA15_cEEvPKcS4_S4_iRKT_
                0x00000000       0x40 bn_sstream.o
 .text._ZN3_bn6assert9show_argsIA11_cEEvPKcS4_S4_iRKT_
                0x00000000       0x40 bn_sstream.o
 .rodata._ZN2bn13ostringstream5rdbufEPNS_12istring_baseE.str1.4
                0x00000000       0x23 bn_sstream.o
 .text._ZN2bn13ostringstream5rdbufEPNS_12istring_baseE
                0x00000000       0x34 bn_sstream.o
 .text._ZN3_bn6assert9show_argsIA24_ciEEvPKcS4_S4_iRKT_RKT0_
                0x00000000       0x50 bn_sstream.o
 .rodata._ZN2bn13ostringstream9precisionEi.str1.4
                0x00000000       0x38 bn_sstream.o
 .text._ZN2bn13ostringstream9precisionEi
                0x00000000       0x38 bn_sstream.o
 .text._ZN3_bn6assert9show_argsIA20_ciEEvPKcS4_S4_iRKT_RKT0_
                0x00000000       0x50 bn_sstream.o
 .rodata._ZN2bn13ostringstream13set_precisionEi.str1.4
                0x00000000       0x34 bn_sstream.o
 .text._ZN2bn13ostringstream13set_precisionEi
                0x00000000       0x38 bn_sstream.o
 .group         0x00000000        0xc bn_translation_unit.o
 .group         0x00000000        0xc bn_translation_unit.o
 .group         0x00000000        0xc bn_translation_unit.o
 .group         0x00000000        0xc bn_translation_unit.o
 .group         0x00000000        0xc bn_translation_unit.o
 .group         0x00000000        0xc bn_translation_unit.o
 .group         0x00000000        0xc bn_translation_unit.o
 .group         0x00000000        0xc bn_translation_unit.o
 .group         0x00000000        0xc bn_translation_unit.o
 .group         0x00000000        0xc bn_translation_unit.o
 .group         0x00000000        0xc bn_translation_unit.o
 .group         0x00000000        0xc bn_translation_unit.o
 .group         0x00000000        0xc bn_translation_unit.o
 .group         0x00000000        0xc bn_translation_unit.o
 .group         0x00000000        0xc bn_translation_unit.o
 .group         0x00000000        0xc bn_translation_unit.o
 .group         0x00000000        0xc bn_translation_unit.o
 .group         0x00000000        0xc bn_translation_unit.o
 .group         0x00000000        0xc bn_translation_unit.o
 .group         0x00000000        0xc bn_translation_unit.o
 .group         0x00000000        0xc bn_translation_unit.o
 .group         0x00000000        0xc bn_translation_unit.o
 .group         0x00000000        0xc bn_translation_unit.o
 .group         0x00000000        0xc bn_translation_unit.o
 .group         0x00000000        0xc bn_translation_unit.o
 .group         0x00000000        0xc bn_translation_unit.o
 .group         0x00000000        0xc bn_translation_unit.o
 .group         0x00000000        0xc bn_translation_unit.o
 .group         0x00000000        0xc bn_translation_unit.o
 .text          0x00000000        0x0 bn_translation_unit.o
 .data          0x00000000        0x0 bn_translation_unit.o
 .bss           0x00000000        0x0 bn_translation_unit.o
 .text._ZN2bn2hw8palettes9grayscaleEPKNS_5colorEiiPS2_.part.0
                0x00000000       0x40 bn_translation_unit.o
 .text._ZN2bn13ostringstream11append_argsIiJA4_ciEEEvRKT_DpRKT0_.isra.0
                0x00000000       0x24 bn_translation_unit.o
 .text._ZN2bn12color_effect6invertENS_4spanINS_5colorEEE
                0x00000000       0x5c bn_translation_unit.o
 .text._ZN2bn5timer26elapsed_ticks_with_restartEv
                0x00000000       0x28 bn_translation_unit.o
 .text._ZN2bn8backdrop5colorEv
                0x00000000       0x14 bn_translation_unit.o
 .text._ZN2bn8backdrop9set_colorENS_5colorE
                0x00000000       0x20 bn_translation_unit.o
 .text._ZN2bn8backdrop9set_colorERKNS_8optionalINS_5colorEEE
                0x00000000       0x14 bn_translation_unit.o
 .text._ZN2bn8backdrop12remove_colorEv
                0x00000000       0x1c bn_translation_unit.o
 .text._ZN2bn8backdrop23blending_bottom_enabledEv
                0x00000000        0xc bn_translation_unit.o
 .text._ZN2bn8backdrop27set_blending_bottom_enabledEb
                0x00000000        0xc bn_translation_unit.o
 .text._ZN3_bn9sqrt_implEi
                0x00000000       0x18 bn_translation_unit.o
 .text._ZN3_bn4sram11unsafe_readEPvii
                0x00000000       0x18 bn_translation_unit.o
 .text._ZN3_bn4sram12unsafe_writeEPKvii
                0x00000000       0x18 bn_translation_unit.o
 .text._ZN3_bn6assert9show_argsIA16_ciEEvPKcS4_S4_iRKT_RKT0_
                0x00000000       0x54 bn_translation_unit.o
 .text._ZN3_bn6assert9show_argsIJA32_ciA4_ciEEEvPKcS5_S5_iDpRKT_
                0x00000000       0x58 bn_translation_unit.o
 .text._ZN3_bn6assert9show_argsIA12_ciEEvPKcS4_S4_iRKT_RKT0_
                0x00000000       0x54 bn_translation_unit.o
 .rodata._ZN2bn5atan2Eii.str1.4
                0x00000000       0x68 bn_translation_unit.o
 .text._ZN2bn5atan2Eii
                0x00000000       0x84 bn_translation_unit.o
 .text._ZN3_bn6assert9show_argsIJA35_ciA4_ciEEEvPKcS5_S5_iDpRKT_
                0x00000000       0x58 bn_translation_unit.o
 .rodata._ZN2bn12color_effect6invertERKNS_4spanIKNS_5colorEEENS1_IS2_EE.str1.4
                0x00000000       0x77 bn_translation_unit.o
 .text._ZN2bn12color_effect6invertERKNS_4spanIKNS_5colorEEENS1_IS2_EE
                0x00000000       0xa4 bn_translation_unit.o
 .text._ZN3_bn6assert9show_argsIA23_cEEvPKcS4_S4_iRKT_
                0x00000000       0x48 bn_translation_unit.o
 .text._ZN3_bn6assert9show_argsIA19_ciEEvPKcS4_S4_iRKT_RKT0_
                0x00000000       0x54 bn_translation_unit.o
 .text._ZN3_bn6assert9show_argsIA23_ciEEvPKcS4_S4_iRKT_RKT0_
                0x00000000       0x54 bn_translation_unit.o
 .text._ZN3_bn6assert9show_argsIA30_cEEvPKcS4_S4_iRKT_
                0x00000000       0x48 bn_translation_unit.o
 .text._ZN3_bn6assert9show_argsIA35_cEEvPKcS4_S4_iRKT_
                0x00000000       0x48 bn_translation_unit.o
 .text._ZN3_bn6assert9show_argsIA30_ciEEvPKcS4_S4_iRKT_RKT0_
                0x00000000       0x54 bn_translation_unit.o
 .text._ZN3_bn6assert9show_argsIA36_cEEvPKcS4_S4_iRKT_
                0x00000000       0x48 bn_translation_unit.o
 .text._ZN3_bn6assert9show_argsIA37_cEEvPKcS4_S4_iRKT_
                0x00000000       0x48 bn_translation_unit.o
 .text._ZN3_bn6assert9show_argsIJA37_ciA4_ciEEEvPKcS5_S5_iDpRKT_
                0x00000000       0x58 bn_translation_unit.o
 .text._ZN3_bn6assert9show_argsIJA23_ciA4_ciEEEvPKcS5_S5_iDpRKT_
                0x00000000       0x58 bn_translation_unit.o
 .rodata._ZN2bn12color_effect6rotateEiNS_4spanINS_5colorEEE.str1.4
                0x00000000       0x83 bn_translation_unit.o
 .text._ZN2bn12color_effect6rotateEiNS_4spanINS_5colorEEE
                0x00000000       0x9c bn_translation_unit.o
 .text._ZN2bn12color_effect6rotateERKNS_4spanIKNS_5colorEEEiNS1_IS2_EE
                0x00000000       0x8c bn_translation_unit.o
 .text._ZN3_bn6assert9show_argsIA18_cEEvPKcS4_S4_iRKT_
                0x00000000       0x48 bn_translation_unit.o
 .text._ZN3_bn6assert9show_argsIA13_cEEvPKcS4_S4_iRKT_
                0x00000000       0x48 bn_translation_unit.o
 .text._ZN3_bn6assert9show_argsIA26_ciEEvPKcS4_S4_iRKT_RKT0_
                0x00000000       0x54 bn_translation_unit.o
 .rodata._ZN2bn4sram10write_spanERKNS_4spanIKhEE.str1.4
                0x00000000       0x4e bn_translation_unit.o
 .text._ZN2bn4sram10write_spanERKNS_4spanIKhEE
                0x00000000       0x44 bn_translation_unit.o
 .text._ZN3_bn6assert9show_argsIA21_cEEvPKcS4_S4_iRKT_
                0x00000000       0x48 bn_translation_unit.o
 .text._ZN3_bn6assert9show_argsIA39_cEEvPKcS4_S4_iRKT_
                0x00000000       0x48 bn_translation_unit.o
 .rodata._ZN3_bn6formatERN2bn13ostringstreamEPKcS4_.str1.4
                0x00000000       0x7f bn_translation_unit.o
 .text._ZN3_bn6formatERN2bn13ostringstreamEPKcS4_
                0x00000000       0xc0 bn_translation_unit.o
 .text._ZN3_bn6assert9show_argsIA20_ciEEvPKcS4_S4_iRKT_RKT0_
                0x00000000       0x54 bn_translation_unit.o
 .rodata._ZN2bn4sram5clearEi.str1.4
                0x00000000       0x48 bn_translation_unit.o
 .text._ZN2bn4sram5clearEi
                0x00000000       0x64 bn_translation_unit.o
 .rodata._ZN2bn4sram9set_bytesEhi.str1.4
                0x00000000        0xa bn_translation_unit.o
 .text._ZN2bn4sram9set_bytesEhi
                0x00000000       0x64 bn_translation_unit.o
 .text._ZN3_bn6assert9show_argsIA31_ciEEvPKcS4_S4_iRKT_RKT0_
                0x00000000       0x54 bn_translation_unit.o
 .rodata._ZN2bn4sram9read_spanERNS_4spanIhEE.str1.4
                0x00000000       0x47 bn_translation_unit.o
 .text._ZN2bn4sram9read_spanERNS_4spanIhEE
                0x00000000       0x48 bn_translation_unit.o
 .text._ZN3_bn6assert9show_argsIA17_ciEEvPKcS4_S4_iRKT_RKT0_
                0x00000000       0x54 bn_translation_unit.o
 .rodata._ZN2bn4sram5clearEii.str1.4
                0x00000000       0x5c bn_translation_unit.o
 .text._ZN2bn4sram5clearEii
                0x00000000       0x9c bn_translation_unit.o
 .text._ZN2bn4sram9set_bytesEhii
                0x00000000       0x9c bn_translation_unit.o
 .text._ZN3_bn6assert9show_argsIJA43_ciA4_ciEEEvPKcS5_S5_iDpRKT_
                0x00000000       0x58 bn_translation_unit.o
 .rodata._ZN2bn4sram16read_span_offsetERNS_4spanIhEEi.str1.4
                0x00000000       0x63 bn_translation_unit.o
 .text._ZN2bn4sram16read_span_offsetERNS_4spanIhEEi
                0x00000000       0x78 bn_translation_unit.o
 .text._ZN3_bn6assert9show_argsIJA38_ciA4_ciEEEvPKcS5_S5_iDpRKT_
                0x00000000       0x58 bn_translation_unit.o
 .rodata._ZN2bn4sram17write_span_offsetERKNS_4spanIKhEEi.str1.4
                0x00000000       0x5a bn_translation_unit.o
 .text._ZN2bn4sram17write_span_offsetERKNS_4spanIKhEEi
                0x00000000       0x7c bn_translation_unit.o
 .text._ZN2bn13ostringstream6appendILi12EEEvNS_7fixed_tIXT_EEE
                0x00000000       0xa0 bn_translation_unit.o
 .text._ZN3_bn6assert9show_argsIA21_cN2bn7fixed_tILi12EEEEEvPKcS7_S7_iRKT_RKT0_
                0x00000000       0x54 bn_translation_unit.o
 .rodata._ZN2bn12color_effect10brightnessENS_7fixed_tILi12EEENS_4spanINS_5colorEEE.str1.4
                0x00000000       0x45 bn_translation_unit.o
 .text._ZN2bn12color_effect10brightnessENS_7fixed_tILi12EEENS_4spanINS_5colorEEE
                0x00000000       0x54 bn_translation_unit.o
 .text._ZN2bn12color_effect10brightnessERKNS_4spanIKNS_5colorEEENS_7fixed_tILi12EEENS1_IS2_EE
                0x00000000       0x84 bn_translation_unit.o
 .text._ZN3_bn6assert9show_argsIA19_cN2bn7fixed_tILi12EEEEEvPKcS7_S7_iRKT_RKT0_
                0x00000000       0x54 bn_translation_unit.o
 .rodata._ZN2bn12color_effect8contrastENS_7fixed_tILi12EEENS_4spanINS_5colorEEE.str1.4
                0x00000000       0x3f bn_translation_unit.o
 .text._ZN2bn12color_effect8contrastENS_7fixed_tILi12EEENS_4spanINS_5colorEEE
                0x00000000       0x54 bn_translation_unit.o
 .text._ZN2bn12color_effect8contrastERKNS_4spanIKNS_5colorEEENS_7fixed_tILi12EEENS1_IS2_EE
                0x00000000       0x84 bn_translation_unit.o
 .text._ZN3_bn6assert9show_argsIA20_cN2bn7fixed_tILi12EEEEEvPKcS7_S7_iRKT_RKT0_
                0x00000000       0x54 bn_translation_unit.o
 .rodata._ZN2bn12color_effect9intensityENS_7fixed_tILi12EEENS_4spanINS_5colorEEE.str1.4
                0x00000000       0x44 bn_translation_unit.o
 .text._ZN2bn12color_effect9intensityENS_7fixed_tILi12EEENS_4spanINS_5colorEEE
                0x00000000       0x54 bn_translation_unit.o
 .rodata._ZN2bn12color_effect9grayscaleENS_7fixed_tILi12EEENS_4spanINS_5colorEEE.str1.4
                0x00000000       0x4b bn_translation_unit.o
 .text._ZN2bn12color_effect9grayscaleENS_7fixed_tILi12EEENS_4spanINS_5colorEEE
                0x00000000       0xc0 bn_translation_unit.o
 .rodata._ZN2bn12color_effect9hue_shiftENS_7fixed_tILi12EEENS_4spanINS_5colorEEE.str1.4
                0x00000000        0xa bn_translation_unit.o
 .text._ZN2bn12color_effect9hue_shiftENS_7fixed_tILi12EEENS_4spanINS_5colorEEE
                0x00000000       0x54 bn_translation_unit.o
 .rodata._ZN2bn12color_effect4fadeENS_5colorENS_7fixed_tILi12EEENS_4spanIS1_EE.str1.4
                0x00000000        0x5 bn_translation_unit.o
 .text._ZN2bn12color_effect4fadeENS_5colorENS_7fixed_tILi12EEENS_4spanIS1_EE
                0x00000000       0xb0 bn_translation_unit.o
 .text._ZN2bn12color_effect9intensityERKNS_4spanIKNS_5colorEEENS_7fixed_tILi12EEENS1_IS2_EE
                0x00000000       0x84 bn_translation_unit.o
 .rodata._ZN2bn12color_effect9grayscaleERKNS_4spanIKNS_5colorEEENS_7fixed_tILi12EEENS1_IS2_EE.str1.4
                0x00000000       0x9e bn_translation_unit.o
 .text._ZN2bn12color_effect9grayscaleERKNS_4spanIKNS_5colorEEENS_7fixed_tILi12EEENS1_IS2_EE
                0x00000000      0x118 bn_translation_unit.o
 .text._ZN2bn12color_effect9hue_shiftERKNS_4spanIKNS_5colorEEENS_7fixed_tILi12EEENS1_IS2_EE
                0x00000000       0x84 bn_translation_unit.o
 .text._ZN2bn12color_effect4fadeERKNS_4spanIKNS_5colorEEES2_NS_7fixed_tILi12EEENS1_IS2_EE
                0x00000000      0x104 bn_translation_unit.o
 .text._ZN3_bn6assert9show_argsIA17_cN2bn7fixed_tILi12EEEEEvPKcS7_S7_iRKT_RKT0_
                0x00000000       0x54 bn_translation_unit.o
 .rodata._ZN2bn12color_effect5blendERKNS_4spanIKNS_5colorEEES6_NS_7fixed_tILi12EEENS1_IS2_EE.str1.4
                0x00000000      0x11d bn_translation_unit.o
 .text._ZN2bn12color_effect5blendERKNS_4spanIKNS_5colorEEES6_NS_7fixed_tILi12EEENS1_IS2_EE
                0x00000000      0x140 bn_translation_unit.o
 .rodata._ZN2bn14reciprocal_lutE
                0x00000000        0x4 bn_translation_unit.o
 .rodata._ZN2bn12_GLOBAL__N_1L19reciprocal_lut_implE
                0x00000000     0x1004 bn_translation_unit.o
 .group         0x00000000        0xc bn_hw_audio.o
 .group         0x00000000        0xc bn_hw_audio.o
 .group         0x00000000        0xc bn_hw_audio.o
 .group         0x00000000        0xc bn_hw_audio.o
 .group         0x00000000        0xc bn_hw_audio.o
 .group         0x00000000        0xc bn_hw_audio.o
 .group         0x00000000        0xc bn_hw_audio.o
 .text          0x00000000        0x0 bn_hw_audio.o
 .data          0x00000000        0x0 bn_hw_audio.o
 .bss           0x00000000        0x0 bn_hw_audio.o
 .text._ZN2bn2hw5audio6enableEv
                0x00000000       0x2c bn_hw_audio.o
 .text._ZN2bn2hw5audio16update_on_vblankEv
                0x00000000        0xc bn_hw_audio.o
 .text._ZN2bn2hw5audio20set_update_on_vblankEb
                0x00000000        0xc bn_hw_audio.o
 .text._ZN3_bn6assert9show_argsIA14_ciEEvPKcS4_S4_iRKT_RKT0_
                0x00000000       0x54 bn_hw_audio.o
 .text._ZN3_bn6assert9show_argsIA46_cEEvPKcS4_S4_iRKT_
                0x00000000       0x48 bn_hw_audio.o
 .text._ZN3_bn6assert9show_argsIA14_cEEvPKcS4_S4_iRKT_
                0x00000000       0x48 bn_hw_audio.o
 .text._ZN3_bn6assert9show_argsIA13_cEEvPKcS4_S4_iRKT_
                0x00000000       0x48 bn_hw_audio.o
 .text._ZN3_bn6assert9show_argsIA33_cEEvPKcS4_S4_iRKT_
                0x00000000       0x48 bn_hw_audio.o
 .group         0x00000000        0xc bn_hw_common.bn_noflto.o
 .group         0x00000000        0xc bn_hw_common.bn_noflto.o
 .text          0x00000000        0x0 bn_hw_common.bn_noflto.o
 .data          0x00000000        0x0 bn_hw_common.bn_noflto.o
 .bss           0x00000000        0x0 bn_hw_common.bn_noflto.o
 .text.__assert_func
                0x00000000       0x10 bn_hw_common.bn_noflto.o
 .text._ZN3_bn6assert9show_argsIA27_cEEvPKcS4_S4_iRKT_
                0x00000000       0x48 bn_hw_common.bn_noflto.o
 .text.__cxa_pure_virtual
                0x00000000       0x24 bn_hw_common.bn_noflto.o
 .rodata.__aeabi_ldiv0.str1.4
                0x00000000       0x38 bn_hw_common.bn_noflto.o
 .text.__aeabi_ldiv0
                0x00000000       0x24 bn_hw_common.bn_noflto.o
 .bss.__dso_handle
                0x00000000        0x4 bn_hw_common.bn_noflto.o
 .group         0x00000000        0xc bn_hw_cstdlib.o
 .text          0x00000000        0x0 bn_hw_cstdlib.o
 .data          0x00000000        0x0 bn_hw_cstdlib.o
 .bss           0x00000000        0x0 bn_hw_cstdlib.o
 .text.malloc   0x00000000        0xc bn_hw_cstdlib.o
 .text.calloc   0x00000000        0xc bn_hw_cstdlib.o
 .text.realloc  0x00000000        0xc bn_hw_cstdlib.o
 .text.free     0x00000000        0xc bn_hw_cstdlib.o
 .text._ZN3_bn6assert9show_argsIA11_cEEvPKcS4_S4_iRKT_
                0x00000000       0x48 bn_hw_cstdlib.o
 .rodata.abort.str1.4
                0x00000000       0x2b bn_hw_cstdlib.o
 .text.unlikely.abort
                0x00000000       0x24 bn_hw_cstdlib.o
 .text          0x00000000        0x0 bn_hw_cstring.o
 .data          0x00000000        0x0 bn_hw_cstring.o
 .bss           0x00000000        0x0 bn_hw_cstring.o
 .text.memcmp   0x00000000       0x70 bn_hw_cstring.o
 .debug_info    0x00000000      0x5b5 bn_hw_cstring.o
 .debug_abbrev  0x00000000      0x185 bn_hw_cstring.o
 .debug_loc     0x00000000      0x2f4 bn_hw_cstring.o
 .debug_aranges
                0x00000000       0x20 bn_hw_cstring.o
 .debug_ranges  0x00000000       0x40 bn_hw_cstring.o
 .debug_line    0x00000000      0x359 bn_hw_cstring.o
 .debug_str     0x00000000      0x51a bn_hw_cstring.o
 .comment       0x00000000       0x24 bn_hw_cstring.o
 .debug_frame   0x00000000       0x2c bn_hw_cstring.o
 .text          0x00000000        0x0 bn_hw_game_pak.bn_ewram.o
 .data          0x00000000        0x0 bn_hw_game_pak.bn_ewram.o
 .bss           0x00000000        0x0 bn_hw_game_pak.bn_ewram.o
 .text          0x00000000        0x0 bn_hw_gpio.bn_noflto.o
 .data          0x00000000        0x0 bn_hw_gpio.bn_noflto.o
 .bss           0x00000000        0x0 bn_hw_gpio.bn_noflto.o
 .group         0x00000000        0xc bn_hw_link.o
 .group         0x00000000        0xc bn_hw_link.o
 .text          0x00000000        0x0 bn_hw_link.o
 .data          0x00000000        0x0 bn_hw_link.o
 .bss           0x00000000        0x0 bn_hw_link.o
 .text._ZN2bn2hw4link6enableEv
                0x00000000       0xa4 bn_hw_link.o
 .text._ZN2bn2hw4link10deactivateEv
                0x00000000       0x24 bn_hw_link.o
 .text._ZN3_bn6assert9show_argsIA15_cEEvPKcS4_S4_iRKT_
                0x00000000       0x48 bn_hw_link.o
 .text._ZN2bn2hw4link7receiveERNS_2lc12LinkResponseE
                0x00000000       0x88 bn_hw_link.o
 .text._ZN3_bn6assert9show_argsIA14_cEEvPKcS4_S4_iRKT_
                0x00000000       0x48 bn_hw_link.o
 .text._ZN2bn2hw4link4sendEi
                0x00000000       0xa0 bn_hw_link.o
 .text          0x00000000        0x0 bn_hw_memory.o
 .data          0x00000000        0x0 bn_hw_memory.o
 .bss           0x00000000        0x0 bn_hw_memory.o
 .text          0x00000000        0x0 bn_hw_palettes.bn_iwram.o
 .data          0x00000000        0x0 bn_hw_palettes.bn_iwram.o
 .bss           0x00000000        0x0 bn_hw_palettes.bn_iwram.o
 .text          0x00000000        0x0 bn_hw_palettes.o
 .data          0x00000000        0x0 bn_hw_palettes.o
 .bss           0x00000000        0x0 bn_hw_palettes.o
 .group         0x00000000        0xc bn_hw_show.o
 .group         0x00000000        0xc bn_hw_show.o
 .group         0x00000000        0xc bn_hw_show.o
 .text          0x00000000        0x0 bn_hw_show.o
 .data          0x00000000        0x0 bn_hw_show.o
 .bss           0x00000000        0x0 bn_hw_show.o
 .text._ZN3_bn6assert9show_argsIA20_cEEvPKcS4_S4_iRKT_
                0x00000000       0x48 bn_hw_show.o
 .text._ZN3_bn6assert9show_argsIA26_ciEEvPKcS4_S4_iRKT_RKT0_
                0x00000000       0x54 bn_hw_show.o
 .text._ZN3_bn6assert9show_argsIJA19_ciA4_ciEEEvPKcS5_S5_iDpRKT_
                0x00000000       0x64 bn_hw_show.o
 .text          0x00000000        0x0 bn_hw_sprite_tiles.bn_iwram.o
 .data          0x00000000        0x0 bn_hw_sprite_tiles.bn_iwram.o
 .bss           0x00000000        0x0 bn_hw_sprite_tiles.bn_iwram.o
 .text          0x00000000        0x0 bn_hw_sram.bn_ewram.o
 .data          0x00000000        0x0 bn_hw_sram.bn_ewram.o
 .bss           0x00000000        0x0 bn_hw_sram.bn_ewram.o
 .ewram         0x00000000       0x10 bn_hw_sram.bn_ewram.o
 .debug_info    0x00000000      0x521 bn_hw_sram.bn_ewram.o
 .debug_abbrev  0x00000000      0x178 bn_hw_sram.bn_ewram.o
 .debug_loc     0x00000000       0xe4 bn_hw_sram.bn_ewram.o
 .debug_aranges
                0x00000000       0x20 bn_hw_sram.bn_ewram.o
 .debug_ranges  0x00000000       0x10 bn_hw_sram.bn_ewram.o
 .debug_line    0x00000000      0x328 bn_hw_sram.bn_ewram.o
 .debug_str     0x00000000      0x54a bn_hw_sram.bn_ewram.o
 .comment       0x00000000       0x24 bn_hw_sram.bn_ewram.o
 .debug_frame   0x00000000       0x20 bn_hw_sram.bn_ewram.o
 .text          0x00000000        0x0 bn_hw_sram.bn_noflto.o
 .data          0x00000000        0x0 bn_hw_sram.bn_noflto.o
 .bss           0x00000000        0x0 bn_hw_sram.bn_noflto.o
 .text          0x00000000        0x0 bn_hw_system_font.o
 .data          0x00000000        0x0 bn_hw_system_font.o
 .bss           0x00000000        0x0 bn_hw_system_font.o
 .text._ZN2bn11system_fontC2ERK5TFont
                0x00000000       0x14 bn_hw_system_font.o
 .group         0x00000000        0xc bn_hw_text.o
 .text          0x00000000        0x0 bn_hw_text.o
 .data          0x00000000        0x0 bn_hw_text.o
 .bss           0x00000000        0x0 bn_hw_text.o
 .text._ZN3_bn6assert9show_argsIA20_cEEvPKcS4_S4_iRKT_
                0x00000000       0x48 bn_hw_text.o
 .text._ZN2bn2hw4text5parseExRNS_5arrayIcLi32EEE
                0x00000000      0x138 bn_hw_text.o
 .text._ZN2bn2hw4text5parseEmRNS_5arrayIcLi32EEE
                0x00000000        0xc bn_hw_text.o
 .text._ZN2bn2hw4text5parseEyRNS_5arrayIcLi32EEE
                0x00000000       0xe4 bn_hw_text.o
 .text._ZN2bn2hw4text5parseElRNS_5arrayIcLi32EEE
                0x00000000        0xc bn_hw_text.o
 .text          0x00000000        0x0 vgm.o
 .data          0x00000000        0x0 vgm.o
 .bss           0x00000000        0x0 vgm.o
 .text._Z7VgmInitv
                0x00000000       0x18 vgm.o
 .text          0x00000000        0x0 tonc_color.o
 .data          0x00000000        0x0 tonc_color.o
 .bss           0x00000000        0x0 tonc_color.o
 .text.clr_blend
                0x00000000       0x98 tonc_color.o
 .text.clr_fade
                0x00000000       0x8c tonc_color.o
 .text.pal_gradient
                0x00000000       0xf0 tonc_color.o
 .text.pal_gradient_ex
                0x00000000       0x18 tonc_color.o
 .text.clr_adj_brightness
                0x00000000       0x60 tonc_color.o
 .text.clr_adj_contrast
                0x00000000       0x80 tonc_color.o
 .text.clr_adj_intensity
                0x00000000       0x7c tonc_color.o
 .text          0x00000000        0x0 tonc_sbmp16.o
 .data          0x00000000        0x0 tonc_sbmp16.o
 .bss           0x00000000        0x0 tonc_sbmp16.o
 .text.sbmp16_get_pixel
                0x00000000       0x10 tonc_sbmp16.o
 .text.sbmp16_plot
                0x00000000       0x14 tonc_sbmp16.o
 .text.sbmp16_hline
                0x00000000       0x30 tonc_sbmp16.o
 .text.sbmp16_vline
                0x00000000       0x40 tonc_sbmp16.o
 .text.sbmp16_line
                0x00000000       0xe8 tonc_sbmp16.o
 .text.sbmp16_frame
                0x00000000       0x90 tonc_sbmp16.o
 .text.sbmp16_floodfill_internal
                0x00000000      0x11c tonc_sbmp16.o
 .text.sbmp16_floodfill
                0x00000000       0x28 tonc_sbmp16.o
 .text          0x00000000        0x0 tonc_schr4c.o
 .data          0x00000000        0x0 tonc_schr4c.o
 .bss           0x00000000        0x0 tonc_schr4c.o
 .text.schr4c_prep_map
                0x00000000       0x54 tonc_schr4c.o
 .text.schr4c_get_ptr
                0x00000000       0x10 tonc_schr4c.o
 .text.schr4c_get_pixel
                0x00000000       0x24 tonc_schr4c.o
 .text.schr4c_plot
                0x00000000       0x30 tonc_schr4c.o
 .text.schr4c_hline
                0x00000000       0xe8 tonc_schr4c.o
 .text.schr4c_vline
                0x00000000       0x48 tonc_schr4c.o
 .text.schr4c_line
                0x00000000      0x17c tonc_schr4c.o
 .text.schr4c_rect
                0x00000000      0x13c tonc_schr4c.o
 .text.schr4c_frame
                0x00000000       0xa0 tonc_schr4c.o
 .text.schr4c_floodfill_internal
                0x00000000      0x160 tonc_schr4c.o
 .text.schr4c_floodfill
                0x00000000       0x30 tonc_schr4c.o
 .debug_info    0x00000000     0x1488 tonc_schr4c.o
 .debug_abbrev  0x00000000      0x3c5 tonc_schr4c.o
 .debug_loc     0x00000000     0x2059 tonc_schr4c.o
 .debug_aranges
                0x00000000       0x70 tonc_schr4c.o
 .debug_ranges  0x00000000      0x320 tonc_schr4c.o
 .debug_line    0x00000000      0xc9f tonc_schr4c.o
 .debug_str     0x00000000      0x346 tonc_schr4c.o
 .comment       0x00000000       0x24 tonc_schr4c.o
 .debug_frame   0x00000000      0x17c tonc_schr4c.o
 .text          0x00000000        0x0 tonc_schr4r.o
 .data          0x00000000        0x0 tonc_schr4r.o
 .bss           0x00000000        0x0 tonc_schr4r.o
 .text.schr4r_prep_map
                0x00000000       0x50 tonc_schr4r.o
 .text.schr4r_get_ptr
                0x00000000       0x24 tonc_schr4r.o
 .text.schr4r_get_pixel
                0x00000000       0x2c tonc_schr4r.o
 .text.schr4r_plot
                0x00000000       0x38 tonc_schr4r.o
 .text.schr4r_hline
                0x00000000       0xac tonc_schr4r.o
 .text.schr4r_vline
                0x00000000       0x68 tonc_schr4r.o
 .text.schr4r_line
                0x00000000      0x178 tonc_schr4r.o
 .text.schr4r_rect
                0x00000000      0x2ec tonc_schr4r.o
 .text.schr4r_frame
                0x00000000       0xa0 tonc_schr4r.o
 .debug_info    0x00000000      0xf39 tonc_schr4r.o
 .debug_abbrev  0x00000000      0x32b tonc_schr4r.o
 .debug_loc     0x00000000     0x1bca tonc_schr4r.o
 .debug_aranges
                0x00000000       0x60 tonc_schr4r.o
 .debug_ranges  0x00000000      0x210 tonc_schr4r.o
 .debug_line    0x00000000      0xbf8 tonc_schr4r.o
 .debug_str     0x00000000      0x2f7 tonc_schr4r.o
 .comment       0x00000000       0x24 tonc_schr4r.o
 .debug_frame   0x00000000      0x140 tonc_schr4r.o
 .text          0x00000000        0x0 tonc_surface.o
 .data          0x00000000        0x0 tonc_surface.o
 .bss           0x00000000        0x0 tonc_surface.o
 .text.srf_init
                0x00000000       0xc0 tonc_surface.o
 .rodata.srf_init
                0x00000000       0x1c tonc_surface.o
 .text.srf_get_ptr
                0x00000000       0x60 tonc_surface.o
 .debug_info    0x00000000      0x439 tonc_surface.o
 .debug_abbrev  0x00000000      0x1eb tonc_surface.o
 .debug_loc     0x00000000      0x592 tonc_surface.o
 .debug_aranges
                0x00000000       0x28 tonc_surface.o
 .debug_ranges  0x00000000       0xb8 tonc_surface.o
 .debug_line    0x00000000      0x3fa tonc_surface.o
 .debug_str     0x00000000      0x29b tonc_surface.o
 .comment       0x00000000       0x24 tonc_surface.o
 .debug_frame   0x00000000       0x50 tonc_surface.o
 .text          0x00000000        0x0 bmp16_drawg_b1cs.o
 .data          0x00000000        0x0 bmp16_drawg_b1cs.o
 .bss           0x00000000        0x0 bmp16_drawg_b1cs.o
 .text.bmp16_drawg_b1cos
                0x00000000       0xcc bmp16_drawg_b1cs.o
 .text          0x00000000        0x0 tte_init_bmp.o
 .data          0x00000000        0x0 tte_init_bmp.o
 .bss           0x00000000        0x0 tte_init_bmp.o
 .text          0x00000000        0x0 tte_main.o
 .data          0x00000000        0x0 tte_main.o
 .bss           0x00000000        0x0 tte_main.o
 .text.tte_set_context
                0x00000000        0x4 tte_main.o
 .text.tte_set_color_attr
                0x00000000       0x10 tte_main.o
 .text.tte_set_color_attrs
                0x00000000       0x18 tte_main.o
 .text.tte_set_color
                0x00000000       0x1c tte_main.o
 .text.tte_set_colors
                0x00000000       0x38 tte_main.o
 .text.tte_putc
                0x00000000       0x54 tte_main.o
 .text.tte_write_ex
                0x00000000       0x2c tte_main.o
 .text.tte_erase_rect
                0x00000000       0x1c tte_main.o
 .text.tte_erase_screen
                0x00000000       0x24 tte_main.o
 .text.tte_erase_line
                0x00000000       0x2c tte_main.o
 .text          0x00000000        0x0 interrupts_gba.o
 .data          0x00000000        0x0 interrupts_gba.o
 .bss           0x00000000        0x0 interrupts_gba.o
 .text          0x00000000        0x0 coroutine.o
 .data          0x00000000        0x0 coroutine.o
 .bss           0x00000000        0x0 coroutine.o
 .text.__agbabi_coro_make
                0x00000000       0x28 coroutine.o
 .debug_info    0x00000000      0x12b coroutine.o
 .debug_abbrev  0x00000000       0xf0 coroutine.o
 .debug_loc     0x00000000       0x9e coroutine.o
 .debug_aranges
                0x00000000       0x20 coroutine.o
 .debug_ranges  0x00000000       0x10 coroutine.o
 .debug_line    0x00000000      0x142 coroutine.o
 .debug_str     0x00000000      0x1e1 coroutine.o
 .comment       0x00000000       0x24 coroutine.o
 .debug_frame   0x00000000       0x28 coroutine.o
 .text          0x00000000        0x0 rtc.o
 .data          0x00000000        0x0 rtc.o
 .bss           0x00000000        0x0 rtc.o
 .text.rtc_get_status
                0x00000000       0x74 rtc.o
 .text.rtc_set_status_24hr
                0x00000000       0x7c rtc.o
 .text.__agbabi_rtc_time
                0x00000000       0xa4 rtc.o
 .text.__agbabi_rtc_settime
                0x00000000       0xb4 rtc.o
 .text.__agbabi_rtc_datetime
                0x00000000       0xd8 rtc.o
 .text.__agbabi_rtc_init
                0x00000000       0xc0 rtc.o
 .text.__agbabi_rtc_setdatetime
                0x00000000       0xf8 rtc.o
 .debug_info    0x00000000      0xbdb rtc.o
 .debug_abbrev  0x00000000      0x2e3 rtc.o
 .debug_loc     0x00000000      0xc87 rtc.o
 .debug_aranges
                0x00000000       0x50 rtc.o
 .debug_ranges  0x00000000      0x240 rtc.o
 .debug_line    0x00000000      0xb83 rtc.o
 .debug_str     0x00000000      0x2f5 rtc.o
 .comment       0x00000000       0x24 rtc.o
 .debug_frame   0x00000000       0xf8 rtc.o
 .text          0x00000000        0x0 gbt_player.o
 .data          0x00000000        0x0 gbt_player.o
 .bss           0x00000000        0x0 gbt_player.o
 .text.gbt_set_event_callback_handler
                0x00000000        0xc gbt_player.o
 .text.gbt_enable_channels
                0x00000000       0x10 gbt_player.o
 .text.gbt_get_position
                0x00000000       0x4c gbt_player.o
 .text          0x00000000        0x0 bn_hw_bg_blocks.o
 .data          0x00000000        0x0 bn_hw_bg_blocks.o
 .bss           0x00000000        0x0 bn_hw_bg_blocks.o
 .text          0x00000000       0x1c bn_hw_core.o
 .data          0x00000000        0x0 bn_hw_core.o
 .bss           0x00000000        0x0 bn_hw_core.o
 .debug_line    0x00000000       0x8b bn_hw_core.o
 .debug_info    0x00000000       0x23 bn_hw_core.o
 .debug_abbrev  0x00000000       0x14 bn_hw_core.o
 .debug_aranges
                0x00000000       0x20 bn_hw_core.o
 .debug_str     0x00000000       0xa6 bn_hw_core.o
 .text          0x00000000        0x0 bn_hw_hblank_effects.o
 .data          0x00000000        0x0 bn_hw_hblank_effects.o
 .bss           0x00000000        0x0 bn_hw_hblank_effects.o
 .text          0x00000000        0x0 bn_hw_palettes_asm.o
 .data          0x00000000        0x0 bn_hw_palettes_asm.o
 .bss           0x00000000        0x0 bn_hw_palettes_asm.o
 .text          0x00000000        0x0 clr_blend_fast.o
 .data          0x00000000        0x0 clr_blend_fast.o
 .bss           0x00000000        0x0 clr_blend_fast.o
 .text          0x00000000        0x0 clr_fade_fast.o
 .data          0x00000000        0x0 clr_fade_fast.o
 .bss           0x00000000        0x0 clr_fade_fast.o
 .text          0x00000000        0x0 tonc_bios.o
 .data          0x00000000        0x0 tonc_bios.o
 .bss           0x00000000        0x0 tonc_bios.o
 .text.SoftReset
                0x00000000        0x4 tonc_bios.o
 .text.RegisterRamReset
                0x00000000        0x4 tonc_bios.o
 .text.Halt     0x00000000        0x4 tonc_bios.o
 .text.Stop     0x00000000        0x4 tonc_bios.o
 .text.IntrWait
                0x00000000        0x4 tonc_bios.o
 .text.Div      0x00000000        0x4 tonc_bios.o
 .text.DivArm   0x00000000        0x4 tonc_bios.o
 .text.Sqrt     0x00000000        0x4 tonc_bios.o
 .text.ArcTan   0x00000000        0x4 tonc_bios.o
 .text.ArcTan2  0x00000000        0x4 tonc_bios.o
 .text.CpuSet   0x00000000        0x4 tonc_bios.o
 .text.CpuFastSet
                0x00000000        0x4 tonc_bios.o
 .text.BiosCheckSum
                0x00000000        0x4 tonc_bios.o
 .text.BgAffineSet
                0x00000000        0x4 tonc_bios.o
 .text.ObjAffineSet
                0x00000000        0x4 tonc_bios.o
 .text.BitUnPack
                0x00000000        0x4 tonc_bios.o
 .text.LZ77UnCompWram
                0x00000000        0x4 tonc_bios.o
 .text.LZ77UnCompVram
                0x00000000        0x4 tonc_bios.o
 .text.HuffUnComp
                0x00000000        0x4 tonc_bios.o
 .text.RLUnCompWram
                0x00000000        0x4 tonc_bios.o
 .text.RLUnCompVram
                0x00000000        0x4 tonc_bios.o
 .text.Diff8bitUnFilterWram
                0x00000000        0x4 tonc_bios.o
 .text.Diff8bitUnFilterVram
                0x00000000        0x4 tonc_bios.o
 .text.Diff16bitUnFilter
                0x00000000        0x4 tonc_bios.o
 .text.SoundBias
                0x00000000        0x4 tonc_bios.o
 .text.SoundDriverInit
                0x00000000        0x4 tonc_bios.o
 .text.SoundDriverMode
                0x00000000        0x4 tonc_bios.o
 .text.SoundDriverMain
                0x00000000        0x4 tonc_bios.o
 .text.SoundDriverVSync
                0x00000000        0x4 tonc_bios.o
 .text.SoundChannelClear
                0x00000000        0x4 tonc_bios.o
 .text.MidiKey2Freq
                0x00000000        0x4 tonc_bios.o
 .text.MultiBoot
                0x00000000        0x4 tonc_bios.o
 .text.SoundDriverVSyncOff
                0x00000000        0x4 tonc_bios.o
 .text.SoundDriverVSyncOn
                0x00000000        0x4 tonc_bios.o
 .text          0x00000000        0x0 tonc_memset.o
 .data          0x00000000        0x0 tonc_memset.o
 .bss           0x00000000        0x0 tonc_memset.o
 .text          0x00000000        0x0 tonc_nocash.o
 .data          0x00000000        0x0 tonc_nocash.o
 .bss           0x00000000        0x0 tonc_nocash.o
 .text.nocash_puts
                0x00000000       0x38 tonc_nocash.o
 .ewram.nocash_message
                0x00000000       0x5c tonc_nocash.o
 .debug_line    0x00000000       0xbe tonc_nocash.o
 .debug_info    0x00000000       0x3a tonc_nocash.o
 .debug_abbrev  0x00000000       0x26 tonc_nocash.o
 .debug_aranges
                0x00000000       0x28 tonc_nocash.o
 .debug_str     0x00000000       0xd4 tonc_nocash.o
 .debug_ranges  0x00000000       0x20 tonc_nocash.o
 .text          0x00000000        0x0 verdana9.o
 .data          0x00000000        0x0 verdana9.o
 .bss           0x00000000        0x0 verdana9.o
 .text          0x00000000        0x0 irq_handler.o
 .data          0x00000000        0x0 irq_handler.o
 .bss           0x00000000        0x0 irq_handler.o
 .data          0x00000000        0x0 posprintf.o
 .bss           0x00000000        0x0 posprintf.o
 .text          0x00000000        0x0 atan2.o
 .data          0x00000000        0x0 atan2.o
 .bss           0x00000000        0x0 atan2.o
 .iwram.__agbabi_atan2
                0x00000000       0xd4 atan2.o
 .debug_line    0x00000000       0xbe atan2.o
 .debug_info    0x00000000       0x24 atan2.o
 .debug_abbrev  0x00000000       0x14 atan2.o
 .debug_aranges
                0x00000000       0x20 atan2.o
 .debug_str     0x00000000       0xb2 atan2.o
 .text          0x00000000        0x0 coroutine_asm.o
 .data          0x00000000        0x0 coroutine_asm.o
 .bss           0x00000000        0x0 coroutine_asm.o
 .iwram.__agbabi_coro_resume
                0x00000000       0x20 coroutine_asm.o
 .iwram.__agbabi_coro_yield
                0x00000000       0x1c coroutine_asm.o
 .iwram.__agbabi_coro_pop
                0x00000000       0x34 coroutine_asm.o
 .debug_line    0x00000000       0xcb coroutine_asm.o
 .debug_info    0x00000000       0x22 coroutine_asm.o
 .debug_abbrev  0x00000000       0x12 coroutine_asm.o
 .debug_aranges
                0x00000000       0x30 coroutine_asm.o
 .debug_str     0x00000000       0xba coroutine_asm.o
 .debug_ranges  0x00000000       0x28 coroutine_asm.o
 .text          0x00000000        0x0 fiq_memcpy.o
 .data          0x00000000        0x0 fiq_memcpy.o
 .bss           0x00000000        0x0 fiq_memcpy.o
 .iwram.__agbabi_fiq_memcpy4
                0x00000000       0x70 fiq_memcpy.o
 .iwram.__agbabi_fiq_memcpy4x4
                0x00000000       0x54 fiq_memcpy.o
 .debug_line    0x00000000       0xce fiq_memcpy.o
 .debug_info    0x00000000       0x22 fiq_memcpy.o
 .debug_abbrev  0x00000000       0x12 fiq_memcpy.o
 .debug_aranges
                0x00000000       0x28 fiq_memcpy.o
 .debug_str     0x00000000       0xb7 fiq_memcpy.o
 .debug_ranges  0x00000000       0x20 fiq_memcpy.o
 .text          0x00000000        0x0 lmul.o
 .data          0x00000000        0x0 lmul.o
 .bss           0x00000000        0x0 lmul.o
 .iwram.__aeabi_llsl
                0x00000000       0x1c lmul.o
 .iwram.__aeabi_llsr
                0x00000000       0x1c lmul.o
 .iwram.__aeabi_lasr
                0x00000000       0x1c lmul.o
 .text          0x00000000        0x0 memcpy.o
 .data          0x00000000        0x0 memcpy.o
 .bss           0x00000000        0x0 memcpy.o
 .text          0x00000000        0x0 memmove.o
 .data          0x00000000        0x0 memmove.o
 .bss           0x00000000        0x0 memmove.o
 .iwram.__aeabi_memmove8
                0x00000000        0xc memmove.o
 .iwram.__agbabi_memmove1
                0x00000000        0xc memmove.o
 .text          0x00000000        0x0 memset.o
 .data          0x00000000        0x0 memset.o
 .bss           0x00000000        0x0 memset.o
 .iwram.__aeabi_memclr
                0x00000000       0x10 memset.o
 .text          0x00000000        0x0 rmemcpy.o
 .data          0x00000000        0x0 rmemcpy.o
 .bss           0x00000000        0x0 rmemcpy.o
 .text          0x00000000        0x0 clz.o
 .data          0x00000000        0x0 clz.o
 .bss           0x00000000        0x0 clz.o
 .iwram         0x00000000      0x148 clz.o
 .debug_line    0x00000000       0xa0 clz.o
 .debug_info    0x00000000       0x24 clz.o
 .debug_abbrev  0x00000000       0x14 clz.o
 .debug_aranges
                0x00000000       0x20 clz.o
 .debug_str     0x00000000       0xb4 clz.o
 .text          0x00000000        0x0 sdiv32.o
 .data          0x00000000        0x0 sdiv32.o
 .bss           0x00000000        0x0 sdiv32.o
 .text          0x00000000        0x0 sqrt32.o
 .data          0x00000000        0x0 sqrt32.o
 .bss           0x00000000        0x0 sqrt32.o
 .iwram         0x00000000       0xec sqrt32.o
 .debug_line    0x00000000       0xc9 sqrt32.o
 .debug_info    0x00000000       0x24 sqrt32.o
 .debug_abbrev  0x00000000       0x14 sqrt32.o
 .debug_aranges
                0x00000000       0x20 sqrt32.o
 .debug_str     0x00000000       0xb7 sqrt32.o
 .text          0x00000000        0x0 udiv32.o
 .data          0x00000000        0x0 udiv32.o
 .bss           0x00000000        0x0 udiv32.o
 .text          0x00000000        0x0 huffman.o
 .data          0x00000000        0x0 huffman.o
 .bss           0x00000000        0x0 huffman.o
 .text          0x00000000        0x0 lz77.o
 .data          0x00000000        0x0 lz77.o
 .bss           0x00000000        0x0 lz77.o
 .text          0x00000000        0x0 running_length.o
 .data          0x00000000        0x0 running_length.o
 .bss           0x00000000        0x0 running_length.o
 .data          0x00000000        0x0 mm_effect.o
 .data          0x00000000        0x0 mm_main.o
 .text          0x00000000        0x0 mm_mas_arm.o
 .data          0x00000000        0x0 mm_mas_arm.o
 .bss           0x00000000        0x0 mm_mas_arm.o
 .data          0x00000000        0x0 mm_mas.o
 .text          0x00000000       0x44 mm_init_default.o
 .data          0x00000000        0x0 mm_init_default.o
 .bss           0x00000000      0x420 mm_init_default.o
 .debug_line    0x00000000       0xbd mm_init_default.o
 .debug_info    0x00000000       0x23 mm_init_default.o
 .debug_abbrev  0x00000000       0x14 mm_init_default.o
 .debug_aranges
                0x00000000       0x20 mm_init_default.o
 .debug_str     0x00000000       0xc3 mm_init_default.o
 .data          0x00000000        0x0 mm_main_gba.o
 .data          0x00000000        0x0 mm_mixer_gba.o
 .data          0x00000000        0x0 /opt/devkitpro/devkitARM/bin/../lib/gcc/arm-none-eabi/14.2.0/thumb/libgcc.a(_call_via_rX.o)
 .bss           0x00000000        0x0 /opt/devkitpro/devkitARM/bin/../lib/gcc/arm-none-eabi/14.2.0/thumb/libgcc.a(_call_via_rX.o)
 .text          0x00000000       0xd4 /opt/devkitpro/devkitARM/bin/../lib/gcc/arm-none-eabi/14.2.0/thumb/libgcc.a(_aeabi_ldivmod.o)
 .data          0x00000000        0x0 /opt/devkitpro/devkitARM/bin/../lib/gcc/arm-none-eabi/14.2.0/thumb/libgcc.a(_aeabi_ldivmod.o)
 .bss           0x00000000        0x0 /opt/devkitpro/devkitARM/bin/../lib/gcc/arm-none-eabi/14.2.0/thumb/libgcc.a(_aeabi_ldivmod.o)
 .text          0x00000000       0x3c /opt/devkitpro/devkitARM/bin/../lib/gcc/arm-none-eabi/14.2.0/thumb/libgcc.a(_aeabi_uldivmod.o)
 .data          0x00000000        0x0 /opt/devkitpro/devkitARM/bin/../lib/gcc/arm-none-eabi/14.2.0/thumb/libgcc.a(_aeabi_uldivmod.o)
 .bss           0x00000000        0x0 /opt/devkitpro/devkitARM/bin/../lib/gcc/arm-none-eabi/14.2.0/thumb/libgcc.a(_aeabi_uldivmod.o)
 .text          0x00000000        0x4 /opt/devkitpro/devkitARM/bin/../lib/gcc/arm-none-eabi/14.2.0/thumb/libgcc.a(_sync_none.o)
 .data          0x00000000        0x0 /opt/devkitpro/devkitARM/bin/../lib/gcc/arm-none-eabi/14.2.0/thumb/libgcc.a(_sync_none.o)
 .bss           0x00000000        0x0 /opt/devkitpro/devkitARM/bin/../lib/gcc/arm-none-eabi/14.2.0/thumb/libgcc.a(_sync_none.o)
 .text          0x00000000        0x0 /opt/devkitpro/devkitARM/bin/../lib/gcc/arm-none-eabi/14.2.0/thumb/libgcc.a(_udivmoddi4.o)
 .data          0x00000000        0x0 /opt/devkitpro/devkitARM/bin/../lib/gcc/arm-none-eabi/14.2.0/thumb/libgcc.a(_udivmoddi4.o)
 .bss           0x00000000        0x0 /opt/devkitpro/devkitARM/bin/../lib/gcc/arm-none-eabi/14.2.0/thumb/libgcc.a(_udivmoddi4.o)
 .text.__udivmoddi4
                0x00000000      0x19c /opt/devkitpro/devkitARM/bin/../lib/gcc/arm-none-eabi/14.2.0/thumb/libgcc.a(_udivmoddi4.o)
 .comment       0x00000000       0x24 /opt/devkitpro/devkitARM/bin/../lib/gcc/arm-none-eabi/14.2.0/thumb/libgcc.a(_udivmoddi4.o)
 .text          0x00000000        0x0 /opt/devkitpro/devkitARM/bin/../lib/gcc/arm-none-eabi/14.2.0/thumb/crtend.o
 .data          0x00000000        0x0 /opt/devkitpro/devkitARM/bin/../lib/gcc/arm-none-eabi/14.2.0/thumb/crtend.o
 .bss           0x00000000        0x0 /opt/devkitpro/devkitARM/bin/../lib/gcc/arm-none-eabi/14.2.0/thumb/crtend.o
 .rodata.all_implied_fbits
                0x00000000       0x24 /opt/devkitpro/devkitARM/bin/../lib/gcc/arm-none-eabi/14.2.0/thumb/crtend.o
 .text          0x00000000        0x0 /opt/devkitpro/devkitARM/bin/../lib/gcc/arm-none-eabi/14.2.0/thumb/crtn.o
 .data          0x00000000        0x0 /opt/devkitpro/devkitARM/bin/../lib/gcc/arm-none-eabi/14.2.0/thumb/crtn.o
 .bss           0x00000000        0x0 /opt/devkitpro/devkitARM/bin/../lib/gcc/arm-none-eabi/14.2.0/thumb/crtn.o

Memory Configuration

Name             Origin             Length             Attributes
rom              0x08000000         0x02000000
iwram            0x03000000         0x00008000
ewram            0x02000000         0x00040000
*default*        0x00000000         0xffffffff

Linker script and memory map

                0x00000000                        __sync_synchronize = __sync_synchronize_none
                0x08000000                        __text_start = ORIGIN (rom)
                0x02040000                        __eheap_end = (ORIGIN (ewram) + LENGTH (ewram))
                0x03000000                        __iwram_start = ORIGIN (iwram)
                0x03008000                        __iwram_top = (ORIGIN (iwram) + LENGTH (iwram))
                0x03007fa0                        __sp_irq = (__iwram_top - 0x60)
                0x03007f00                        __sp_usr = (__sp_irq - 0xa0)
                0x03007ff8                        __irq_flags = 0x3007ff8
                0x08000000                        . = __text_start

.crt0           0x08000000      0x210
 *(.crt0)
 .crt0          0x08000000      0x210 /opt/devkitpro/devkitARM/bin/../lib/gcc/arm-none-eabi/14.2.0/../../../../arm-none-eabi/lib/thumb/gba_crt0.o
                0x08000000                _start
                0x080000c4                __boot_method
                0x080000c5                __slave_number
                0x080000e0                start_vector
                0x08000210                        . = ALIGN (0x4)

.init           0x08000210        0xc
 *(SORT_NONE(.init))
 .init          0x08000210        0x4 /opt/devkitpro/devkitARM/bin/../lib/gcc/arm-none-eabi/14.2.0/thumb/crti.o
                0x08000210                _init
 .init          0x08000214        0x8 /opt/devkitpro/devkitARM/bin/../lib/gcc/arm-none-eabi/14.2.0/thumb/crtn.o

.plt            0x0800021c        0x0
 *(.plt)
                0x0800021c                        . = ALIGN (0x4)

.text           0x08000220    0x1d940
 *(EXCLUDE_FILE(*.iwram*) .text*)
 .text.__do_global_dtors_aux
                0x08000220       0x2c /opt/devkitpro/devkitARM/bin/../lib/gcc/arm-none-eabi/14.2.0/thumb/crtbegin.o
 .text.frame_dummy
                0x0800024c       0x24 /opt/devkitpro/devkitARM/bin/../lib/gcc/arm-none-eabi/14.2.0/thumb/crtbegin.o
 .text._ZN12_GLOBAL__N_130sprites_position_actions_sceneERN2bn21sprite_text_generatorE
                0x08000270      0x1a4 main.o
 .text._ZN12_GLOBAL__N_122sprites_position_sceneERN2bn21sprite_text_generatorE
                0x08000414      0x14c main.o
 .text._ZN12_GLOBAL__N_123sprites_animation_sceneERN2bn21sprite_text_generatorE
                0x08000560      0x140 main.o
 .text._ZN3_bn6assert9show_argsIA15_ciEEvPKcS4_S4_iRKT_RKT0_
                0x080006a0       0x54 main.o
                0x080006a0                void _bn::assert::show_args<char [15], int>(char const*, char const*, char const*, int, char const (&) [15], int const&)
 .text._ZN3_bn6assert9show_argsIA39_ciEEvPKcS4_S4_iRKT_RKT0_
                0x080006f4       0x54 main.o
                0x080006f4                void _bn::assert::show_args<char [39], int>(char const*, char const*, char const*, int, char const (&) [39], int const&)
 .text._ZN2bn13ostringstream6appendILi12EEEvNS_7fixed_tIXT_EEE
                0x08000748       0xa0 main.o
                0x08000748                void bn::ostringstream::append<12>(bn::fixed_t<12>)
 .text._ZN12_GLOBAL__N_126sprites_position_hbe_sceneERN2bn21sprite_text_generatorE
                0x080007e8      0x1a4 main.o
 .text._ZN3_bn6assert9show_argsIA15_cEEvPKcS4_S4_iRKT_
                0x0800098c       0x48 main.o
                0x0800098c                void _bn::assert::show_args<char [15]>(char const*, char const*, char const*, int, char const (&) [15])
 .text._ZN12_GLOBAL__N_143sprites_regular_second_attributes_hbe_sceneERN2bn21sprite_text_generatorE
                0x080009d4      0x1a8 main.o
 .text._ZN12_GLOBAL__N_142sprites_affine_second_attributes_hbe_sceneERN2bn21sprite_text_generatorE
                0x08000b7c      0x258 main.o
 .text._ZN12_GLOBAL__N_134sprites_third_attributes_hbe_sceneERN2bn21sprite_text_generatorE
                0x08000dd4      0x2bc main.o
 .text._ZN12_GLOBAL__N_134sprites_first_attributes_hbe_sceneERN2bn21sprite_text_generatorE
                0x08001090      0x220 main.o
 .text.startup.main
                0x080012b0     0x2740 main.o
                0x080012b0                main
 .text._ZN6common4info15_update_spritesEv
                0x080039f0       0x9c common_info.o
                0x080039f0                common::info::_update_sprites()
 .text._ZN6common4info6updateEv
                0x08003a8c       0x30 common_info.o
                0x08003a8c                common::info::update()
 .text._ZN3_bn6assert9show_argsIA16_ciEEvPKcS4_S4_iRKT_RKT0_
                0x08003abc       0x54 common_info.o
                0x08003abc                void _bn::assert::show_args<char [16], int>(char const*, char const*, char const*, int, char const (&) [16], int const&)
 .text._ZN6common4infoC2ERKN2bn11string_viewERKNS1_4spanIS3_EERNS1_21sprite_text_generatorE
                0x08003b10      0x150 common_info.o
                0x08003b10                common::info::info(bn::string_view const&, bn::span<bn::string_view const> const&, bn::sprite_text_generator&)
                0x08003b10                common::info::info(bn::string_view const&, bn::span<bn::string_view const> const&, bn::sprite_text_generator&)
 .text._ZN2bn13ostringstream11append_argsIiJA4_ciEEEvRKT_DpRKT0_.isra.0
                0x08003c60       0x24 bn_affine_bg_animate_actions.o
 .text._ZN3_bn6assert9show_argsIJA16_ciA4_ciEEEvPKcS5_S5_iDpRKT_
                0x08003c84       0x58 bn_affine_bg_animate_actions.o
                0x08003c84                void _bn::assert::show_args<char [16], int, char [4], int>(char const*, char const*, char const*, int, char const (&) [16], int const&, char const (&) [4], int const&)
 .text._ZN3_bn6assert9show_argsIJA23_ciA4_ciEEEvPKcS5_S5_iDpRKT_
                0x08003cdc       0x58 bn_affine_bg_animate_actions.o
                0x08003cdc                void _bn::assert::show_args<char [23], int, char [4], int>(char const*, char const*, char const*, int, char const (&) [23], int const&, char const (&) [4], int const&)
 .text._ZN3_bn6assert9show_argsIA23_ciEEvPKcS4_S4_iRKT_RKT0_
                0x08003d34       0x54 bn_affine_bg_animate_actions.o
                0x08003d34                void _bn::assert::show_args<char [23], int>(char const*, char const*, char const*, int, char const (&) [23], int const&)
 .text._ZN3_bn6assert9show_argsIA24_ciEEvPKcS4_S4_iRKT_RKT0_
                0x08003d88       0x54 bn_affine_bg_animate_actions.o
                0x08003d88                void _bn::assert::show_args<char [24], int>(char const*, char const*, char const*, int, char const (&) [24], int const&)
 .text._ZN3_bn6assert9show_argsIA28_ciEEvPKcS4_S4_iRKT_RKT0_
                0x08003ddc       0x54 bn_affine_bg_animate_actions.o
                0x08003ddc                void _bn::assert::show_args<char [28], int>(char const*, char const*, char const*, int, char const (&) [28], int const&)
 .text._ZN3_bn6assert9show_argsIJA19_ciA4_ciEEEvPKcS5_S5_iDpRKT_
                0x08003e30       0x58 bn_affine_bg_animate_actions.o
                0x08003e30                void _bn::assert::show_args<char [19], int, char [4], int>(char const*, char const*, char const*, int, char const (&) [19], int const&, char const (&) [4], int const&)
 .text._ZN2bn13audio_manager12_GLOBAL__N_111static_dataD2Ev
                0x08003e88        0x4 bn_audio_manager.o
 .text._ZN2bn13audio_manager4initEv
                0x08003e8c       0x48 bn_audio_manager.o
                0x08003e8c                bn::audio_manager::init()
 .text._ZN2bn13audio_manager7disableEv
                0x08003ed4        0xc bn_audio_manager.o
                0x08003ed4                bn::audio_manager::disable()
 .text._ZN2bn13audio_manager10sound_dataEt
                0x08003ee0       0x64 bn_audio_manager.o
                0x08003ee0                bn::audio_manager::sound_data(unsigned short)
 .text._ZN2bn13audio_manager6updateEv
                0x08003f44        0xc bn_audio_manager.o
                0x08003f44                bn::audio_manager::update()
 .text._ZN2bn13audio_manager6commitEv
                0x08003f50        0xc bn_audio_manager.o
                0x08003f50                bn::audio_manager::commit()
 .text._ZN2bn13audio_manager4stopEv
                0x08003f5c       0x6c bn_audio_manager.o
                0x08003f5c                bn::audio_manager::stop()
 .text._ZN3_bn6assert9show_argsIA18_ciEEvPKcS4_S4_iRKT_RKT0_
                0x08003fc8       0x54 bn_audio_manager.o
                0x08003fc8                void _bn::assert::show_args<char [18], int>(char const*, char const*, char const*, int, char const (&) [18], int const&)
 .text._ZN3_bn6assert9show_argsIA14_ciEEvPKcS4_S4_iRKT_RKT0_
                0x0800401c       0x54 bn_audio_manager.o
                0x0800401c                void _bn::assert::show_args<char [14], int>(char const*, char const*, char const*, int, char const (&) [14], int const&)
 .text._ZN3_bn6assert9show_argsIA19_ciEEvPKcS4_S4_iRKT_RKT0_
                0x08004070       0x54 bn_audio_manager.o
                0x08004070                void _bn::assert::show_args<char [19], int>(char const*, char const*, char const*, int, char const (&) [19], int const&)
 .text._ZN3_bn6assert9show_argsIA26_ciEEvPKcS4_S4_iRKT_RKT0_
                0x080040c4       0x54 bn_audio_manager.o
                0x080040c4                void _bn::assert::show_args<char [26], int>(char const*, char const*, char const*, int, char const (&) [26], int const&)
 .text._ZN3_bn6assert9show_argsIA33_cEEvPKcS4_S4_iRKT_
                0x08004118       0x48 bn_audio_manager.o
                0x08004118                void _bn::assert::show_args<char [33]>(char const*, char const*, char const*, int, char const (&) [33])
 .text._ZN3_bn6assert9show_argsIA25_cEEvPKcS4_S4_iRKT_
                0x08004160       0x48 bn_audio_manager.o
                0x08004160                void _bn::assert::show_args<char [25]>(char const*, char const*, char const*, int, char const (&) [25])
 .text._ZN3_bn6assert9show_argsIA24_cEEvPKcS4_S4_iRKT_
                0x080041a8       0x48 bn_audio_manager.o
                0x080041a8                void _bn::assert::show_args<char [24]>(char const*, char const*, char const*, int, char const (&) [24])
 .text._ZN3_bn6assert9show_argsIA20_cEEvPKcS4_S4_iRKT_
                0x080041f0       0x48 bn_audio_manager.o
                0x080041f0                void _bn::assert::show_args<char [20]>(char const*, char const*, char const*, int, char const (&) [20])
 .text._ZN3_bn6assert9show_argsIA26_cEEvPKcS4_S4_iRKT_
                0x08004238       0x48 bn_audio_manager.o
                0x08004238                void _bn::assert::show_args<char [26]>(char const*, char const*, char const*, int, char const (&) [26])
 .text._ZN3_bn6assert9show_argsIA25_cN2bn7fixed_tILi12EEEEEvPKcS7_S7_iRKT_RKT0_
                0x08004280       0x54 bn_audio_manager.o
                0x08004280                void _bn::assert::show_args<char [25], bn::fixed_t<12> >(char const*, char const*, char const*, int, char const (&) [25], bn::fixed_t<12> const&)
 .text._ZN3_bn6assert9show_argsIA27_cN2bn7fixed_tILi12EEEEEvPKcS7_S7_iRKT_RKT0_
                0x080042d4       0x54 bn_audio_manager.o
                0x080042d4                void _bn::assert::show_args<char [27], bn::fixed_t<12> >(char const*, char const*, char const*, int, char const (&) [27], bn::fixed_t<12> const&)
 .text._ZN3_bn6assert9show_argsIA25_ciEEvPKcS4_S4_iRKT_RKT0_
                0x08004328       0x54 bn_audio_manager.o
                0x08004328                void _bn::assert::show_args<char [25], int>(char const*, char const*, char const*, int, char const (&) [25], int const&)
 .text._ZN2bn13audio_manager16execute_commandsEv
                0x0800437c      0x6a4 bn_audio_manager.o
                0x0800437c                bn::audio_manager::execute_commands()
 .text._ZN3_bn6assert9show_argsIA17_cEEvPKcS4_S4_iRKT_
                0x08004a20       0x48 bn_audio_manager.o
                0x08004a20                void _bn::assert::show_args<char [17]>(char const*, char const*, char const*, int, char const (&) [17])
 .text.startup._GLOBAL__sub_I__ZN2bn5audio16update_on_vblankEv
                0x08004a68       0x98 bn_audio_manager.o
 .text._ZN3_bn6assert9show_argsIA23_cEEvPKcS4_S4_iRKT_
                0x08004b00       0x48 bn_best_fit_allocator.o
                0x08004b00                void _bn::assert::show_args<char [23]>(char const*, char const*, char const*, int, char const (&) [23])
 .text._ZN2bn18best_fit_allocatorD2Ev
                0x08004b48       0x38 bn_best_fit_allocator.o
                0x08004b48                bn::best_fit_allocator::~best_fit_allocator()
                0x08004b48                bn::best_fit_allocator::~best_fit_allocator()
 .text._ZN3_bn6assert9show_argsIA20_ciEEvPKcS4_S4_iRKT_RKT0_
                0x08004b80       0x54 bn_best_fit_allocator.o
                0x08004b80                void _bn::assert::show_args<char [20], int>(char const*, char const*, char const*, int, char const (&) [20], int const&)
 .text._ZN3_bn6assert9show_argsIA14_cEEvPKcS4_S4_iRKT_
                0x08004bd4       0x48 bn_best_fit_allocator.o
                0x08004bd4                void _bn::assert::show_args<char [14]>(char const*, char const*, char const*, int, char const (&) [14])
 .text._ZN3_bn6assert9show_argsIA21_cEEvPKcS4_S4_iRKT_
                0x08004c1c       0x48 bn_best_fit_allocator.o
                0x08004c1c                void _bn::assert::show_args<char [21]>(char const*, char const*, char const*, int, char const (&) [21])
 .text._ZN2bn18best_fit_allocator5resetEPvi
                0x08004c64       0xbc bn_best_fit_allocator.o
                0x08004c64                bn::best_fit_allocator::reset(void*, int)
 .text._ZN2bn17bg_blocks_manager12_GLOBAL__N_117_hw_commit_offsetEPKtjtPt
                0x08004d20       0x78 bn_bg_blocks_manager.o
 .text._ZN2bn13ostringstream11append_argsIiJA4_ctEEEvRKT_DpRKT0_.isra.0
                0x08004d98       0x24 bn_bg_blocks_manager.o
 .text._ZN2bn13ostringstream11append_argsIiJA4_ciEEEvRKT_DpRKT0_.isra.0
                0x08004dbc       0x24 bn_bg_blocks_manager.o
 .text._ZNK2bn18regular_bg_map_ptr2idEv
                0x08004de0       0x18 bn_bg_blocks_manager.o
                0x08004de0                bn::regular_bg_map_ptr::id() const
 .text._ZNK2bn18regular_bg_map_ptr10dimensionsEv
                0x08004df8       0x20 bn_bg_blocks_manager.o
                0x08004df8                bn::regular_bg_map_ptr::dimensions() const
 .text._ZNK2bn18regular_bg_map_ptr3bigEv
                0x08004e18       0x18 bn_bg_blocks_manager.o
                0x08004e18                bn::regular_bg_map_ptr::big() const
 .text._ZNK2bn20regular_bg_tiles_ptr3cbbEv
                0x08004e30       0x18 bn_bg_blocks_manager.o
                0x08004e30                bn::regular_bg_tiles_ptr::cbb() const
 .text._ZNK2bn17affine_bg_map_ptr2idEv
                0x08004e48       0x18 bn_bg_blocks_manager.o
                0x08004e48                bn::affine_bg_map_ptr::id() const
 .text._ZNK2bn17affine_bg_map_ptr10dimensionsEv
                0x08004e60       0x20 bn_bg_blocks_manager.o
                0x08004e60                bn::affine_bg_map_ptr::dimensions() const
 .text._ZNK2bn19affine_bg_tiles_ptr3cbbEv
                0x08004e80       0x18 bn_bg_blocks_manager.o
                0x08004e80                bn::affine_bg_tiles_ptr::cbb() const
 .text._ZN2bn17bg_blocks_manager10log_statusEv
                0x08004e98      0x45c bn_bg_blocks_manager.o
                0x08004e98                bn::bg_blocks_manager::log_status()
 .text._ZN2bn17bg_blocks_manager15decrease_usagesEi
                0x080052f4       0x98 bn_bg_blocks_manager.o
                0x080052f4                bn::bg_blocks_manager::decrease_usages(int)
 .text._ZN2bn18regular_bg_map_ptrD2Ev
                0x0800538c       0x18 bn_bg_blocks_manager.o
                0x0800538c                bn::regular_bg_map_ptr::~regular_bg_map_ptr()
                0x0800538c                bn::regular_bg_map_ptr::~regular_bg_map_ptr()
 .text._ZN2bn17affine_bg_map_ptrD2Ev
                0x080053a4       0x18 bn_bg_blocks_manager.o
                0x080053a4                bn::affine_bg_map_ptr::~affine_bg_map_ptr()
                0x080053a4                bn::affine_bg_map_ptr::~affine_bg_map_ptr()
 .text._ZN2bn17bg_blocks_manager12_GLOBAL__N_111static_dataD2Ev
                0x080053bc       0x54 bn_bg_blocks_manager.o
 .text._ZN2bn17bg_blocks_manager12_GLOBAL__N_110items_list12insert_afterEiRKNS1_9item_typeE.constprop.0
                0x08005410      0x26c bn_bg_blocks_manager.o
 .text._ZN2bn17bg_blocks_manager4initEv
                0x0800567c       0x8c bn_bg_blocks_manager.o
                0x0800567c                bn::bg_blocks_manager::init()
 .text._ZN2bn17bg_blocks_manager11must_commitEi
                0x08005708       0x18 bn_bg_blocks_manager.o
                0x08005708                bn::bg_blocks_manager::must_commit(int)
 .text._ZN2bn17bg_blocks_manager6updateEv
                0x08005720      0x258 bn_bg_blocks_manager.o
                0x08005720                bn::bg_blocks_manager::update()
 .text._ZN3_bn6assert9show_argsIA52_ctEEvPKcS4_S4_iRKT_RKT0_
                0x08005978       0x54 bn_bg_blocks_manager.o
                0x08005978                void _bn::assert::show_args<char [52], unsigned short>(char const*, char const*, char const*, int, char const (&) [52], unsigned short const&)
 .text._ZN3_bn6assert9show_argsIJA20_ciA4_ctEEEvPKcS5_S5_iDpRKT_
                0x080059cc       0x58 bn_bg_blocks_manager.o
                0x080059cc                void _bn::assert::show_args<char [20], int, char [4], unsigned short>(char const*, char const*, char const*, int, char const (&) [20], int const&, char const (&) [4], unsigned short const&)
 .text._ZN3_bn6assert9show_argsIJA22_ciA4_ciEEEvPKcS5_S5_iDpRKT_
                0x08005a24       0x58 bn_bg_blocks_manager.o
                0x08005a24                void _bn::assert::show_args<char [22], int, char [4], int>(char const*, char const*, char const*, int, char const (&) [22], int const&, char const (&) [4], int const&)
 .text._ZN3_bn6assert9show_argsIJA58_ciA4_ciEEEvPKcS5_S5_iDpRKT_
                0x08005a7c       0x58 bn_bg_blocks_manager.o
                0x08005a7c                void _bn::assert::show_args<char [58], int, char [4], int>(char const*, char const*, char const*, int, char const (&) [58], int const&, char const (&) [4], int const&)
 .text._ZN3_bn6assert9show_argsIA38_cEEvPKcS4_S4_iRKT_
                0x08005ad4       0x48 bn_bg_blocks_manager.o
                0x08005ad4                void _bn::assert::show_args<char [38]>(char const*, char const*, char const*, int, char const (&) [38])
 .text._ZN3_bn6assert9show_argsIA27_ciEEvPKcS4_S4_iRKT_RKT0_
                0x08005b1c       0x54 bn_bg_blocks_manager.o
                0x08005b1c                void _bn::assert::show_args<char [27], int>(char const*, char const*, char const*, int, char const (&) [27], int const&)
 .text._ZN2bn17bg_blocks_manager12_GLOBAL__N_110_hw_commitEPKtNS_16compression_typeEibPt
                0x08005b70       0x6c bn_bg_blocks_manager.o
 .text._ZN3_bn6assert9show_argsIA22_ciEEvPKcS4_S4_iRKT_RKT0_
                0x08005bdc       0x54 bn_bg_blocks_manager.o
                0x08005bdc                void _bn::assert::show_args<char [22], int>(char const*, char const*, char const*, int, char const (&) [22], int const&)
 .text._ZN3_bn6assert9show_argsIA19_cEEvPKcS4_S4_iRKT_
                0x08005c30       0x48 bn_bg_blocks_manager.o
                0x08005c30                void _bn::assert::show_args<char [19]>(char const*, char const*, char const*, int, char const (&) [19])
 .text._ZN2bn17bg_blocks_manager12_GLOBAL__N_116_find_tiles_implEPKtNS_16compression_typeEib
                0x08005c78       0xfc bn_bg_blocks_manager.o
 .text._ZN2bn17bg_blocks_manager12_GLOBAL__N_117_fix_blocks_countERKNS1_9item_typeEi
                0x08005d74       0x78 bn_bg_blocks_manager.o
 .text._ZN3_bn6assert9show_argsIA22_cEEvPKcS4_S4_iRKT_
                0x08005dec       0x48 bn_bg_blocks_manager.o
                0x08005dec                void _bn::assert::show_args<char [22]>(char const*, char const*, char const*, int, char const (&) [22])
 .text._ZNK2bn18regular_bg_map_ptr5tilesEv
                0x08005e34       0x48 bn_bg_blocks_manager.o
                0x08005e34                bn::regular_bg_map_ptr::tiles() const
 .text._ZNK2bn17affine_bg_map_ptr5tilesEv
                0x08005e7c       0x48 bn_bg_blocks_manager.o
                0x08005e7c                bn::affine_bg_map_ptr::tiles() const
 .text._ZNK2bn18regular_bg_map_ptr3bppEv
                0x08005ec4       0x4c bn_bg_blocks_manager.o
                0x08005ec4                bn::regular_bg_map_ptr::bpp() const
 .text._ZN2bn17bg_blocks_manager21update_affine_map_rowEiii
                0x08005f10      0x168 bn_bg_blocks_manager.o
                0x08005f10                bn::bg_blocks_manager::update_affine_map_row(int, int, int)
 .text._ZN2bn17bg_blocks_manager28update_affine_map_bottom_rowEiii
                0x08006078       0x2c bn_bg_blocks_manager.o
                0x08006078                bn::bg_blocks_manager::update_affine_map_bottom_row(int, int, int)
 .text._ZN2bn17bg_blocks_manager23set_affine_map_positionEiii
                0x080060a4      0x214 bn_bg_blocks_manager.o
                0x080060a4                bn::bg_blocks_manager::set_affine_map_position(int, int, int)
 .text._ZN2bn17bg_blocks_manager21update_affine_map_colEiii
                0x080062b8      0x334 bn_bg_blocks_manager.o
                0x080062b8                bn::bg_blocks_manager::update_affine_map_col(int, int, int)
 .text._ZN2bn17bg_blocks_manager27update_affine_map_right_colEiii
                0x080065ec       0x2c bn_bg_blocks_manager.o
                0x080065ec                bn::bg_blocks_manager::update_affine_map_right_col(int, int, int)
 .text._ZN2bn17bg_blocks_manager22update_regular_map_rowEiii
                0x08006618      0x194 bn_bg_blocks_manager.o
                0x08006618                bn::bg_blocks_manager::update_regular_map_row(int, int, int)
 .text._ZN2bn17bg_blocks_manager22update_regular_map_colEiii
                0x080067ac      0x1fc bn_bg_blocks_manager.o
                0x080067ac                bn::bg_blocks_manager::update_regular_map_col(int, int, int)
 .text._ZN2bn17bg_blocks_manager24set_regular_map_positionEiii
                0x080069a8      0x24c bn_bg_blocks_manager.o
                0x080069a8                bn::bg_blocks_manager::set_regular_map_position(int, int, int)
 .text._ZN2bn17bg_blocks_manager21set_regular_map_tilesEiONS_20regular_bg_tiles_ptrE
                0x08006bf4      0x258 bn_bg_blocks_manager.o
                0x08006bf4                bn::bg_blocks_manager::set_regular_map_tiles(int, bn::regular_bg_tiles_ptr&&)
 .text._ZN2bn17bg_blocks_manager23set_regular_map_paletteEiONS_14bg_palette_ptrE
                0x08006e4c      0x220 bn_bg_blocks_manager.o
                0x08006e4c                bn::bg_blocks_manager::set_regular_map_palette(int, bn::bg_palette_ptr&&)
 .text._ZN2bn17bg_blocks_manager12_GLOBAL__N_112_commit_itemERKNS1_9item_typeEb
                0x0800706c      0x1f0 bn_bg_blocks_manager.o
 .text._ZN2bn17bg_blocks_manager12_GLOBAL__N_112_create_itemEiibONS1_11create_dataE
                0x0800725c      0x544 bn_bg_blocks_manager.o
 .text._ZN2bn17bg_blocks_manager12_GLOBAL__N_112_create_implEONS1_11create_dataE
                0x080077a0      0x1fc bn_bg_blocks_manager.o
 .text._ZN2bn17bg_blocks_manager19commit_uncompressedEb
                0x0800799c       0x58 bn_bg_blocks_manager.o
                0x0800799c                bn::bg_blocks_manager::commit_uncompressed(bool)
 .text._ZN2bn17bg_blocks_manager17commit_compressedEv
                0x080079f4       0x48 bn_bg_blocks_manager.o
                0x080079f4                bn::bg_blocks_manager::commit_compressed()
 .text._ZN3_bn6assert9show_argsIJA32_cA15_cPKtA16_ciA17_ciA34_cN2bn11string_viewEEEEvPKcSC_SC_iDpRKT_
                0x08007a3c       0x90 bn_bg_blocks_manager.o
                0x08007a3c                void _bn::assert::show_args<char [32], char [15], unsigned short const*, char [16], int, char [17], int, char [34], bn::string_view>(char const*, char const*, char const*, int, char const (&) [32], char const (&) [15], unsigned short const* const&, char const (&) [16], int const&, char const (&) [17], int const&, char const (&) [34], bn::string_view const&)
 .text._ZN2bn17bg_blocks_manager20create_regular_tilesERKNS_21regular_bg_tiles_itemEb
                0x08007acc      0x138 bn_bg_blocks_manager.o
                0x08007acc                bn::bg_blocks_manager::create_regular_tiles(bn::regular_bg_tiles_item const&, bool)
 .text._ZN3_bn6assert9show_argsIJA30_cA13_cPKtA14_ciA15_ciA17_ciA34_cN2bn11string_viewEEEEvPKcSD_SD_iDpRKT_
                0x08007c04       0xa0 bn_bg_blocks_manager.o
                0x08007c04                void _bn::assert::show_args<char [30], char [13], unsigned short const*, char [14], int, char [15], int, char [17], int, char [34], bn::string_view>(char const*, char const*, char const*, int, char const (&) [30], char const (&) [13], unsigned short const* const&, char const (&) [14], int const&, char const (&) [15], int const&, char const (&) [17], int const&, char const (&) [34], bn::string_view const&)
 .text._ZN3_bn6assert9show_argsIA31_cEEvPKcS4_S4_iRKT_
                0x08007ca4       0x48 bn_bg_blocks_manager.o
                0x08007ca4                void _bn::assert::show_args<char [31]>(char const*, char const*, char const*, int, char const (&) [31])
 .text._ZN3_bn6assert9show_argsIJA37_ciA4_ciEEEvPKcS5_S5_iDpRKT_
                0x08007cec       0x58 bn_bg_blocks_manager.o
                0x08007cec                void _bn::assert::show_args<char [37], int, char [4], int>(char const*, char const*, char const*, int, char const (&) [37], int const&, char const (&) [4], int const&)
 .text._ZN2bn17bg_blocks_manager33set_regular_map_tiles_and_paletteEiONS_20regular_bg_tiles_ptrEONS_14bg_palette_ptrE
                0x08007d44      0x2e8 bn_bg_blocks_manager.o
                0x08007d44                bn::bg_blocks_manager::set_regular_map_tiles_and_palette(int, bn::regular_bg_tiles_ptr&&, bn::bg_palette_ptr&&)
 .text._ZN2bn17bg_blocks_manager12_GLOBAL__N_122_find_regular_map_implERKNS_19regular_bg_map_itemEPKtRKNS_20regular_bg_tiles_ptrERKNS_14bg_palette_ptrE
                0x0800802c      0x2e0 bn_bg_blocks_manager.o
 .text._ZN2bn17bg_blocks_manager18create_regular_mapERKNS_19regular_bg_map_itemEPKtONS_20regular_bg_tiles_ptrEONS_14bg_palette_ptrEb
                0x0800830c      0x280 bn_bg_blocks_manager.o
                0x0800830c                bn::bg_blocks_manager::create_regular_map(bn::regular_bg_map_item const&, unsigned short const*, bn::regular_bg_tiles_ptr&&, bn::bg_palette_ptr&&, bool)
 .text._ZN2bn18regular_bg_map_ptr6createERKNS_15regular_bg_itemEi
                0x0800858c       0xdc bn_bg_blocks_manager.o
                0x0800858c                bn::regular_bg_map_ptr::create(bn::regular_bg_item const&, int)
 .text.startup._GLOBAL__sub_I__ZN2bn7bg_maps16used_cells_countEv
                0x08008668       0x88 bn_bg_blocks_manager.o
 .text._ZN2bn11bgs_manager12_GLOBAL__N_129_check_unique_regular_big_mapERNS1_9item_typeE
                0x080086f0       0x68 bn_bgs_manager.o
 .text._ZN2bn11bgs_manager12_GLOBAL__N_111static_dataD2Ev
                0x08008758       0x10 bn_bgs_manager.o
 .text._ZN2bn11bgs_manager12_GLOBAL__N_133_update_item_hw_affine_attributesERKNS1_9item_typeE
                0x08008768       0x48 bn_bgs_manager.o
 .text._ZN2bn11bgs_manager4initEv
                0x080087b0       0x8c bn_bgs_manager.o
                0x080087b0                bn::bgs_manager::init()
 .text._ZN2bn11bgs_manager5hw_idEPv
                0x0800883c        0x8 bn_bgs_manager.o
                0x0800883c                bn::bgs_manager::hw_id(void*)
 .text._ZN2bn11bgs_manager11hw_positionEPv
                0x08008844        0x4 bn_bgs_manager.o
                0x08008844                bn::bgs_manager::hw_position(void*)
 .text._ZN2bn11bgs_manager14mat_attributesEPv
                0x08008848        0x4 bn_bgs_manager.o
                0x08008848                bn::bgs_manager::mat_attributes(void*)
 .text._ZN2bn11bgs_manager20update_windows_flagsEPj
                0x0800884c       0x7c bn_bgs_manager.o
                0x0800884c                bn::bgs_manager::update_windows_flags(unsigned int*)
 .text._ZN2bn11bgs_manager14update_camerasEv
                0x080088c8      0x14c bn_bgs_manager.o
                0x080088c8                bn::bgs_manager::update_cameras()
 .text._ZN2bn11bgs_manager28update_regular_map_tiles_cbbEii
                0x08008a14       0xa8 bn_bgs_manager.o
                0x08008a14                bn::bgs_manager::update_regular_map_tiles_cbb(int, int)
 .text._ZN2bn11bgs_manager30update_regular_map_palette_bppEiNS_8bpp_modeE
                0x08008abc       0xac bn_bgs_manager.o
                0x08008abc                bn::bgs_manager::update_regular_map_palette_bpp(int, bn::bpp_mode)
 .text._ZN2bn11bgs_manager6reloadEv
                0x08008b68       0x14 bn_bgs_manager.o
                0x08008b68                bn::bgs_manager::reload()
 .text._ZN2bn11bgs_manager36fill_hblank_effect_regular_positionsEiPKNS_7fixed_tILi12EEEPt
                0x08008b7c       0x38 bn_bgs_manager.o
                0x08008b7c                bn::bgs_manager::fill_hblank_effect_regular_positions(int, bn::fixed_t<12> const*, unsigned short*)
 .text._ZN2bn11bgs_manager45fill_hblank_effect_pivot_horizontal_positionsEPvPKNS_7fixed_tILi12EEEPj
                0x08008bb4       0x24 bn_bgs_manager.o
                0x08008bb4                bn::bgs_manager::fill_hblank_effect_pivot_horizontal_positions(void*, bn::fixed_t<12> const*, unsigned int*)
 .text._ZN2bn11bgs_manager43fill_hblank_effect_pivot_vertical_positionsEPvPKNS_7fixed_tILi12EEEPj
                0x08008bd8       0x24 bn_bgs_manager.o
                0x08008bd8                bn::bgs_manager::fill_hblank_effect_pivot_vertical_positions(void*, bn::fixed_t<12> const*, unsigned int*)
 .text._ZN2bn11bgs_manager6commitEb
                0x08008bfc       0x58 bn_bgs_manager.o
                0x08008bfc                bn::bgs_manager::commit(bool)
 .text._ZN2bn11bgs_manager4stopEv
                0x08008c54       0x28 bn_bgs_manager.o
                0x08008c54                bn::bgs_manager::stop()
 .text._ZN3_bn6assert9show_argsIA17_ciEEvPKcS4_S4_iRKT_RKT0_
                0x08008c7c       0x54 bn_bgs_manager.o
                0x08008c7c                void _bn::assert::show_args<char [17], int>(char const*, char const*, char const*, int, char const (&) [17], int const&)
 .text._ZN3_bn6assert9show_argsIA30_cEEvPKcS4_S4_iRKT_
                0x08008cd0       0x48 bn_bgs_manager.o
                0x08008cd0                void _bn::assert::show_args<char [30]>(char const*, char const*, char const*, int, char const (&) [30])
 .text._ZN3_bn6assert9show_argsIA27_cEEvPKcS4_S4_iRKT_
                0x08008d18       0x48 bn_bgs_manager.o
                0x08008d18                void _bn::assert::show_args<char [27]>(char const*, char const*, char const*, int, char const (&) [27])
 .text._ZN3_bn6assert9show_argsIA46_cEEvPKcS4_S4_iRKT_
                0x08008d60       0x48 bn_bgs_manager.o
                0x08008d60                void _bn::assert::show_args<char [46]>(char const*, char const*, char const*, int, char const (&) [46])
 .text._ZN2bn11bgs_manager15rebuild_handlesEv.part.0
                0x08008da8      0x1a8 bn_bgs_manager.o
 .text._ZN3_bn6assert9show_argsIA16_cN2bn7fixed_tILi12EEEEEvPKcS7_S7_iRKT_RKT0_
                0x08008f50       0x54 bn_bgs_manager.o
                0x08008f50                void _bn::assert::show_args<char [16], bn::fixed_t<12> >(char const*, char const*, char const*, int, char const (&) [16], bn::fixed_t<12> const&)
 .text._ZN3_bn6assert9show_argsIA38_cN2bn7fixed_tILi12EEEEEvPKcS7_S7_iRKT_RKT0_
                0x08008fa4       0x54 bn_bgs_manager.o
                0x08008fa4                void _bn::assert::show_args<char [38], bn::fixed_t<12> >(char const*, char const*, char const*, int, char const (&) [38], bn::fixed_t<12> const&)
 .text._ZN2bn18regular_bg_builder11release_mapEv
                0x08008ff8       0x6c bn_bgs_manager.o
                0x08008ff8                bn::regular_bg_builder::release_map()
 .text._ZN2bn11bgs_manager37fill_hblank_effect_regular_attributesEPvPKNS_21regular_bg_attributesEPt
                0x08009064      0x108 bn_bgs_manager.o
                0x08009064                bn::bgs_manager::fill_hblank_effect_regular_attributes(void*, bn::regular_bg_attributes const*, unsigned short*)
 .text._ZN2bn11bgs_manager6updateEv
                0x0800916c      0x16c bn_bgs_manager.o
                0x0800916c                bn::bgs_manager::update()
 .text._ZN2bn11bgs_manager15commit_big_mapsEv
                0x080092d8      0x1d0 bn_bgs_manager.o
                0x080092d8                bn::bgs_manager::commit_big_maps()
 .text._ZN2bn11bgs_manager12_GLOBAL__N_19item_type18update_regular_mapEv
                0x080094a8      0x1c8 bn_bgs_manager.o
 .text._ZN2bn11bgs_manager36fill_hblank_effect_affine_attributesEPvPKNS_20affine_bg_attributesEPt
                0x08009670      0x10c bn_bgs_manager.o
                0x08009670                bn::bgs_manager::fill_hblank_effect_affine_attributes(void*, bn::affine_bg_attributes const*, unsigned short*)
 .text._ZN2bn11bgs_manager10affine_mapEPv
                0x0800977c       0x34 bn_bgs_manager.o
                0x0800977c                bn::bgs_manager::affine_map(void*)
 .text._ZN2bn11bgs_manager11regular_mapEPv
                0x080097b0       0x34 bn_bgs_manager.o
                0x080097b0                bn::bgs_manager::regular_map(void*)
 .text._ZN2bn11bgs_manager12_GLOBAL__N_112_insert_itemERNS1_9item_typeE
                0x080097e4      0x104 bn_bgs_manager.o
 .text._ZN3_bn6assert9show_argsIA13_cEEvPKcS4_S4_iRKT_
                0x080098e8       0x48 bn_bgs_manager.o
                0x080098e8                void _bn::assert::show_args<char [13]>(char const*, char const*, char const*, int, char const (&) [13])
 .text._ZN2bn11bgs_manager6createEONS_18regular_bg_builderE
                0x08009930      0x1f0 bn_bgs_manager.o
                0x08009930                bn::bgs_manager::create(bn::regular_bg_builder&&)
 .text._ZNK2bn15regular_bg_item9create_bgENS_7fixed_tILi12EEES2_
                0x08009b20       0x78 bn_bgs_manager.o
                0x08009b20                bn::regular_bg_item::create_bg(bn::fixed_t<12>, bn::fixed_t<12>) const
 .text._ZN2bn5eraseIPNS_11bgs_manager12_GLOBAL__N_19item_typeEEENS_7ivectorIT_E9size_typeERS7_RKS6_.constprop.0.isra.0
                0x08009b98      0x13c bn_bgs_manager.o
 .text._ZN2bn11bgs_manager15decrease_usagesEPv
                0x08009cd4       0xa8 bn_bgs_manager.o
                0x08009cd4                bn::bgs_manager::decrease_usages(void*)
 .text._ZN2bn14regular_bg_ptrD2Ev
                0x08009d7c       0x18 bn_bgs_manager.o
                0x08009d7c                bn::regular_bg_ptr::~regular_bg_ptr()
                0x08009d7c                bn::regular_bg_ptr::~regular_bg_ptr()
 .text._ZN2bn14regular_bg_ptr12set_priorityEi
                0x08009d94       0x68 bn_bgs_manager.o
                0x08009d94                bn::regular_bg_ptr::set_priority(int)
 .text.startup._GLOBAL__sub_I__ZN2bn3bgs16used_items_countEv
                0x08009dfc       0x90 bn_bgs_manager.o
 .text._ZN2bn10camera_ptrC2ERKS0_
                0x08009e8c       0x20 bn_cameras_manager.o
                0x08009e8c                bn::camera_ptr::camera_ptr(bn::camera_ptr const&)
                0x08009e8c                bn::camera_ptr::camera_ptr(bn::camera_ptr const&)
 .text._ZN2bn10camera_ptraSERKS0_
                0x08009eac       0x54 bn_cameras_manager.o
                0x08009eac                bn::camera_ptr::operator=(bn::camera_ptr const&)
 .text._ZN2bn10camera_ptrD2Ev
                0x08009f00       0x38 bn_cameras_manager.o
                0x08009f00                bn::camera_ptr::~camera_ptr()
                0x08009f00                bn::camera_ptr::~camera_ptr()
 .text._ZNK2bn10camera_ptr8positionEv
                0x08009f38       0x14 bn_cameras_manager.o
                0x08009f38                bn::camera_ptr::position() const
 .text._ZN2bn15cameras_manager4initEv
                0x08009f4c       0x24 bn_cameras_manager.o
                0x08009f4c                bn::cameras_manager::init()
 .text._ZN2bn15cameras_manager6updateEv
                0x08009f70       0x28 bn_cameras_manager.o
                0x08009f70                bn::cameras_manager::update()
 .text.startup._GLOBAL__sub_I__ZN2bn7cameras16used_items_countEv
                0x08009f98       0x24 bn_cameras_manager.o
 .text._ZN2bn4core12_GLOBAL__N_14stopEb
                0x08009fbc       0x58 bn_core.o
 .text._ZN2bn4core12_GLOBAL__N_111update_implEv
                0x0800a014      0x114 bn_core.o
 .text._ZN2bn4core6updateEv
                0x0800a128       0x78 bn_core.o
                0x0800a128                bn::core::update()
 .text._ZN2bn4core4initERKNS_8optionalINS_5colorEEERKNS_11string_viewE
                0x0800a1a0      0x12c bn_core.o
                0x0800a1a0                bn::core::init(bn::optional<bn::color> const&, bn::string_view const&)
 .text._ZN2bn4core4initEv
                0x0800a2cc       0x24 bn_core.o
                0x0800a2cc                bn::core::init()
 .text._ZN2bn4core9on_vblankEv
                0x0800a2f0       0x2c bn_core.o
                0x0800a2f0                bn::core::on_vblank()
 .text._ZN2bn11string_viewC2EPKc
                0x0800a31c       0x40 bn_core.o
                0x0800a31c                bn::string_view::string_view(char const*)
                0x0800a31c                bn::string_view::string_view(char const*)
 .text._ZN3_bn6assert12_GLOBAL__N_110_show_implEPKcS3_S3_iRKN2bn11string_viewE
                0x0800a35c       0x80 bn_core.o
 .text._ZN3_bn6assert4showEPKcS2_S2_iRKN2bn12istring_baseE
                0x0800a3dc       0x18 bn_core.o
                0x0800a3dc                _bn::assert::show(char const*, char const*, char const*, int, bn::istring_base const&)
 .text._ZN3_bn6assert9show_argsIA18_cEEvPKcS4_S4_iRKT_
                0x0800a3f4       0x48 bn_core.o
                0x0800a3f4                void _bn::assert::show_args<char [18]>(char const*, char const*, char const*, int, char const (&) [18])
 .text.startup._GLOBAL__sub_I__ZN2bn4core4initEv
                0x0800a43c       0x4c bn_core.o
 .text._ZN2bn15display_manager12_GLOBAL__N_111static_dataD2Ev
                0x0800a488       0x34 bn_display_manager.o
 .text._ZN2bn15display_manager12_GLOBAL__N_134_update_rect_windows_hw_boundariesEi
                0x0800a4bc       0x7c bn_display_manager.o
 .text._ZN2bn15display_manager4initEv
                0x0800a538       0xa4 bn_display_manager.o
                0x0800a538                bn::display_manager::init()
 .text._ZN2bn15display_manager8set_modeEi
                0x0800a5dc       0x1c bn_display_manager.o
                0x0800a5dc                bn::display_manager::set_mode(int)
 .text._ZN2bn15display_manager15sprites_visibleEv
                0x0800a5f8        0xc bn_display_manager.o
                0x0800a5f8                bn::display_manager::sprites_visible()
 .text._ZN2bn15display_manager19set_sprites_visibleEb
                0x0800a604       0x1c bn_display_manager.o
                0x0800a604                bn::display_manager::set_sprites_visible(bool)
 .text._ZN2bn15display_manager14set_bg_enabledEib
                0x0800a620       0x18 bn_display_manager.o
                0x0800a620                bn::display_manager::set_bg_enabled(int, bool)
 .text._ZN2bn15display_manager15disable_all_bgsEv
                0x0800a638       0x14 bn_display_manager.o
                0x0800a638                bn::display_manager::disable_all_bgs()
 .text._ZN2bn15display_manager13reload_mosaicEv
                0x0800a64c       0x14 bn_display_manager.o
                0x0800a64c                bn::display_manager::reload_mosaic()
 .text._ZN2bn15display_manager36fill_mosaic_hblank_effect_attributesEPKNS_17mosaic_attributesEPt
                0x0800a660       0xb4 bn_display_manager.o
                0x0800a660                bn::display_manager::fill_mosaic_hblank_effect_attributes(bn::mosaic_attributes const*, unsigned short*)
 .text._ZN2bn15display_manager27set_blending_top_bg_enabledEib
                0x0800a714       0x20 bn_display_manager.o
                0x0800a714                bn::display_manager::set_blending_top_bg_enabled(int, bool)
 .text._ZN2bn15display_manager30set_blending_bottom_bg_enabledEib
                0x0800a734       0x20 bn_display_manager.o
                0x0800a734                bn::display_manager::set_blending_bottom_bg_enabled(int, bool)
 .text._ZN2bn15display_manager32blending_transparency_top_weightEv
                0x0800a754       0x18 bn_display_manager.o
                0x0800a754                bn::display_manager::blending_transparency_top_weight()
 .text._ZN2bn15display_manager35blending_transparency_bottom_weightEv
                0x0800a76c       0x28 bn_display_manager.o
                0x0800a76c                bn::display_manager::blending_transparency_bottom_weight()
 .text._ZN2bn15display_manager28reload_blending_transparencyEv
                0x0800a794       0x14 bn_display_manager.o
                0x0800a794                bn::display_manager::reload_blending_transparency()
 .text._ZN2bn15display_manager51fill_blending_transparency_hblank_effect_attributesEPKNS_32blending_transparency_attributesEPt
                0x0800a7a8       0x30 bn_display_manager.o
                0x0800a7a8                bn::display_manager::fill_blending_transparency_hblank_effect_attributes(bn::blending_transparency_attributes const*, unsigned short*)
 .text._ZN2bn15display_manager21blending_fade_enabledEv
                0x0800a7d8        0xc bn_display_manager.o
                0x0800a7d8                bn::display_manager::blending_fade_enabled()
 .text._ZN2bn15display_manager25set_blending_fade_enabledEb
                0x0800a7e4       0x2c bn_display_manager.o
                0x0800a7e4                bn::display_manager::set_blending_fade_enabled(bool)
 .text._ZN2bn15display_manager20reload_blending_fadeEv
                0x0800a810       0x40 bn_display_manager.o
                0x0800a810                bn::display_manager::reload_blending_fade()
 .text._ZN2bn15display_manager39fill_blending_fade_hblank_effect_alphasEPKNS_19blending_fade_alphaEPt
                0x0800a850       0x24 bn_display_manager.o
                0x0800a850                bn::display_manager::fill_blending_fade_hblank_effect_alphas(bn::blending_fade_alpha const*, unsigned short*)
 .text._ZN2bn15display_manager26update_windows_visible_bgsEv
                0x0800a874       0x14 bn_display_manager.o
                0x0800a874                bn::display_manager::update_windows_visible_bgs()
 .text._ZN2bn15display_manager36rect_window_hw_horizontal_boundariesEi
                0x0800a888       0x18 bn_display_manager.o
                0x0800a888                bn::display_manager::rect_window_hw_horizontal_boundaries(int)
 .text._ZN2bn15display_manager34rect_window_hw_vertical_boundariesEi
                0x0800a8a0       0x18 bn_display_manager.o
                0x0800a8a0                bn::display_manager::rect_window_hw_vertical_boundaries(int)
 .text._ZN2bn15display_manager30reload_rect_windows_boundariesEv
                0x0800a8b8       0x14 bn_display_manager.o
                0x0800a8b8                bn::display_manager::reload_rect_windows_boundaries()
 .text._ZN2bn15display_manager52fill_rect_window_hblank_effect_horizontal_boundariesERKSt4pairIiiEPKS1_INS_7fixed_tILi12EEES6_EPt
                0x0800a8cc      0x134 bn_display_manager.o
                0x0800a8cc                bn::display_manager::fill_rect_window_hblank_effect_horizontal_boundaries(std::pair<int, int> const&, std::pair<bn::fixed_t<12>, bn::fixed_t<12> > const*, unsigned short*)
 .text._ZN2bn15display_manager50fill_rect_window_hblank_effect_vertical_boundariesERKSt4pairIiiEPKS1_INS_7fixed_tILi12EEES6_EPt
                0x0800aa00      0x134 bn_display_manager.o
                0x0800aa00                bn::display_manager::fill_rect_window_hblank_effect_vertical_boundaries(std::pair<int, int> const&, std::pair<bn::fixed_t<12>, bn::fixed_t<12> > const*, unsigned short*)
 .text._ZN2bn15display_manager17reload_green_swapEv
                0x0800ab34       0x14 bn_display_manager.o
                0x0800ab34                bn::display_manager::reload_green_swap()
 .text._ZN2bn15display_manager36fill_green_swap_hblank_effect_statesEPKbPt
                0x0800ab48       0x38 bn_display_manager.o
                0x0800ab48                bn::display_manager::fill_green_swap_hblank_effect_states(bool const*, unsigned short*)
 .text._ZN2bn15display_manager14update_camerasEv
                0x0800ab80       0x40 bn_display_manager.o
                0x0800ab80                bn::display_manager::update_cameras()
 .text._ZN2bn15display_manager6updateEv
                0x0800abc0      0x250 bn_display_manager.o
                0x0800abc0                bn::display_manager::update()
 .text._ZN2bn15display_manager6commitEv
                0x0800ae10      0x12c bn_display_manager.o
                0x0800ae10                bn::display_manager::commit()
 .text._ZN2bn15display_manager4stopEv
                0x0800af3c       0x30 bn_display_manager.o
                0x0800af3c                bn::display_manager::stop()
 .text._ZN3_bn6assert9show_argsIA66_cEEvPKcS4_S4_iRKT_
                0x0800af6c       0x48 bn_display_manager.o
                0x0800af6c                void _bn::assert::show_args<char [66]>(char const*, char const*, char const*, int, char const (&) [66])
 .text._ZN3_bn6assert9show_argsIA29_cN2bn7fixed_tILi12EEEEEvPKcS7_S7_iRKT_RKT0_
                0x0800afb4       0x54 bn_display_manager.o
                0x0800afb4                void _bn::assert::show_args<char [29], bn::fixed_t<12> >(char const*, char const*, char const*, int, char const (&) [29], bn::fixed_t<12> const&)
 .text._ZN2bn8blending22set_transparency_alphaENS_7fixed_tILi12EEE
                0x0800b008       0x94 bn_display_manager.o
                0x0800b008                bn::blending::set_transparency_alpha(bn::fixed_t<12>)
 .text._ZN3_bn6assert9show_argsIA18_cN2bn7fixed_tILi12EEEEEvPKcS7_S7_iRKT_RKT0_
                0x0800b09c       0x54 bn_display_manager.o
                0x0800b09c                void _bn::assert::show_args<char [18], bn::fixed_t<12> >(char const*, char const*, char const*, int, char const (&) [18], bn::fixed_t<12> const&)
 .text._ZN2bn14sprites_mosaic11set_stretchENS_7fixed_tILi12EEE
                0x0800b0f0       0x70 bn_display_manager.o
                0x0800b0f0                bn::sprites_mosaic::set_stretch(bn::fixed_t<12>)
 .text.startup._GLOBAL__sub_I__ZNK2bn6window7show_bgERKNS_14regular_bg_ptrE
                0x0800b160       0xa4 bn_display_manager.o
 .text._ZN2bn12gpio_manager5sleepEv
                0x0800b204       0x28 bn_gpio_manager.o
                0x0800b204                bn::gpio_manager::sleep()
 .text._ZN2bn22hblank_effects_manager12_GLOBAL__N_19item_type18_output_values_ptrEv
                0x0800b22c       0x40 bn_hblank_effects_manager.o
 .text._ZN2bn23sprite_position_hbe_ptr17reload_deltas_refEv
                0x0800b26c       0x2c bn_hblank_effects_manager.o
                0x0800b26c                bn::sprite_position_hbe_ptr::reload_deltas_ref()
 .text._ZN2bn22hblank_effects_manager7disableEv
                0x0800b298       0x24 bn_hblank_effects_manager.o
                0x0800b298                bn::hblank_effects_manager::disable()
 .text._ZN2bn22hblank_effects_manager4stopEv
                0x0800b2bc       0x38 bn_hblank_effects_manager.o
                0x0800b2bc                bn::hblank_effects_manager::stop()
 .text._ZN2bn22hblank_effects_manager6commitEv
                0x0800b2f4       0x88 bn_hblank_effects_manager.o
                0x0800b2f4                bn::hblank_effects_manager::commit()
 .text._ZN2bn22hblank_effects_manager12_GLOBAL__N_110_is_uint32ENS0_12handler_typeE
                0x0800b37c       0x64 bn_hblank_effects_manager.o
 .text._ZN2bn22hblank_effects_manager12_GLOBAL__N_19item_type7cleanupEv
                0x0800b3e0       0x9c bn_hblank_effects_manager.o
 .text._ZN2bn22hblank_effects_manager12_GLOBAL__N_126_update_visible_item_indexEi
                0x0800b47c       0x98 bn_hblank_effects_manager.o
 .text._ZN3_bn6assert9show_argsIA42_cEEvPKcS4_S4_iRKT_
                0x0800b514       0x48 bn_hblank_effects_manager.o
                0x0800b514                void _bn::assert::show_args<char [42]>(char const*, char const*, char const*, int, char const (&) [42])
 .text._ZN2bn22hblank_effects_manager12_GLOBAL__N_19item_type12check_updateEv
                0x0800b55c     0x1640 bn_hblank_effects_manager.o
 .text._ZN2bn22hblank_effects_manager6updateEv
                0x0800cb9c      0x1ec bn_hblank_effects_manager.o
                0x0800cb9c                bn::hblank_effects_manager::update()
 .text._ZN3_bn6assert9show_argsIA34_cEEvPKcS4_S4_iRKT_
                0x0800cd88       0x48 bn_hblank_effects_manager.o
                0x0800cd88                void _bn::assert::show_args<char [34]>(char const*, char const*, char const*, int, char const (&) [34])
 .text._ZN2bn22hblank_effects_manager12_GLOBAL__N_17_createEPKviNS0_12handler_typeEb
                0x0800cdd0      0x26c bn_hblank_effects_manager.o
 .text._ZN2bn39sprite_affine_second_attributes_hbe_ptr6createENS_10sprite_ptrERKNS_4spanIKNS_31sprite_affine_second_attributesEEE
                0x0800d03c       0x70 bn_hblank_effects_manager.o
                0x0800d03c                bn::sprite_affine_second_attributes_hbe_ptr::create(bn::sprite_ptr, bn::span<bn::sprite_affine_second_attributes const> const&)
 .text._ZN2bn31sprite_first_attributes_hbe_ptr6createENS_10sprite_ptrERKNS_4spanIKNS_23sprite_first_attributesEEE
                0x0800d0ac       0x70 bn_hblank_effects_manager.o
                0x0800d0ac                bn::sprite_first_attributes_hbe_ptr::create(bn::sprite_ptr, bn::span<bn::sprite_first_attributes const> const&)
 .text._ZN2bn23sprite_position_hbe_ptr17create_horizontalENS_10sprite_ptrERKNS_4spanIKNS_7fixed_tILi12EEEEE
                0x0800d11c       0x70 bn_hblank_effects_manager.o
                0x0800d11c                bn::sprite_position_hbe_ptr::create_horizontal(bn::sprite_ptr, bn::span<bn::fixed_t<12> const> const&)
 .text._ZN2bn40sprite_regular_second_attributes_hbe_ptr6createENS_10sprite_ptrERKNS_4spanIKNS_32sprite_regular_second_attributesEEE
                0x0800d18c       0x70 bn_hblank_effects_manager.o
                0x0800d18c                bn::sprite_regular_second_attributes_hbe_ptr::create(bn::sprite_ptr, bn::span<bn::sprite_regular_second_attributes const> const&)
 .text._ZN2bn31sprite_third_attributes_hbe_ptr6createENS_10sprite_ptrERKNS_4spanIKNS_23sprite_third_attributesEEE
                0x0800d1fc       0x70 bn_hblank_effects_manager.o
                0x0800d1fc                bn::sprite_third_attributes_hbe_ptr::create(bn::sprite_ptr, bn::span<bn::sprite_third_attributes const> const&)
 .text._ZN2bn22hblank_effects_manager4initEv
                0x0800d26c      0x190 bn_hblank_effects_manager.o
                0x0800d26c                bn::hblank_effects_manager::init()
 .text._ZN2bn22hblank_effects_manager15decrease_usagesEi.part.0
                0x0800d3fc      0x154 bn_hblank_effects_manager.o
 .text._ZN2bn7hbe_ptrD2Ev
                0x0800d550       0x34 bn_hblank_effects_manager.o
                0x0800d550                bn::hbe_ptr::~hbe_ptr()
                0x0800d550                bn::hbe_ptr::~hbe_ptr()
 .text.startup._GLOBAL__sub_I__ZN2bn4hbes10used_countEv
                0x0800d584       0xe8 bn_hblank_effects_manager.o
 .text._ZN2bn12hdma_manager4initEv
                0x0800d66c       0x40 bn_hdma_manager.o
                0x0800d66c                bn::hdma_manager::init()
 .text._ZN2bn12hdma_manager10force_stopEv
                0x0800d6ac       0x3c bn_hdma_manager.o
                0x0800d6ac                bn::hdma_manager::force_stop()
 .text._ZN2bn12hdma_manager7disableEv
                0x0800d6e8       0x30 bn_hdma_manager.o
                0x0800d6e8                bn::hdma_manager::disable()
 .text._ZN2bn12hdma_manager6updateEv
                0x0800d718       0x6c bn_hdma_manager.o
                0x0800d718                bn::hdma_manager::update()
 .text._ZN2bn12hdma_manager6commitEb
                0x0800d784      0x120 bn_hdma_manager.o
                0x0800d784                bn::hdma_manager::commit(bool)
 .text.startup._GLOBAL__sub_I__ZN2bn4hdma7runningEv
                0x0800d8a4       0x34 bn_hdma_manager.o
 .text._ZN2bn6keypad9a_pressedEv
                0x0800d8d8       0x10 bn_keypad_manager.o
                0x0800d8d8                bn::keypad::a_pressed()
 .text._ZN2bn6keypad9b_pressedEv
                0x0800d8e8       0x10 bn_keypad_manager.o
                0x0800d8e8                bn::keypad::b_pressed()
 .text._ZN2bn6keypad14select_pressedEv
                0x0800d8f8       0x10 bn_keypad_manager.o
                0x0800d8f8                bn::keypad::select_pressed()
 .text._ZN2bn6keypad13start_pressedEv
                0x0800d908       0x10 bn_keypad_manager.o
                0x0800d908                bn::keypad::start_pressed()
 .text._ZN2bn6keypad10right_heldEv
                0x0800d918       0x10 bn_keypad_manager.o
                0x0800d918                bn::keypad::right_held()
 .text._ZN2bn6keypad13right_pressedEv
                0x0800d928       0x10 bn_keypad_manager.o
                0x0800d928                bn::keypad::right_pressed()
 .text._ZN2bn6keypad9left_heldEv
                0x0800d938       0x10 bn_keypad_manager.o
                0x0800d938                bn::keypad::left_held()
 .text._ZN2bn6keypad12left_pressedEv
                0x0800d948       0x10 bn_keypad_manager.o
                0x0800d948                bn::keypad::left_pressed()
 .text._ZN2bn6keypad7up_heldEv
                0x0800d958       0x10 bn_keypad_manager.o
                0x0800d958                bn::keypad::up_held()
 .text._ZN2bn6keypad10up_pressedEv
                0x0800d968       0x10 bn_keypad_manager.o
                0x0800d968                bn::keypad::up_pressed()
 .text._ZN2bn6keypad9down_heldEv
                0x0800d978        0xc bn_keypad_manager.o
                0x0800d978                bn::keypad::down_held()
 .text._ZN2bn6keypad12down_pressedEv
                0x0800d984        0xc bn_keypad_manager.o
                0x0800d984                bn::keypad::down_pressed()
 .text._ZN2bn6keypad9r_pressedEv
                0x0800d990       0x10 bn_keypad_manager.o
                0x0800d990                bn::keypad::r_pressed()
 .text._ZN2bn6keypad9l_pressedEv
                0x0800d9a0       0x10 bn_keypad_manager.o
                0x0800d9a0                bn::keypad::l_pressed()
 .text._ZN2bn14keypad_manager4stopEv
                0x0800d9b0        0x4 bn_keypad_manager.o
                0x0800d9b0                bn::keypad_manager::stop()
 .text._ZN2bn14keypad_manager6updateEv
                0x0800d9b4       0xa8 bn_keypad_manager.o
                0x0800d9b4                bn::keypad_manager::update()
 .text._ZN2bn14keypad_manager4initERKNS_11string_viewE
                0x0800da5c       0x64 bn_keypad_manager.o
                0x0800da5c                bn::keypad_manager::init(bn::string_view const&)
 .text._ZN2bn12link_manager4initEv
                0x0800dac0        0xc bn_link_manager.o
                0x0800dac0                bn::link_manager::init()
 .text._ZN2bn12link_manager6activeEv
                0x0800dacc        0xc bn_link_manager.o
                0x0800dacc                bn::link_manager::active()
 .text._ZN2bn12link_manager7disableEv
                0x0800dad8       0x18 bn_link_manager.o
                0x0800dad8                bn::link_manager::disable()
 .text._ZN2bn14memory_manager12_GLOBAL__N_111static_dataD2Ev
                0x0800daf0       0x10 bn_memory_manager.o
 .text._ZN2bn14memory_manager4initEv
                0x0800db00       0x2c bn_memory_manager.o
                0x0800db00                bn::memory_manager::init()
 .text.startup._GLOBAL__sub_I__Znwj
                0x0800db2c       0x20 bn_memory_manager.o
 .text._ZN2bn16palettes_manager12_GLOBAL__N_111static_dataD2Ev
                0x0800db4c        0x4 bn_palettes_manager.o
 .text._ZN2bn2hw8palettes9grayscaleEPKNS_5colorEiiPS2_.part.0
                0x0800db50       0x40 bn_palettes_manager.o
 .text._ZN2bn11bg_palettes21set_transparent_colorENS_5colorE
                0x0800db90       0x40 bn_palettes_manager.o
                0x0800db90                bn::bg_palettes::set_transparent_color(bn::color)
 .text._ZN2bn14bg_palette_ptrC2ERKS0_
                0x0800dbd0       0x2c bn_palettes_manager.o
                0x0800dbd0                bn::bg_palette_ptr::bg_palette_ptr(bn::bg_palette_ptr const&)
                0x0800dbd0                bn::bg_palette_ptr::bg_palette_ptr(bn::bg_palette_ptr const&)
 .text._ZNK2bn14bg_palette_ptr3bppEv
                0x0800dbfc       0x20 bn_palettes_manager.o
                0x0800dbfc                bn::bg_palette_ptr::bpp() const
 .text._ZN2bn18sprite_palette_ptrC2ERKS0_
                0x0800dc1c       0x1c bn_palettes_manager.o
                0x0800dc1c                bn::sprite_palette_ptr::sprite_palette_ptr(bn::sprite_palette_ptr const&)
                0x0800dc1c                bn::sprite_palette_ptr::sprite_palette_ptr(bn::sprite_palette_ptr const&)
 .text._ZNK2bn18sprite_palette_ptr3bppEv
                0x0800dc38       0x1c bn_palettes_manager.o
                0x0800dc38                bn::sprite_palette_ptr::bpp() const
 .text._ZNK2bn13palettes_bank10log_statusEv
                0x0800dc54      0x17c bn_palettes_manager.o
                0x0800dc54                bn::palettes_bank::log_status() const
 .text._ZN2bn13palettes_bank10find_bpp_4ERKNS_4spanIKNS_5colorEEEt
                0x0800ddd0      0x118 bn_palettes_manager.o
                0x0800ddd0                bn::palettes_bank::find_bpp_4(bn::span<bn::color const> const&, unsigned short)
 .text._ZN2bn13palettes_bank6reloadEi
                0x0800dee8       0x1c bn_palettes_manager.o
                0x0800dee8                bn::palettes_bank::reload(int)
 .text._ZNK2bn13palettes_bank20retrieve_commit_dataEv
                0x0800df04       0x4c bn_palettes_manager.o
                0x0800df04                bn::palettes_bank::retrieve_commit_data() const
 .text._ZNK2bn13palettes_bank21_apply_global_effectsEiPNS_5colorE
                0x0800df50      0x13c bn_palettes_manager.o
                0x0800df50                bn::palettes_bank::_apply_global_effects(int, bn::color*) const
 .text._ZNK2bn13palettes_bank25fill_hblank_effect_colorsEPKNS_5colorEPt
                0x0800e08c       0x30 bn_palettes_manager.o
                0x0800e08c                bn::palettes_bank::fill_hblank_effect_colors(bn::color const*, unsigned short*) const
 .text._ZNK2bn13palettes_bank7palette13apply_effectsEiPNS_5colorE
                0x0800e0bc       0xbc bn_palettes_manager.o
                0x0800e0bc                bn::palettes_bank::palette::apply_effects(int, bn::color*) const
 .text._ZNK2bn13palettes_bank25fill_hblank_effect_colorsEiPKNS_5colorEPt
                0x0800e178       0x44 bn_palettes_manager.o
                0x0800e178                bn::palettes_bank::fill_hblank_effect_colors(int, bn::color const*, unsigned short*) const
 .text._ZN2bn13palettes_bank15_update_paletteEi
                0x0800e1bc       0x7c bn_palettes_manager.o
                0x0800e1bc                bn::palettes_bank::_update_palette(int)
 .text._ZN2bn13palettes_bank6updateEv
                0x0800e238      0x134 bn_palettes_manager.o
                0x0800e238                bn::palettes_bank::update()
 .text._ZN2bn13palettes_bankC2Ev
                0x0800e36c       0xd4 bn_palettes_manager.o
                0x0800e36c                bn::palettes_bank::palettes_bank()
                0x0800e36c                bn::palettes_bank::palettes_bank()
 .text._ZN2bn16palettes_manager4initERKNS_8optionalINS_5colorEEE
                0x0800e440      0x184 bn_palettes_manager.o
                0x0800e440                bn::palettes_manager::init(bn::optional<bn::color> const&)
 .text._ZN2bn16palettes_manager20sprite_palettes_bankEv
                0x0800e5c4        0x8 bn_palettes_manager.o
                0x0800e5c4                bn::palettes_manager::sprite_palettes_bank()
 .text._ZN2bn16palettes_manager16bg_palettes_bankEv
                0x0800e5cc        0x8 bn_palettes_manager.o
                0x0800e5cc                bn::palettes_manager::bg_palettes_bank()
 .text._ZN2bn16palettes_manager6updateEv
                0x0800e5d4       0x20 bn_palettes_manager.o
                0x0800e5d4                bn::palettes_manager::update()
 .text._ZN2bn16palettes_manager6commitEb
                0x0800e5f4      0x104 bn_palettes_manager.o
                0x0800e5f4                bn::palettes_manager::commit(bool)
 .text._ZN2bn16palettes_manager4stopEv
                0x0800e6f8       0x20 bn_palettes_manager.o
                0x0800e6f8                bn::palettes_manager::stop()
 .text._ZN3_bn6assert9show_argsIA35_cEEvPKcS4_S4_iRKT_
                0x0800e718       0x48 bn_palettes_manager.o
                0x0800e718                void _bn::assert::show_args<char [35]>(char const*, char const*, char const*, int, char const (&) [35])
 .text._ZN2bn13palettes_bank11colors_hashERKNS_4spanIKNS_5colorEEE
                0x0800e760       0x48 bn_palettes_manager.o
                0x0800e760                bn::palettes_bank::colors_hash(bn::span<bn::color const> const&)
 .text._ZN3_bn6assert9show_argsIJA43_ciA38_cA42_cEEEvPKcS6_S6_iDpRKT_
                0x0800e7a8       0x64 bn_palettes_manager.o
                0x0800e7a8                void _bn::assert::show_args<char [43], int, char [38], char [42]>(char const*, char const*, char const*, int, char const (&) [43], int const&, char const (&) [38], char const (&) [42])
 .text._ZN2bn13palettes_bank12create_bpp_8ERKNS_4spanIKNS_5colorEEENS_16compression_typeEb
                0x0800e80c      0x230 bn_palettes_manager.o
                0x0800e80c                bn::palettes_bank::create_bpp_8(bn::span<bn::color const> const&, bn::compression_type, bool)
 .text._ZNK2bn19sprite_palette_item10decompressENS_4spanINS_5colorEEE
                0x0800ea3c      0x16c bn_palettes_manager.o
                0x0800ea3c                bn::sprite_palette_item::decompress(bn::span<bn::color>) const
 .text._ZNK2bn15bg_palette_item10decompressENS_4spanINS_5colorEEE
                0x0800eba8      0x16c bn_palettes_manager.o
                0x0800eba8                bn::bg_palette_item::decompress(bn::span<bn::color>) const
 .text._ZN2bn14iunordered_mapItsNS_15identity_hasherENS_8equal_toItEEE21insert_or_assign_hashEjOSt4pairIKtsE.isra.0
                0x0800ed14      0x110 bn_palettes_manager.o
 .text._ZN2bn13palettes_bank12create_bpp_4ERKNS_4spanIKNS_5colorEEEtb
                0x0800ee24      0x168 bn_palettes_manager.o
                0x0800ee24                bn::palettes_bank::create_bpp_4(bn::span<bn::color const> const&, unsigned short, bool)
 .text._ZN2bn12_GLOBAL__N_112_create_implERKNS_15bg_palette_itemEb
                0x0800ef8c       0x94 bn_palettes_manager.o
 .text._ZN2bn14bg_palette_ptr6createERKNS_15bg_palette_itemE
                0x0800f020       0x54 bn_palettes_manager.o
                0x0800f020                bn::bg_palette_ptr::create(bn::bg_palette_item const&)
 .text._ZN2bn12_GLOBAL__N_112_create_implERKNS_19sprite_palette_itemEb
                0x0800f074       0x7c bn_palettes_manager.o
 .text._ZN2bn18sprite_palette_ptr6createERKNS_19sprite_palette_itemE
                0x0800f0f0       0x48 bn_palettes_manager.o
                0x0800f0f0                bn::sprite_palette_ptr::create(bn::sprite_palette_item const&)
 .text._ZNK2bn19sprite_palette_item14create_paletteEv
                0x0800f138       0x48 bn_palettes_manager.o
                0x0800f138                bn::sprite_palette_item::create_palette() const
 .text._ZN2bn13palettes_bank30_erase_bpp_4_indexes_map_indexEt
                0x0800f180      0x1e0 bn_palettes_manager.o
                0x0800f180                bn::palettes_bank::_erase_bpp_4_indexes_map_index(unsigned short)
 .text._ZN2bn13palettes_bank15decrease_usagesEi
                0x0800f360       0x80 bn_palettes_manager.o
                0x0800f360                bn::palettes_bank::decrease_usages(int)
 .text._ZN2bn14bg_palette_ptraSERKS0_
                0x0800f3e0       0x4c bn_palettes_manager.o
                0x0800f3e0                bn::bg_palette_ptr::operator=(bn::bg_palette_ptr const&)
 .text._ZN2bn14bg_palette_ptrD2Ev
                0x0800f42c       0x20 bn_palettes_manager.o
                0x0800f42c                bn::bg_palette_ptr::~bg_palette_ptr()
                0x0800f42c                bn::bg_palette_ptr::~bg_palette_ptr()
 .text._ZN2bn18sprite_palette_ptraSERKS0_
                0x0800f44c       0x40 bn_palettes_manager.o
                0x0800f44c                bn::sprite_palette_ptr::operator=(bn::sprite_palette_ptr const&)
 .text._ZN2bn18sprite_palette_ptrD2Ev
                0x0800f48c       0x20 bn_palettes_manager.o
                0x0800f48c                bn::sprite_palette_ptr::~sprite_palette_ptr()
                0x0800f48c                bn::sprite_palette_ptr::~sprite_palette_ptr()
 .text.startup._GLOBAL__sub_I__ZN2bn11bg_palettes17used_colors_countEv
                0x0800f4ac       0x34 bn_palettes_manager.o
 .text._ZN2bn26sprite_affine_mats_manager12_GLOBAL__N_119_sprite_double_sizeILi32ELi16EEEbiiiii
                0x0800f4e0       0x84 bn_sprite_affine_mats_manager.o
 .text._ZN2bn26sprite_affine_mats_manager12_GLOBAL__N_119_sprite_double_sizeILi16ELi32EEEbiiiii
                0x0800f564       0x84 bn_sprite_affine_mats_manager.o
 .text._ZN2bn26sprite_affine_mats_manager12_GLOBAL__N_111static_dataD2Ev
                0x0800f5e8       0x3c bn_sprite_affine_mats_manager.o
 .text._ZNK2bn26sprite_affine_mats_manager12_GLOBAL__N_19item_type18sprite_double_sizeEiRKNS_17sprite_shape_sizeE.isra.0
                0x0800f624      0x1ac bn_sprite_affine_mats_manager.o
 .text._ZN2bn26sprite_affine_mats_manager12_GLOBAL__N_124_update_flipped_identityEi
                0x0800f7d0       0xbc bn_sprite_affine_mats_manager.o
 .text._ZN2bn21sprite_affine_mat_ptrC2ERKS0_
                0x0800f88c       0x20 bn_sprite_affine_mats_manager.o
                0x0800f88c                bn::sprite_affine_mat_ptr::sprite_affine_mat_ptr(bn::sprite_affine_mat_ptr const&)
                0x0800f88c                bn::sprite_affine_mat_ptr::sprite_affine_mat_ptr(bn::sprite_affine_mat_ptr const&)
 .text._ZNK2bn21sprite_affine_mat_ptr14rotation_angleEv
                0x0800f8ac       0x14 bn_sprite_affine_mats_manager.o
                0x0800f8ac                bn::sprite_affine_mat_ptr::rotation_angle() const
 .text._ZNK2bn21sprite_affine_mat_ptr16horizontal_scaleEv
                0x0800f8c0       0x18 bn_sprite_affine_mats_manager.o
                0x0800f8c0                bn::sprite_affine_mat_ptr::horizontal_scale() const
 .text._ZNK2bn21sprite_affine_mat_ptr14vertical_scaleEv
                0x0800f8d8       0x18 bn_sprite_affine_mats_manager.o
                0x0800f8d8                bn::sprite_affine_mat_ptr::vertical_scale() const
 .text._ZNK2bn21sprite_affine_mat_ptr16horizontal_shearEv
                0x0800f8f0       0x18 bn_sprite_affine_mats_manager.o
                0x0800f8f0                bn::sprite_affine_mat_ptr::horizontal_shear() const
 .text._ZN2bn21sprite_affine_mat_ptr20set_horizontal_shearENS_7fixed_tILi12EEE
                0x0800f908       0x8c bn_sprite_affine_mats_manager.o
                0x0800f908                bn::sprite_affine_mat_ptr::set_horizontal_shear(bn::fixed_t<12>)
 .text._ZNK2bn21sprite_affine_mat_ptr14vertical_shearEv
                0x0800f994       0x18 bn_sprite_affine_mats_manager.o
                0x0800f994                bn::sprite_affine_mat_ptr::vertical_shear() const
 .text._ZN2bn21sprite_affine_mat_ptr18set_vertical_shearENS_7fixed_tILi12EEE
                0x0800f9ac       0x88 bn_sprite_affine_mats_manager.o
                0x0800f9ac                bn::sprite_affine_mat_ptr::set_vertical_shear(bn::fixed_t<12>)
 .text._ZNK2bn21sprite_affine_mat_ptr15horizontal_flipEv
                0x0800fa34       0x18 bn_sprite_affine_mats_manager.o
                0x0800fa34                bn::sprite_affine_mat_ptr::horizontal_flip() const
 .text._ZN2bn21sprite_affine_mat_ptr19set_horizontal_flipEb
                0x0800fa4c       0x78 bn_sprite_affine_mats_manager.o
                0x0800fa4c                bn::sprite_affine_mat_ptr::set_horizontal_flip(bool)
 .text._ZNK2bn21sprite_affine_mat_ptr13vertical_flipEv
                0x0800fac4       0x18 bn_sprite_affine_mats_manager.o
                0x0800fac4                bn::sprite_affine_mat_ptr::vertical_flip() const
 .text._ZN2bn21sprite_affine_mat_ptr17set_vertical_flipEb
                0x0800fadc       0x74 bn_sprite_affine_mats_manager.o
                0x0800fadc                bn::sprite_affine_mat_ptr::set_vertical_flip(bool)
 .text._ZNK2bn21sprite_affine_mat_ptr16flipped_identityEv
                0x0800fb50       0x14 bn_sprite_affine_mats_manager.o
                0x0800fb50                bn::sprite_affine_mat_ptr::flipped_identity() const
 .text._ZN2bn26sprite_affine_mats_manager13attach_spriteEiRNS_24intrusive_list_node_typeE
                0x0800fb64       0x2c bn_sprite_affine_mats_manager.o
                0x0800fb64                bn::sprite_affine_mats_manager::attach_sprite(int, bn::intrusive_list_node_type&)
 .text._ZN2bn26sprite_affine_mats_manager9set_shearEiNS_7fixed_tILi12EEE
                0x0800fb90       0xd0 bn_sprite_affine_mats_manager.o
                0x0800fb90                bn::sprite_affine_mats_manager::set_shear(int, bn::fixed_t<12>)
 .text._ZN2bn21sprite_affine_mat_ptr9set_shearENS_7fixed_tILi12EEE
                0x0800fc60       0x14 bn_sprite_affine_mats_manager.o
                0x0800fc60                bn::sprite_affine_mat_ptr::set_shear(bn::fixed_t<12>)
 .text._ZN2bn26sprite_affine_mats_manager18sprite_double_sizeEiRKNS_17sprite_shape_sizeE
                0x0800fc74       0x4c bn_sprite_affine_mats_manager.o
                0x0800fc74                bn::sprite_affine_mats_manager::sprite_double_size(int, bn::sprite_shape_size const&)
 .text._ZN2bn26sprite_affine_mats_manager6reloadEi
                0x0800fcc0       0x28 bn_sprite_affine_mats_manager.o
                0x0800fcc0                bn::sprite_affine_mats_manager::reload(int)
 .text._ZN2bn26sprite_affine_mats_manager20retrieve_commit_dataEv
                0x0800fce8       0x38 bn_sprite_affine_mats_manager.o
                0x0800fce8                bn::sprite_affine_mats_manager::retrieve_commit_data()
 .text._ZN3_bn6assert9show_argsIA37_cEEvPKcS4_S4_iRKT_
                0x0800fd20       0x48 bn_sprite_affine_mats_manager.o
                0x0800fd20                void _bn::assert::show_args<char [37]>(char const*, char const*, char const*, int, char const (&) [37])
 .text._ZN2bn26sprite_affine_mats_manager18set_rotation_angleEiNS_7fixed_tILi12EEE
                0x0800fd68      0x144 bn_sprite_affine_mats_manager.o
                0x0800fd68                bn::sprite_affine_mats_manager::set_rotation_angle(int, bn::fixed_t<12>)
 .text._ZN2bn21sprite_affine_mat_ptr18set_rotation_angleENS_7fixed_tILi12EEE
                0x0800feac       0x14 bn_sprite_affine_mats_manager.o
                0x0800feac                bn::sprite_affine_mat_ptr::set_rotation_angle(bn::fixed_t<12>)
 .text._ZN2bn26sprite_affine_mats_manager20set_horizontal_scaleEiNS_7fixed_tILi12EEE
                0x0800fec0      0x104 bn_sprite_affine_mats_manager.o
                0x0800fec0                bn::sprite_affine_mats_manager::set_horizontal_scale(int, bn::fixed_t<12>)
 .text._ZN2bn21sprite_affine_mat_ptr20set_horizontal_scaleENS_7fixed_tILi12EEE
                0x0800ffc4       0x14 bn_sprite_affine_mats_manager.o
                0x0800ffc4                bn::sprite_affine_mat_ptr::set_horizontal_scale(bn::fixed_t<12>)
 .text._ZN2bn26sprite_affine_mats_manager18set_vertical_scaleEiNS_7fixed_tILi12EEE
                0x0800ffd8      0x100 bn_sprite_affine_mats_manager.o
                0x0800ffd8                bn::sprite_affine_mats_manager::set_vertical_scale(int, bn::fixed_t<12>)
 .text._ZN2bn21sprite_affine_mat_ptr18set_vertical_scaleENS_7fixed_tILi12EEE
                0x080100d8       0x14 bn_sprite_affine_mats_manager.o
                0x080100d8                bn::sprite_affine_mat_ptr::set_vertical_scale(bn::fixed_t<12>)
 .text._ZN2bn26sprite_affine_mats_manager9set_scaleEiNS_7fixed_tILi12EEE
                0x080100ec      0x14c bn_sprite_affine_mats_manager.o
                0x080100ec                bn::sprite_affine_mats_manager::set_scale(int, bn::fixed_t<12>)
 .text._ZN2bn21sprite_affine_mat_ptr9set_scaleENS_7fixed_tILi12EEE
                0x08010238       0x14 bn_sprite_affine_mats_manager.o
                0x08010238                bn::sprite_affine_mat_ptr::set_scale(bn::fixed_t<12>)
 .text._ZN3_bn6assert9show_argsIA16_cEEvPKcS4_S4_iRKT_
                0x0801024c       0x48 bn_sprite_affine_mats_manager.o
                0x0801024c                void _bn::assert::show_args<char [16]>(char const*, char const*, char const*, int, char const (&) [16])
 .text._ZN2bn26sprite_affine_mats_manager12_GLOBAL__N_115_new_item_indexEv
                0x08010294       0xd8 bn_sprite_affine_mats_manager.o
 .text._ZN2bn26sprite_affine_mats_manager15create_optionalERKNS_21affine_mat_attributesE
                0x0801036c       0xe4 bn_sprite_affine_mats_manager.o
                0x0801036c                bn::sprite_affine_mats_manager::create_optional(bn::affine_mat_attributes const&)
 .text._ZN2bn21sprite_affine_mat_ptr6createERKNS_21affine_mat_attributesE
                0x08010450       0x40 bn_sprite_affine_mats_manager.o
                0x08010450                bn::sprite_affine_mat_ptr::create(bn::affine_mat_attributes const&)
 .text._ZN2bn21sprite_affine_mat_ptr6createEv
                0x08010490       0xb0 bn_sprite_affine_mats_manager.o
                0x08010490                bn::sprite_affine_mat_ptr::create()
 .text._ZN2bn26sprite_affine_mats_manager15decrease_usagesEi.part.0
                0x08010540       0x70 bn_sprite_affine_mats_manager.o
 .text._ZN2bn21sprite_affine_mat_ptrD2Ev
                0x080105b0       0x34 bn_sprite_affine_mats_manager.o
                0x080105b0                bn::sprite_affine_mat_ptr::~sprite_affine_mat_ptr()
                0x080105b0                bn::sprite_affine_mat_ptr::~sprite_affine_mat_ptr()
 .text._ZN2bn26sprite_affine_mats_manager6updateEv
                0x080105e4      0x2cc bn_sprite_affine_mats_manager.o
                0x080105e4                bn::sprite_affine_mats_manager::update()
 .text._ZN2bn21sprite_affine_mat_ptraSERKS0_
                0x080108b0       0x50 bn_sprite_affine_mats_manager.o
                0x080108b0                bn::sprite_affine_mat_ptr::operator=(bn::sprite_affine_mat_ptr const&)
 .text._ZN2bn26sprite_affine_mats_manager4initEPv
                0x08010900      0x108 bn_sprite_affine_mats_manager.o
                0x08010900                bn::sprite_affine_mats_manager::init(void*)
 .text._ZN2bn26sprite_affine_mats_manager14dettach_spriteEiRNS_24intrusive_list_node_typeE
                0x08010a08       0x4c bn_sprite_affine_mats_manager.o
                0x08010a08                bn::sprite_affine_mats_manager::dettach_sprite(int, bn::intrusive_list_node_type&)
 .text.startup._GLOBAL__sub_I__ZN2bn18sprite_affine_mats10used_countEv
                0x08010a54       0xb4 bn_sprite_affine_mats_manager.o
 .text._ZN2bn22isprite_animate_action9_set_refsERNS_10sprite_ptrERNS_17sprite_tiles_itemERNS_7ivectorItEE
                0x08010b08        0x4 bn_sprite_animate_actions.o
                0x08010b08                bn::isprite_animate_action::_set_refs(bn::sprite_ptr&, bn::sprite_tiles_item&, bn::ivector<unsigned short>&)
 .text._ZN2bn22isprite_animate_action7_assignERKS0_
                0x08010b0c       0x10 bn_sprite_animate_actions.o
                0x08010b0c                bn::isprite_animate_action::_assign(bn::isprite_animate_action const&)
 .text._ZN2bn22isprite_animate_action16set_wait_updatesEi
                0x08010b1c       0x68 bn_sprite_animate_actions.o
                0x08010b1c                bn::isprite_animate_action::set_wait_updates(int)
 .text._ZN3_bn6assert9show_argsIA33_ciEEvPKcS4_S4_iRKT_RKT0_
                0x08010b84       0x54 bn_sprite_animate_actions.o
                0x08010b84                void _bn::assert::show_args<char [33], int>(char const*, char const*, char const*, int, char const (&) [33], int const&)
 .text._ZN2bn22isprite_animate_action24_assign_graphics_indexesERKNS_4spanIKtEE
                0x08010bd8       0x84 bn_sprite_animate_actions.o
                0x08010bd8                bn::isprite_animate_action::_assign_graphics_indexes(bn::span<unsigned short const> const&)
 .text._ZN2bn22isprite_animate_action6updateEv
                0x08010c5c       0xb8 bn_sprite_animate_actions.o
                0x08010c5c                bn::isprite_animate_action::update()
 .text._ZN2bn15sprites_manager12_GLOBAL__N_132_always_update_indexes_to_commitERKNS_20sprites_manager_itemE
                0x08010d14       0x48 bn_sprites_manager.o
 .text._ZN2bn15sprites_manager12_GLOBAL__N_111static_dataD2Ev
                0x08010d5c       0x44 bn_sprites_manager.o
 .text._ZN2bn13ostringstream11append_argsIiJA4_ciEEEvRKT_DpRKT0_.isra.0
                0x08010da0       0x24 bn_sprites_manager.o
 .text._ZN2bn15sprites_manager12_GLOBAL__N_123_update_item_dimensionsERNS_20sprites_manager_itemE
                0x08010dc4       0xc8 bn_sprites_manager.o
 .text._ZN2bn15sprites_manager12_GLOBAL__N_123_update_item_shape_sizeERKNS_17sprite_shape_sizeERNS_20sprites_manager_itemE
                0x08010e8c       0x7c bn_sprites_manager.o
 .text._ZN2bn7sprites7visibleEv
                0x08010f08        0xc bn_sprites_manager.o
                0x08010f08                bn::sprites::visible()
 .text._ZN2bn7sprites11set_visibleEb
                0x08010f14        0xc bn_sprites_manager.o
                0x08010f14                bn::sprites::set_visible(bool)
 .text._ZN2bn10sprite_ptrC2ERKS0_
                0x08010f20        0xc bn_sprites_manager.o
                0x08010f20                bn::sprite_ptr::sprite_ptr(bn::sprite_ptr const&)
                0x08010f20                bn::sprite_ptr::sprite_ptr(bn::sprite_ptr const&)
 .text._ZNK2bn10sprite_ptr1xEv
                0x08010f2c        0x8 bn_sprites_manager.o
                0x08010f2c                bn::sprite_ptr::x() const
 .text._ZN2bn10sprite_ptr5set_xENS_7fixed_tILi12EEE
                0x08010f34       0x48 bn_sprites_manager.o
                0x08010f34                bn::sprite_ptr::set_x(bn::fixed_t<12>)
 .text._ZNK2bn10sprite_ptr1yEv
                0x08010f7c        0x8 bn_sprites_manager.o
                0x08010f7c                bn::sprite_ptr::y() const
 .text._ZN2bn10sprite_ptr5set_yENS_7fixed_tILi12EEE
                0x08010f84       0x48 bn_sprites_manager.o
                0x08010f84                bn::sprite_ptr::set_y(bn::fixed_t<12>)
 .text._ZNK2bn10sprite_ptr8positionEv
                0x08010fcc        0x8 bn_sprites_manager.o
                0x08010fcc                bn::sprite_ptr::position() const
 .text._ZN2bn10sprite_ptr12set_positionERKNS_13fixed_point_tILi12EEE
                0x08010fd4       0x7c bn_sprites_manager.o
                0x08010fd4                bn::sprite_ptr::set_position(bn::fixed_point_t<12> const&)
 .text._ZNK2bn10sprite_ptr14rotation_angleEv
                0x08011050       0x1c bn_sprites_manager.o
                0x08011050                bn::sprite_ptr::rotation_angle() const
 .text._ZNK2bn10sprite_ptr16horizontal_scaleEv
                0x0801106c       0x1c bn_sprites_manager.o
                0x0801106c                bn::sprite_ptr::horizontal_scale() const
 .text._ZNK2bn10sprite_ptr14vertical_scaleEv
                0x08011088       0x1c bn_sprites_manager.o
                0x08011088                bn::sprite_ptr::vertical_scale() const
 .text._ZNK2bn10sprite_ptr16horizontal_shearEv
                0x080110a4       0x1c bn_sprites_manager.o
                0x080110a4                bn::sprite_ptr::horizontal_shear() const
 .text._ZNK2bn10sprite_ptr14vertical_shearEv
                0x080110c0       0x1c bn_sprites_manager.o
                0x080110c0                bn::sprite_ptr::vertical_shear() const
 .text._ZNK2bn10sprite_ptr11bg_priorityEv
                0x080110dc        0x8 bn_sprites_manager.o
                0x080110dc                bn::sprite_ptr::bg_priority() const
 .text._ZNK2bn10sprite_ptr7z_orderEv
                0x080110e4       0x10 bn_sprites_manager.o
                0x080110e4                bn::sprite_ptr::z_order() const
 .text._ZNK2bn10sprite_ptr15horizontal_flipEv
                0x080110f4       0x20 bn_sprites_manager.o
                0x080110f4                bn::sprite_ptr::horizontal_flip() const
 .text._ZN2bn10sprite_ptr19set_horizontal_flipEb
                0x08011114       0x54 bn_sprites_manager.o
                0x08011114                bn::sprite_ptr::set_horizontal_flip(bool)
 .text._ZN2bn10sprite_ptr17set_vertical_flipEb
                0x08011168       0x54 bn_sprites_manager.o
                0x08011168                bn::sprite_ptr::set_vertical_flip(bool)
 .text._ZN2bn10sprite_ptr18set_mosaic_enabledEb
                0x080111bc       0x40 bn_sprites_manager.o
                0x080111bc                bn::sprite_ptr::set_mosaic_enabled(bool)
 .text._ZNK2bn10sprite_ptr16double_size_modeEv
                0x080111fc        0xc bn_sprites_manager.o
                0x080111fc                bn::sprite_ptr::double_size_mode() const
 .text._ZNK2bn10sprite_ptr7visibleEv
                0x08011208        0xc bn_sprites_manager.o
                0x08011208                bn::sprite_ptr::visible() const
 .text._ZN2bn10sprite_ptr11set_visibleEb
                0x08011214       0x64 bn_sprites_manager.o
                0x08011214                bn::sprite_ptr::set_visible(bool)
 .text._ZN2bn14sprite_builderC2ERKNS_11sprite_itemE
                0x08011278       0x6c bn_sprites_manager.o
                0x08011278                bn::sprite_builder::sprite_builder(bn::sprite_item const&)
                0x08011278                bn::sprite_builder::sprite_builder(bn::sprite_item const&)
 .text._ZN2bn14sprite_builder19set_horizontal_flipEb
                0x080112e4       0x1c bn_sprites_manager.o
                0x080112e4                bn::sprite_builder::set_horizontal_flip(bool)
 .text._ZN2bn15sprites_manager4initEv
                0x08011300       0xd0 bn_sprites_manager.o
                0x08011300                bn::sprites_manager::init()
 .text._ZN2bn15sprites_manager5hw_idEPv
                0x080113d0        0x8 bn_sprites_manager.o
                0x080113d0                bn::sprites_manager::hw_id(void*)
 .text._ZN2bn15sprites_manager5shapeEPv
                0x080113d8        0x8 bn_sprites_manager.o
                0x080113d8                bn::sprites_manager::shape(void*)
 .text._ZN2bn15sprites_manager4sizeEPv
                0x080113e0        0x8 bn_sprites_manager.o
                0x080113e0                bn::sprites_manager::size(void*)
 .text._ZN2bn15sprites_manager10shape_sizeEPv
                0x080113e8       0x14 bn_sprites_manager.o
                0x080113e8                bn::sprites_manager::shape_size(void*)
 .text._ZN2bn15sprites_manager11hw_positionEPv
                0x080113fc        0x4 bn_sprites_manager.o
                0x080113fc                bn::sprites_manager::hw_position(void*)
 .text._ZN2bn15sprites_manager19set_horizontal_flipEPvb
                0x08011400       0x50 bn_sprites_manager.o
                0x08011400                bn::sprites_manager::set_horizontal_flip(void*, bool)
 .text._ZN2bn15sprites_manager17set_vertical_flipEPvb
                0x08011450       0x50 bn_sprites_manager.o
                0x08011450                bn::sprites_manager::set_vertical_flip(void*, bool)
 .text._ZN2bn15sprites_manager9view_modeEPv
                0x080114a0        0xc bn_sprites_manager.o
                0x080114a0                bn::sprites_manager::view_mode(void*)
 .text._ZN2bn15sprites_manager10affine_matEPv
                0x080114ac        0x4 bn_sprites_manager.o
                0x080114ac                bn::sprites_manager::affine_mat(void*)
 .text._ZN2bn15sprites_manager22reserved_handles_countEv
                0x080114b0       0x10 bn_sprites_manager.o
                0x080114b0                bn::sprites_manager::reserved_handles_count()
 .text._ZN2bn15sprites_manager6reloadEPv
                0x080114c0       0x58 bn_sprites_manager.o
                0x080114c0                bn::sprites_manager::reload(void*)
 .text._ZN2bn15sprites_manager15reload_blendingEv
                0x08011518       0xd4 bn_sprites_manager.o
                0x08011518                bn::sprites_manager::reload_blending()
 .text._ZN2bn15sprites_manager39fill_hblank_effect_horizontal_positionsEPviPKNS_7fixed_tILi12EEEPt
                0x080115ec       0x44 bn_sprites_manager.o
                0x080115ec                bn::sprites_manager::fill_hblank_effect_horizontal_positions(void*, int, bn::fixed_t<12> const*, unsigned short*)
 .text._ZN2bn15sprites_manager37fill_hblank_effect_vertical_positionsEPviPKNS_7fixed_tILi12EEEPt
                0x08011630       0x44 bn_sprites_manager.o
                0x08011630                bn::sprites_manager::fill_hblank_effect_vertical_positions(void*, int, bn::fixed_t<12> const*, unsigned short*)
 .text._ZN2bn15sprites_manager35fill_hblank_effect_first_attributesEiNS_12sprite_shapeENS_8bpp_modeEiPKNS_23sprite_first_attributesEPt
                0x08011674       0xdc bn_sprites_manager.o
                0x08011674                bn::sprites_manager::fill_hblank_effect_first_attributes(int, bn::sprite_shape, bn::bpp_mode, int, bn::sprite_first_attributes const*, unsigned short*)
 .text._ZN2bn15sprites_manager44fill_hblank_effect_regular_second_attributesEPviNS_11sprite_sizeEPKNS_32sprite_regular_second_attributesEPt
                0x08011750       0x60 bn_sprites_manager.o
                0x08011750                bn::sprites_manager::fill_hblank_effect_regular_second_attributes(void*, int, bn::sprite_size, bn::sprite_regular_second_attributes const*, unsigned short*)
 .text._ZN2bn15sprites_manager43fill_hblank_effect_affine_second_attributesEPviNS_11sprite_sizeEPKNS_31sprite_affine_second_attributesEPt
                0x080117b0       0x58 bn_sprites_manager.o
                0x080117b0                bn::sprites_manager::fill_hblank_effect_affine_second_attributes(void*, int, bn::sprite_size, bn::sprite_affine_second_attributes const*, unsigned short*)
 .text._ZN2bn15sprites_manager14update_camerasEv
                0x08011808       0x20 bn_sprites_manager.o
                0x08011808                bn::sprites_manager::update_cameras()
 .text._ZN2bn15sprites_manager23update_auto_double_sizeEPv
                0x08011828       0x2c bn_sprites_manager.o
                0x08011828                bn::sprites_manager::update_auto_double_size(void*)
 .text._ZN2bn15sprites_manager6commitEb
                0x08011854       0xa4 bn_sprites_manager.o
                0x08011854                bn::sprites_manager::commit(bool)
 .text._ZN3_bn6assert9show_argsIA54_cEEvPKcS4_S4_iRKT_
                0x080118f8       0x48 bn_sprites_manager.o
                0x080118f8                void _bn::assert::show_args<char [54]>(char const*, char const*, char const*, int, char const (&) [54])
 .text._ZN2bn14sprite_builder20set_blending_enabledEb
                0x08011940       0x3c bn_sprites_manager.o
                0x08011940                bn::sprite_builder::set_blending_enabled(bool)
 .text._ZN2bn15sprites_manager20set_blending_enabledEPvb
                0x0801197c       0x9c bn_sprites_manager.o
                0x0801197c                bn::sprites_manager::set_blending_enabled(void*, bool)
 .text._ZN2bn15sprites_manager18set_window_enabledEPvb
                0x08011a18       0x6c bn_sprites_manager.o
                0x08011a18                bn::sprites_manager::set_window_enabled(void*, bool)
 .text._ZN2bn15sprites_manager20set_first_attributesEPvRKNS_23sprite_first_attributesE
                0x08011a84       0xe8 bn_sprites_manager.o
                0x08011a84                bn::sprites_manager::set_first_attributes(void*, bn::sprite_first_attributes const&)
 .text._ZN2bn10sprite_ptr20set_first_attributesERKNS_23sprite_first_attributesE
                0x08011b6c       0x10 bn_sprites_manager.o
                0x08011b6c                bn::sprite_ptr::set_first_attributes(bn::sprite_first_attributes const&)
 .text._ZNK2bn10sprite_ptr16first_attributesEv
                0x08011b7c       0x60 bn_sprites_manager.o
                0x08011b7c                bn::sprite_ptr::first_attributes() const
 .text._ZNK2bn17sprite_shape_size6heightEv.isra.0
                0x08011bdc       0xd0 bn_sprites_manager.o
 .text._ZNK2bn17sprite_shape_size5widthEv.isra.0
                0x08011cac       0xcc bn_sprites_manager.o
 .text._ZN2bn15sprites_manager12_GLOBAL__N_118_remove_affine_matERNS_20sprites_manager_itemE
                0x08011d78       0xe4 bn_sprites_manager.o
 .text._ZN2bn15sprites_manager42remove_identity_affine_mat_when_not_neededEPv
                0x08011e5c        0xc bn_sprites_manager.o
                0x08011e5c                bn::sprites_manager::remove_identity_affine_mat_when_not_needed(void*)
 .text._ZN2bn14sprite_builder15release_paletteEv
                0x08011e68       0x6c bn_sprites_manager.o
                0x08011e68                bn::sprite_builder::release_palette()
 .text._ZN2bn14sprite_builder13release_tilesEv
                0x08011ed4       0x6c bn_sprites_manager.o
                0x08011ed4                bn::sprite_builder::release_tiles()
 .text._ZN2bn15sprites_manager7paletteEPv
                0x08011f40       0x34 bn_sprites_manager.o
                0x08011f40                bn::sprites_manager::palette(void*)
 .text._ZN3_bn6assert9show_argsIA27_chEEvPKcS4_S4_iRKT_RKT0_
                0x08011f74       0x54 bn_sprites_manager.o
                0x08011f74                void _bn::assert::show_args<char [27], unsigned char>(char const*, char const*, char const*, int, char const (&) [27], unsigned char const&)
 .text._ZN2bn20sprites_manager_item13_builder_initERKNS_14sprite_builderE
                0x08011fc8      0x350 bn_sprites_manager.o
                0x08011fc8                bn::sprites_manager_item::_builder_init(bn::sprite_builder const&)
 .text._ZNK2bn20sprites_manager_item15new_double_sizeEi.part.0
                0x08012318       0x30 bn_sprites_manager.o
 .text._ZN2bn15sprites_manager12_GLOBAL__N_118_assign_affine_matEbRNS_20sprites_manager_itemEONS_21sprite_affine_mat_ptrE
                0x08012348      0x11c bn_sprites_manager.o
 .text._ZN2bn15sprites_manager18set_new_affine_matEPvRNS_21affine_mat_attributesE
                0x08012464       0x7c bn_sprites_manager.o
                0x08012464                bn::sprites_manager::set_new_affine_mat(void*, bn::affine_mat_attributes&)
 .text._ZN2bn10sprite_ptr20set_horizontal_shearENS_7fixed_tILi12EEE
                0x080124e0       0x4c bn_sprites_manager.o
                0x080124e0                bn::sprite_ptr::set_horizontal_shear(bn::fixed_t<12>)
 .text._ZN2bn10sprite_ptr18set_vertical_shearENS_7fixed_tILi12EEE
                0x0801252c       0x4c bn_sprites_manager.o
                0x0801252c                bn::sprite_ptr::set_vertical_shear(bn::fixed_t<12>)
 .text._ZN2bn10sprite_ptr9set_shearENS_7fixed_tILi12EEE
                0x08012578       0x50 bn_sprites_manager.o
                0x08012578                bn::sprite_ptr::set_shear(bn::fixed_t<12>)
 .text._ZN2bn10sprite_ptr20set_double_size_modeENS_23sprite_double_size_modeE
                0x080125c8       0x94 bn_sprites_manager.o
                0x080125c8                bn::sprite_ptr::set_double_size_mode(bn::sprite_double_size_mode)
 .text._ZN2bn14sprite_builder11set_z_orderEi
                0x0801265c       0x48 bn_sprites_manager.o
                0x0801265c                bn::sprite_builder::set_z_order(int)
 .text._ZN2bn14sprite_builderC2ERKNS_17sprite_shape_sizeENS_16sprite_tiles_ptrENS_18sprite_palette_ptrE
                0x080126a4      0x298 bn_sprites_manager.o
                0x080126a4                bn::sprite_builder::sprite_builder(bn::sprite_shape_size const&, bn::sprite_tiles_ptr, bn::sprite_palette_ptr)
                0x080126a4                bn::sprite_builder::sprite_builder(bn::sprite_shape_size const&, bn::sprite_tiles_ptr, bn::sprite_palette_ptr)
 .text._ZN2bn15sprites_manager9set_tilesEPvONS_16sprite_tiles_ptrE
                0x0801293c      0x24c bn_sprites_manager.o
                0x0801293c                bn::sprites_manager::set_tiles(void*, bn::sprite_tiles_ptr&&)
 .text._ZN2bn10sprite_ptr9set_tilesEONS_16sprite_tiles_ptrE
                0x08012b88       0x10 bn_sprites_manager.o
                0x08012b88                bn::sprite_ptr::set_tiles(bn::sprite_tiles_ptr&&)
 .text._ZN2bn10sprite_ptr9set_tilesERKNS_17sprite_tiles_itemEi
                0x08012b98       0x88 bn_sprites_manager.o
                0x08012b98                bn::sprite_ptr::set_tiles(bn::sprite_tiles_item const&, int)
 .text._ZN2bn14sprite_builder15set_bg_priorityEi
                0x08012c20       0x38 bn_sprites_manager.o
                0x08012c20                bn::sprite_builder::set_bg_priority(int)
 .text._ZN2bn15sprites_manager16third_attributesEPv
                0x08012c58       0xa4 bn_sprites_manager.o
                0x08012c58                bn::sprites_manager::third_attributes(void*)
 .text._ZNK2bn10sprite_ptr16third_attributesEv
                0x08012cfc       0x14 bn_sprites_manager.o
                0x08012cfc                bn::sprite_ptr::third_attributes() const
 .text._ZN2bn15sprites_manager6updateEv
                0x08012d10      0x14c bn_sprites_manager.o
                0x08012d10                bn::sprites_manager::update()
 .text._ZN3_bn6assert9show_argsIJA39_ciA4_ciEEEvPKcS5_S5_iDpRKT_
                0x08012e5c       0x58 bn_sprites_manager.o
                0x08012e5c                void _bn::assert::show_args<char [39], int, char [4], int>(char const*, char const*, char const*, int, char const (&) [39], int const&, char const (&) [4], int const&)
 .text._ZN2bn15sprites_manager21set_tiles_and_paletteEPvRKNS_17sprite_shape_sizeEONS_16sprite_tiles_ptrEONS_18sprite_palette_ptrE
                0x08012eb4      0x334 bn_sprites_manager.o
                0x08012eb4                bn::sprites_manager::set_tiles_and_palette(void*, bn::sprite_shape_size const&, bn::sprite_tiles_ptr&&, bn::sprite_palette_ptr&&)
 .text._ZN2bn15sprites_manager29set_regular_second_attributesEPvRKNS_32sprite_regular_second_attributesE
                0x080131e8       0x94 bn_sprites_manager.o
                0x080131e8                bn::sprites_manager::set_regular_second_attributes(void*, bn::sprite_regular_second_attributes const&)
 .text._ZN2bn10sprite_ptr29set_regular_second_attributesERKNS_32sprite_regular_second_attributesE
                0x0801327c       0x10 bn_sprites_manager.o
                0x0801327c                bn::sprite_ptr::set_regular_second_attributes(bn::sprite_regular_second_attributes const&)
 .text._ZNK2bn10sprite_ptr25regular_second_attributesEv
                0x0801328c       0x4c bn_sprites_manager.o
                0x0801328c                bn::sprite_ptr::regular_second_attributes() const
 .text._ZNK2bn10sprite_ptr24affine_second_attributesEv
                0x080132d8       0x48 bn_sprites_manager.o
                0x080132d8                bn::sprite_ptr::affine_second_attributes() const
 .text._ZN2bn10sprite_ptr28set_affine_second_attributesERKNS_31sprite_affine_second_attributesE
                0x08013320       0xb4 bn_sprites_manager.o
                0x08013320                bn::sprite_ptr::set_affine_second_attributes(bn::sprite_affine_second_attributes const&)
 .text._ZN3_bn6assert9show_argsIJA27_ciA4_ciEEEvPKcS5_S5_iDpRKT_
                0x080133d4       0x58 bn_sprites_manager.o
                0x080133d4                void _bn::assert::show_args<char [27], int, char [4], int>(char const*, char const*, char const*, int, char const (&) [27], int const&, char const (&) [4], int const&)
 .text._ZN2bn15sprites_manager35fill_hblank_effect_third_attributesENS_17sprite_shape_sizeEPKNS_23sprite_third_attributesEPt
                0x0801342c      0x2f0 bn_sprites_manager.o
                0x0801342c                bn::sprites_manager::fill_hblank_effect_third_attributes(bn::sprite_shape_size, bn::sprite_third_attributes const*, unsigned short*)
 .text._ZN2bn14sorted_sprites6sorter6insertERNS_20sprites_manager_itemE
                0x0801371c      0x170 bn_sprites_manager.o
                0x0801371c                bn::sorted_sprites::sorter::insert(bn::sprites_manager_item&)
 .text._ZN2bn15sprites_manager6createERKNS_13fixed_point_tILi12EEERKNS_17sprite_shape_sizeEONS_16sprite_tiles_ptrEONS_18sprite_palette_ptrE
                0x0801388c      0x1dc bn_sprites_manager.o
                0x0801388c                bn::sprites_manager::create(bn::fixed_point_t<12> const&, bn::sprite_shape_size const&, bn::sprite_tiles_ptr&&, bn::sprite_palette_ptr&&)
 .text._ZNK2bn11sprite_item13create_spriteENS_7fixed_tILi12EEES2_
                0x08013a68       0x44 bn_sprites_manager.o
                0x08013a68                bn::sprite_item::create_sprite(bn::fixed_t<12>, bn::fixed_t<12>) const
 .text._ZN2bn15sprites_manager6createEONS_14sprite_builderE
                0x08013aac      0x190 bn_sprites_manager.o
                0x08013aac                bn::sprites_manager::create(bn::sprite_builder&&)
 .text._ZN2bn10sprite_ptr6createERKNS_14sprite_builderE
                0x08013c3c       0xf8 bn_sprites_manager.o
                0x08013c3c                bn::sprite_ptr::create(bn::sprite_builder const&)
 .text._ZNK2bn14sprite_builder5buildEv
                0x08013d34       0x10 bn_sprites_manager.o
                0x08013d34                bn::sprite_builder::build() const
 .text._ZN2bn10sprite_ptr6createEONS_14sprite_builderE
                0x08013d44       0x14 bn_sprites_manager.o
                0x08013d44                bn::sprite_ptr::create(bn::sprite_builder&&)
 .text._ZN2bn15sprites_manager9put_aboveEPv
                0x08013d58       0x74 bn_sprites_manager.o
                0x08013d58                bn::sprites_manager::put_above(void*)
 .text._ZN2bn10sprite_ptr9put_aboveEv
                0x08013dcc       0x10 bn_sprites_manager.o
                0x08013dcc                bn::sprite_ptr::put_above()
 .text._ZN2bn15sprites_manager15set_bg_priorityEPvi
                0x08013ddc      0x148 bn_sprites_manager.o
                0x08013ddc                bn::sprites_manager::set_bg_priority(void*, int)
 .text._ZN2bn15sprites_manager20set_third_attributesEPvRKNS_23sprite_third_attributesE
                0x08013f24       0x50 bn_sprites_manager.o
                0x08013f24                bn::sprites_manager::set_third_attributes(void*, bn::sprite_third_attributes const&)
 .text._ZN2bn10sprite_ptr20set_third_attributesERKNS_23sprite_third_attributesE
                0x08013f74       0x10 bn_sprites_manager.o
                0x08013f74                bn::sprite_ptr::set_third_attributes(bn::sprite_third_attributes const&)
 .text._ZN2bn15sprites_manager15decrease_usagesEPv
                0x08013f84      0x180 bn_sprites_manager.o
                0x08013f84                bn::sprites_manager::decrease_usages(void*)
 .text._ZN2bn10sprite_ptrD2Ev
                0x08014104       0x18 bn_sprites_manager.o
                0x08014104                bn::sprite_ptr::~sprite_ptr()
                0x08014104                bn::sprite_ptr::~sprite_ptr()
 .text._ZN2bn10sprite_ptr11set_z_orderEi
                0x0801411c      0x148 bn_sprites_manager.o
                0x0801411c                bn::sprite_ptr::set_z_order(int)
 .text._ZN2bn10sprite_ptr15set_bg_priorityEi
                0x08014264      0x144 bn_sprites_manager.o
                0x08014264                bn::sprite_ptr::set_bg_priority(int)
 .text._ZN2bn14sprite_builder18set_rotation_angleENS_7fixed_tILi12EEE
                0x080143a8      0x120 bn_sprites_manager.o
                0x080143a8                bn::sprite_builder::set_rotation_angle(bn::fixed_t<12>)
 .text._ZN2bn10sprite_ptr18set_rotation_angleENS_7fixed_tILi12EEE
                0x080144c8       0xb4 bn_sprites_manager.o
                0x080144c8                bn::sprite_ptr::set_rotation_angle(bn::fixed_t<12>)
 .text._ZN2bn10sprite_ptr20set_horizontal_scaleENS_7fixed_tILi12EEE
                0x0801457c       0xb8 bn_sprites_manager.o
                0x0801457c                bn::sprite_ptr::set_horizontal_scale(bn::fixed_t<12>)
 .text._ZN2bn10sprite_ptr18set_vertical_scaleENS_7fixed_tILi12EEE
                0x08014634       0xb8 bn_sprites_manager.o
                0x08014634                bn::sprite_ptr::set_vertical_scale(bn::fixed_t<12>)
 .text._ZN2bn14sprite_builder9set_scaleENS_7fixed_tILi12EEE
                0x080146ec      0x110 bn_sprites_manager.o
                0x080146ec                bn::sprite_builder::set_scale(bn::fixed_t<12>)
 .text._ZN2bn10sprite_ptr9set_scaleENS_7fixed_tILi12EEE
                0x080147fc       0xbc bn_sprites_manager.o
                0x080147fc                bn::sprite_ptr::set_scale(bn::fixed_t<12>)
 .text.startup._GLOBAL__sub_I__ZN2bn7sprites16used_items_countEv
                0x080148b8       0xac bn_sprites_manager.o
 .text._ZN2bn12_GLOBAL__N_114_setup_builderERKNS_21sprite_text_generatorERNS_14sprite_builderE
                0x08014964       0x68 bn_sprite_text_generator.o
 .text._ZN2bn21sprite_text_generator5_initEv
                0x080149cc      0x1a0 bn_sprite_text_generator.o
                0x080149cc                bn::sprite_text_generator::_init()
 .text._ZN2bn21sprite_text_generatorC2ERKNS_11sprite_fontE
                0x08014b6c       0x38 bn_sprite_text_generator.o
                0x08014b6c                bn::sprite_text_generator::sprite_text_generator(bn::sprite_font const&)
                0x08014b6c                bn::sprite_text_generator::sprite_text_generator(bn::sprite_font const&)
 .text._ZN3_bn6assert9show_argsIJA25_ciA4_ctEEEvPKcS5_S5_iDpRKT_
                0x08014ba4       0x64 bn_sprite_text_generator.o
                0x08014ba4                void _bn::assert::show_args<char [25], int, char [4], unsigned short>(char const*, char const*, char const*, int, char const (&) [25], int const&, char const (&) [4], unsigned short const&)
 .text._ZN2bn14utf8_characterC2ERKc
                0x08014c08      0x140 bn_sprite_text_generator.o
                0x08014c08                bn::utf8_character::utf8_character(char const&)
                0x08014c08                bn::utf8_character::utf8_character(char const&)
 .text._ZN2bn12_GLOBAL__N_115_graphics_indexEcRKNS_23utf8_characters_map_refEPKcRi.part.0
                0x08014d48       0x8c bn_sprite_text_generator.o
 .text._ZN2bn21sprite_text_generator15set_bg_priorityEi
                0x08014dd4       0x3c bn_sprite_text_generator.o
                0x08014dd4                bn::sprite_text_generator::set_bg_priority(int)
 .text._ZN3_bn6assert9show_argsIJA20_ccA9_cN2bn11string_viewEA2_cEEEvPKcS8_S8_iDpRKT_
                0x08014e10       0x6c bn_sprite_text_generator.o
                0x08014e10                void _bn::assert::show_args<char [20], char, char [9], bn::string_view, char [2]>(char const*, char const*, char const*, int, char const (&) [20], char const&, char const (&) [9], bn::string_view const&, char const (&) [2])
 .text._ZNK2bn21sprite_text_generator5widthERKNS_11string_viewE
                0x08014e7c      0x244 bn_sprite_text_generator.o
                0x08014e7c                bn::sprite_text_generator::width(bn::string_view const&) const
 .text._ZN3_bn6assert9show_argsIA55_cEEvPKcS4_S4_iRKT_
                0x080150c0       0x48 bn_sprite_text_generator.o
                0x080150c0                void _bn::assert::show_args<char [55]>(char const*, char const*, char const*, int, char const (&) [55])
 .text._ZN2bn12_GLOBAL__N_120_build_sprite_assertILNS_11sprite_sizeE2EEEPNS_4tileERKNS_21sprite_text_generatorERKNS_18sprite_palette_ptrERKNS_13fixed_point_tILi12EEERNS_7ivectorINS_10sprite_ptrEEE
                0x08015108      0x1ac bn_sprite_text_generator.o
 .text._ZN2bn12_GLOBAL__N_120_build_sprite_assertILNS_11sprite_sizeE1EEEPNS_4tileERKNS_21sprite_text_generatorERKNS_18sprite_palette_ptrERKNS_13fixed_point_tILi12EEERNS_7ivectorINS_10sprite_ptrEEE
                0x080152b4      0x1ac bn_sprite_text_generator.o
 .text._ZN2bn12_GLOBAL__N_19_generateILb0EEEbRKNS_21sprite_text_generatorERKNS_13fixed_point_tILi12EEERKNS_11string_viewERKNS_23utf8_characters_map_refEiibRNS_7ivectorINS_10sprite_ptrEEE.isra.0
                0x08015460     0x11a0 bn_sprite_text_generator.o
 .text._ZNK2bn21sprite_text_generator8generateENS_7fixed_tILi12EEES2_RKNS_11string_viewERNS_7ivectorINS_10sprite_ptrEEE
                0x08016600       0x40 bn_sprite_text_generator.o
                0x08016600                bn::sprite_text_generator::generate(bn::fixed_t<12>, bn::fixed_t<12>, bn::string_view const&, bn::ivector<bn::sprite_ptr>&) const
 .text._ZN2bn16sprite_tiles_ptrC2ERKS0_
                0x08016640       0x18 bn_sprite_tiles_manager.o
                0x08016640                bn::sprite_tiles_ptr::sprite_tiles_ptr(bn::sprite_tiles_ptr const&)
                0x08016640                bn::sprite_tiles_ptr::sprite_tiles_ptr(bn::sprite_tiles_ptr const&)
 .text._ZNK2bn16sprite_tiles_ptr2idEv
                0x08016658       0x18 bn_sprite_tiles_manager.o
                0x08016658                bn::sprite_tiles_ptr::id() const
 .text._ZNK2bn16sprite_tiles_ptr11tiles_countEv
                0x08016670       0x18 bn_sprite_tiles_manager.o
                0x08016670                bn::sprite_tiles_ptr::tiles_count() const
 .text._ZN2bn20sprite_tiles_manager10log_statusEv
                0x08016688      0x1f0 bn_sprite_tiles_manager.o
                0x08016688                bn::sprite_tiles_manager::log_status()
 .text._ZN2bn20sprite_tiles_manager19commit_uncompressedEb
                0x08016878       0xdc bn_sprite_tiles_manager.o
                0x08016878                bn::sprite_tiles_manager::commit_uncompressed(bool)
 .text._ZN3_bn6assert9show_argsIJA44_cPKN2bn4tileEA4_cS6_EEEvPKcS9_S9_iDpRKT_
                0x08016954       0x64 bn_sprite_tiles_manager.o
                0x08016954                void _bn::assert::show_args<char [44], bn::tile const*, char [4], bn::tile const*>(char const*, char const*, char const*, int, char const (&) [44], bn::tile const* const&, char const (&) [4], bn::tile const* const&)
 .text._ZN3_bn6assert9show_argsIJA46_ciA4_cjEEEvPKcS5_S5_iDpRKT_
                0x080169b8       0x64 bn_sprite_tiles_manager.o
                0x080169b8                void _bn::assert::show_args<char [46], int, char [4], unsigned int>(char const*, char const*, char const*, int, char const (&) [46], int const&, char const (&) [4], unsigned int const&)
 .text._ZN2bn20sprite_tiles_manager12_GLOBAL__N_110_hw_commitEPKNS_4tileENS_16compression_typeEii
                0x08016a1c       0x9c bn_sprite_tiles_manager.o
 .text._ZN2bn20sprite_tiles_manager17commit_compressedEv
                0x08016ab8       0x68 bn_sprite_tiles_manager.o
                0x08016ab8                bn::sprite_tiles_manager::commit_compressed()
 .text._ZN3_bn6assert9show_argsIJA28_cA15_cPKN2bn4tileEA16_ciA34_cNS4_11string_viewEEEEvPKcSC_SC_iDpRKT_
                0x08016b20       0x7c bn_sprite_tiles_manager.o
                0x08016b20                void _bn::assert::show_args<char [28], char [15], bn::tile const*, char [16], int, char [34], bn::string_view>(char const*, char const*, char const*, int, char const (&) [28], char const (&) [15], bn::tile const* const&, char const (&) [16], int const&, char const (&) [34], bn::string_view const&)
 .text._ZN3_bn6assert9show_argsIJA44_ciA34_cN2bn11string_viewEEEEvPKcS7_S7_iDpRKT_
                0x08016b9c       0x64 bn_sprite_tiles_manager.o
                0x08016b9c                void _bn::assert::show_args<char [44], int, char [34], bn::string_view>(char const*, char const*, char const*, int, char const (&) [44], int const&, char const (&) [34], bn::string_view const&)
 .text._ZN2bn20sprite_tiles_manager4initEv
                0x08016c00      0x190 bn_sprite_tiles_manager.o
                0x08016c00                bn::sprite_tiles_manager::init()
 .text._ZN2bn20sprite_tiles_manager12_GLOBAL__N_122_insert_to_commit_itemEiRNS1_9item_typeE.part.0
                0x08016d90       0x6c bn_sprite_tiles_manager.o
 .text._ZN2bn20sprite_tiles_manager12_GLOBAL__N_117_insert_free_itemEiPt
                0x08016dfc       0xcc bn_sprite_tiles_manager.o
 .text._ZN2bn20sprite_tiles_manager12_GLOBAL__N_116_erase_free_itemEi
                0x08016ec8       0xe4 bn_sprite_tiles_manager.o
 .text._ZN2bn20sprite_tiles_manager12_GLOBAL__N_121_erase_to_commit_itemEiRNS1_9item_typeE.part.0
                0x08016fac       0xa4 bn_sprite_tiles_manager.o
 .text._ZN2bn20sprite_tiles_manager15decrease_usagesEi
                0x08017050      0x13c bn_sprite_tiles_manager.o
                0x08017050                bn::sprite_tiles_manager::decrease_usages(int)
 .text._ZN2bn16sprite_tiles_ptrD2Ev
                0x0801718c       0x18 bn_sprite_tiles_manager.o
                0x0801718c                bn::sprite_tiles_ptr::~sprite_tiles_ptr()
                0x0801718c                bn::sprite_tiles_ptr::~sprite_tiles_ptr()
 .text._ZN2bn20sprite_tiles_manager12_GLOBAL__N_110_find_implEPKNS_4tileENS_16compression_typeEi
                0x080171a4      0x28c bn_sprite_tiles_manager.o
 .text._ZN2bn20sprite_tiles_manager4vramEi
                0x08017430       0x4c bn_sprite_tiles_manager.o
                0x08017430                bn::sprite_tiles_manager::vram(int)
 .text._ZN2bn16sprite_tiles_ptr4vramEv
                0x0801747c       0x14 bn_sprite_tiles_manager.o
                0x0801747c                bn::sprite_tiles_ptr::vram()
 .text._ZNK2bn17sprite_tiles_item10find_tilesEi
                0x08017490       0xc8 bn_sprite_tiles_manager.o
                0x08017490                bn::sprite_tiles_item::find_tiles(int) const
 .text._ZN2bn20sprite_tiles_manager12_GLOBAL__N_121_erase_items_map_itemEPKNS_4tileE
                0x08017558      0x220 bn_sprite_tiles_manager.o
 .text._ZN2bn20sprite_tiles_manager12_GLOBAL__N_112_create_itemEiPKNS_4tileENS_16compression_typeEib
                0x08017778      0x1d0 bn_sprite_tiles_manager.o
 .text._ZN2bn20sprite_tiles_manager12_GLOBAL__N_114_allocate_implEi
                0x08017948       0xf8 bn_sprite_tiles_manager.o
 .text._ZN2bn20sprite_tiles_manager8allocateEiNS_8bpp_modeE
                0x08017a40       0xc4 bn_sprite_tiles_manager.o
                0x08017a40                bn::sprite_tiles_manager::allocate(int, bn::bpp_mode)
 .text._ZN2bn16sprite_tiles_ptr8allocateEiNS_8bpp_modeE
                0x08017b04       0x18 bn_sprite_tiles_manager.o
                0x08017b04                bn::sprite_tiles_ptr::allocate(int, bn::bpp_mode)
 .text._ZN2bn20sprite_tiles_manager6updateEv
                0x08017b1c      0x1b0 bn_sprite_tiles_manager.o
                0x08017b1c                bn::sprite_tiles_manager::update()
 .text._ZN2bn20sprite_tiles_manager12_GLOBAL__N_112_create_implEPKNS_4tileENS_16compression_typeEi
                0x08017ccc      0x200 bn_sprite_tiles_manager.o
 .text._ZN2bn20sprite_tiles_manager12_GLOBAL__N_122_insert_items_map_itemEPKNS_4tileEi
                0x08017ecc       0xc0 bn_sprite_tiles_manager.o
 .text._ZN2bn20sprite_tiles_manager6createERKNS_4spanIKNS_4tileEEENS_16compression_typeE
                0x08017f8c       0x94 bn_sprite_tiles_manager.o
                0x08017f8c                bn::sprite_tiles_manager::create(bn::span<bn::tile const> const&, bn::compression_type)
 .text._ZN2bn16sprite_tiles_ptr6createERKNS_17sprite_tiles_itemE
                0x08018020       0x84 bn_sprite_tiles_manager.o
                0x08018020                bn::sprite_tiles_ptr::create(bn::sprite_tiles_item const&)
 .text._ZN2bn16sprite_tiles_ptr6createERKNS_17sprite_tiles_itemEi
                0x080180a4       0xbc bn_sprite_tiles_manager.o
                0x080180a4                bn::sprite_tiles_ptr::create(bn::sprite_tiles_item const&, int)
 .text._ZNK2bn17sprite_tiles_item12create_tilesEi
                0x08018160       0xbc bn_sprite_tiles_manager.o
                0x08018160                bn::sprite_tiles_item::create_tiles(int) const
 .text.startup._GLOBAL__sub_I__ZN2bn12sprite_tiles16used_tiles_countEv
                0x0801821c      0x12c bn_sprite_tiles_manager.o
 .text._ZN2bn13ostringstreamC2ERNS_12istring_baseE
                0x08018348        0x8 bn_sstream.o
                0x08018348                bn::ostringstream::ostringstream(bn::istring_base&)
                0x08018348                bn::ostringstream::ostringstream(bn::istring_base&)
 .text._ZNK2bn13ostringstream4sizeEv
                0x08018350        0x8 bn_sstream.o
                0x08018350                bn::ostringstream::size() const
 .text._ZN2bn13ostringstream6appendEPKc
                0x08018358       0xa4 bn_sstream.o
                0x08018358                bn::ostringstream::append(char const*)
 .text._ZN2bn13ostringstream6appendEi
                0x080183fc       0xb0 bn_sstream.o
                0x080183fc                bn::ostringstream::append(int)
 .text._ZN2bn13ostringstream6appendERKNS_11string_viewE
                0x080184ac       0xb8 bn_sstream.o
                0x080184ac                bn::ostringstream::append(bn::string_view const&)
 .text._ZN2bn13ostringstream6appendEj
                0x08018564       0xb0 bn_sstream.o
                0x08018564                bn::ostringstream::append(unsigned int)
 .text._ZN2bn13ostringstream6appendEPKv
                0x08018614      0x100 bn_sstream.o
                0x08018614                bn::ostringstream::append(void const*)
 .text._ZN2bn13ostringstream16_append_fractionEji
                0x08018714      0x110 bn_sstream.o
                0x08018714                bn::ostringstream::_append_fraction(unsigned int, int)
 .text._ZN2bn13ostringstream6appendEc
                0x08018824       0x44 bn_sstream.o
                0x08018824                bn::ostringstream::append(char)
 .text._ZN2bn18igeneric_pool_baseC2EPci
                0x08018868       0x10 bn_translation_unit.o
                0x08018868                bn::igeneric_pool_base::igeneric_pool_base(char*, int)
                0x08018868                bn::igeneric_pool_base::igeneric_pool_base(char*, int)
 .text._ZN2bn18igeneric_pool_base5_freeEPc
                0x08018878       0x10 bn_translation_unit.o
                0x08018878                bn::igeneric_pool_base::_free(char*)
 .text._ZN2bn5timerC2Ev
                0x08018888       0x24 bn_translation_unit.o
                0x08018888                bn::timer::timer()
                0x08018888                bn::timer::timer()
 .text._ZNK2bn5timer13elapsed_ticksEv
                0x080188ac       0x28 bn_translation_unit.o
                0x080188ac                bn::timer::elapsed_ticks() const
 .text._ZN2bn5timer7restartEv
                0x080188d4       0x24 bn_translation_unit.o
                0x080188d4                bn::timer::restart()
 .text._ZN2bn3logERKNS_12istring_baseE
                0x080188f8       0x58 bn_translation_unit.o
                0x080188f8                bn::log(bn::istring_base const&)
 .text._ZN2bn18igeneric_pool_baseD2Ev
                0x08018950       0x30 bn_translation_unit.o
                0x08018950                bn::igeneric_pool_base::~igeneric_pool_base()
                0x08018950                bn::igeneric_pool_base::~igeneric_pool_base()
 .text._ZN2bn18igeneric_pool_base9_allocateEv
                0x08018980       0x48 bn_translation_unit.o
                0x08018980                bn::igeneric_pool_base::_allocate()
 .text._ZN2bn2hw5audio12_GLOBAL__N_111static_dataD2Ev
                0x080189c8       0x18 bn_hw_audio.o
 .text._ZN2bn2hw5audio12_GLOBAL__N_17_commitEv
                0x080189e0       0x48 bn_hw_audio.o
 .text._ZN2bn2hw5audio12_GLOBAL__N_115_vblank_handlerEv
                0x08018a28       0x24 bn_hw_audio.o
 .text._ZN2bn2hw5audio4initEv
                0x08018a4c       0x9c bn_hw_audio.o
                0x08018a4c                bn::hw::audio::init()
 .text._ZN2bn2hw5audio7disableEv
                0x08018ae8       0x34 bn_hw_audio.o
                0x08018ae8                bn::hw::audio::disable()
 .text._ZN2bn2hw5audio13music_playingEv
                0x08018b1c       0x20 bn_hw_audio.o
                0x08018b1c                bn::hw::audio::music_playing()
 .text._ZN2bn2hw5audio10play_musicEib
                0x08018b3c       0x1c bn_hw_audio.o
                0x08018b3c                bn::hw::audio::play_music(int, bool)
 .text._ZN2bn2hw5audio10stop_musicEv
                0x08018b58       0x18 bn_hw_audio.o
                0x08018b58                bn::hw::audio::stop_music()
 .text._ZN2bn2hw5audio11pause_musicEv
                0x08018b70       0x18 bn_hw_audio.o
                0x08018b70                bn::hw::audio::pause_music()
 .text._ZN2bn2hw5audio12resume_musicEv
                0x08018b88       0x18 bn_hw_audio.o
                0x08018b88                bn::hw::audio::resume_music()
 .text._ZN2bn2hw5audio17dmg_music_playingEv
                0x08018ba0       0x2c bn_hw_audio.o
                0x08018ba0                bn::hw::audio::dmg_music_playing()
 .text._ZN2bn2hw5audio14stop_dmg_musicEv
                0x08018bcc       0x28 bn_hw_audio.o
                0x08018bcc                bn::hw::audio::stop_dmg_music()
 .text._ZN2bn2hw5audio15pause_dmg_musicEv
                0x08018bf4       0x28 bn_hw_audio.o
                0x08018bf4                bn::hw::audio::pause_dmg_music()
 .text._ZN2bn2hw5audio16resume_dmg_musicEv
                0x08018c1c       0x28 bn_hw_audio.o
                0x08018c1c                bn::hw::audio::resume_dmg_music()
 .text._ZN2bn2hw5audio18dmg_music_positionERiS2_
                0x08018c44       0x2c bn_hw_audio.o
                0x08018c44                bn::hw::audio::dmg_music_position(int&, int&)
 .text._ZN2bn2hw5audio6updateEv
                0x08018c70       0x14 bn_hw_audio.o
                0x08018c70                bn::hw::audio::update()
 .text._ZN3_bn6assert9show_argsIA47_ciEEvPKcS4_S4_iRKT_RKT0_
                0x08018c84       0x54 bn_hw_audio.o
                0x08018c84                void _bn::assert::show_args<char [47], int>(char const*, char const*, char const*, int, char const (&) [47], int const&)
 .text._ZN2bn2hw5audio14play_dmg_musicEPKvNS_14dmg_music_typeEib
                0x08018cd8       0x8c bn_hw_audio.o
                0x08018cd8                bn::hw::audio::play_dmg_music(void const*, bn::dmg_music_type, int, bool)
 .text._ZN2bn2hw5audio22set_dmg_music_positionEii
                0x08018d64       0x54 bn_hw_audio.o
                0x08018d64                bn::hw::audio::set_dmg_music_position(int, int)
 .text._ZN2bn2hw5audio20set_dmg_music_volumeEii
                0x08018db8       0x40 bn_hw_audio.o
                0x08018db8                bn::hw::audio::set_dmg_music_volume(int, int)
 .text._ZN3_bn6assert9show_argsIA20_cjEEvPKcS4_S4_iRKT_RKT0_
                0x08018df8       0x54 bn_hw_audio.o
                0x08018df8                void _bn::assert::show_args<char [20], unsigned int>(char const*, char const*, char const*, int, char const (&) [20], unsigned int const&)
 .text._ZN2bn2hw5audio6commitEv
                0x08018e4c       0x58 bn_hw_audio.o
                0x08018e4c                bn::hw::audio::commit()
 .text._ZN2bn2hw5audio12_GLOBAL__N_119_add_sound_to_queueEit
                0x08018ea4       0xa0 bn_hw_audio.o
 .text._ZN2bn2hw5audio12_GLOBAL__N_123_erase_sound_from_queueEt
                0x08018f44       0x90 bn_hw_audio.o
 .text._ZN2bn2hw5audio10stop_soundEt
                0x08018fd4       0x20 bn_hw_audio.o
                0x08018fd4                bn::hw::audio::stop_sound(unsigned short)
 .text._ZN2bn2hw5audio13release_soundEt
                0x08018ff4       0x20 bn_hw_audio.o
                0x08018ff4                bn::hw::audio::release_sound(unsigned short)
 .text._ZN2bn2hw5audio15stop_all_soundsEv
                0x08019014       0x68 bn_hw_audio.o
                0x08019014                bn::hw::audio::stop_all_sounds()
 .text._ZN2bn2hw5audio12_GLOBAL__N_119_check_sounds_queueEv.part.0
                0x0801907c       0x98 bn_hw_audio.o
 .text._ZN2bn2hw5audio10play_soundEiiiii
                0x08019114       0x48 bn_hw_audio.o
                0x08019114                bn::hw::audio::play_sound(int, int, int, int, int)
 .text._ZN2bn2hw5audio10play_soundEii
                0x0801915c       0x34 bn_hw_audio.o
                0x0801915c                bn::hw::audio::play_sound(int, int)
 .text._ZN2bn2hw5audio19update_sounds_queueEv
                0x08019190       0x90 bn_hw_audio.o
                0x08019190                bn::hw::audio::update_sounds_queue()
 .text.startup._GLOBAL__sub_I__ZN2bn2hw5audio4initEv
                0x08019220       0x40 bn_hw_audio.o
 .text.__libc_init_array
                0x08019260       0x50 bn_hw_common.bn_noflto.o
                0x08019260                __libc_init_array
 .text.__aeabi_atexit
                0x080192b0        0x4 bn_hw_common.bn_noflto.o
                0x080192b0                __aeabi_atexit
 .text._ZN3_bn6assert9show_argsIA40_cEEvPKcS4_S4_iRKT_
                0x080192b4       0x48 bn_hw_common.bn_noflto.o
                0x080192b4                void _bn::assert::show_args<char [40]>(char const*, char const*, char const*, int, char const (&) [40])
 .text.__aeabi_idiv0
                0x080192fc       0x24 bn_hw_common.bn_noflto.o
                0x080192fc                __aeabi_idiv0
 .text._ZN2bn2hw4gpio4initEv
                0x08019320        0x8 bn_hw_gpio.bn_noflto.o
                0x08019320                bn::hw::gpio::init()
 .text._ZN2bn2hw4link12_GLOBAL__N_119_resetStateCallbackEv
                0x08019328       0x4c bn_hw_link.o
 .text._ZN2bn2hw4link4initEv
                0x08019374      0x120 bn_hw_link.o
                0x08019374                bn::hw::link::init()
 .text._ZN2bn2hw4link6activeEv
                0x08019494       0x10 bn_hw_link.o
                0x08019494                bn::hw::link::active()
 .text._ZN2bn2hw4link7disableEv
                0x080194a4       0x6c bn_hw_link.o
                0x080194a4                bn::hw::link::disable()
 .text._ZN2bn2hw4link6commitEv
                0x08019510       0x30 bn_hw_link.o
                0x08019510                bn::hw::link::commit()
 .text._ZN2bn2hw4link11_timer_intrEv
                0x08019540       0xf8 bn_hw_link.o
                0x08019540                bn::hw::link::_timer_intr()
 .text._ZN2bn2hw4link12_serial_intrEv
                0x08019638      0x1bc bn_hw_link.o
                0x08019638                bn::hw::link::_serial_intr()
 .text._ZN2bn2hw4link12_GLOBAL__N_117_sendDataCallbackEv
                0x080197f4       0xe4 bn_hw_link.o
 .text._ZN2bn2hw4link12_GLOBAL__N_124_receiveResponseCallbackERKNS_2lc12LinkResponseE
                0x080198d8      0x15c bn_hw_link.o
 .text.startup._GLOBAL__sub_I__ZN2bn2hw4link4initEv
                0x08019a34       0x68 bn_hw_link.o
 .text._ZN2bn2hw6memory4initEv
                0x08019a9c        0x4 bn_hw_memory.o
                0x08019a9c                bn::hw::memory::init()
 .text._ZN2bn2hw8palettes8contrastEPKNS_5colorEiiPS2_
                0x08019aa0       0x18 bn_hw_palettes.o
                0x08019aa0                bn::hw::palettes::contrast(bn::color const*, int, int, bn::color*)
 .text._ZN2bn2hw8palettes9intensityEPKNS_5colorEiiPS2_
                0x08019ab8       0x18 bn_hw_palettes.o
                0x08019ab8                bn::hw::palettes::intensity(bn::color const*, int, int, bn::color*)
 .text._ZN2bn2hw8palettes9hue_shiftEPKNS_5colorEiiPS2_
                0x08019ad0      0x14c bn_hw_palettes.o
                0x08019ad0                bn::hw::palettes::hue_shift(bn::color const*, int, int, bn::color*)
 .text._ZN2bn2hw8palettes6rotateEPKNS_5colorEiiPS2_
                0x08019c1c       0x2c bn_hw_palettes.o
                0x08019c1c                bn::hw::palettes::rotate(bn::color const*, int, int, bn::color*)
 .text._ZN2bn2hw4show5errorERKNS_11system_fontERKNS_11string_viewES7_S7_iS7_S7_
                0x08019c48      0x418 bn_hw_show.o
                0x08019c48                bn::hw::show::error(bn::system_font const&, bn::string_view const&, bn::string_view const&, bn::string_view const&, int, bn::string_view const&, bn::string_view const&)
 .text._ZN2bn2hw4sram4initEv
                0x0801a060       0x18 bn_hw_sram.bn_noflto.o
                0x0801a060                bn::hw::sram::init()
 .text._ZN2bn11system_fontC2Ev
                0x0801a078       0x18 bn_hw_system_font.o
                0x0801a078                bn::system_font::system_font()
                0x0801a078                bn::system_font::system_font()
 .text._ZNK2bn11system_font8tte_fontEv
                0x0801a090        0x4 bn_hw_system_font.o
                0x0801a090                bn::system_font::tte_font() const
 .text._ZN2bn2hw4text5parseEPKvRNS_5arrayIcLi32EEE
                0x0801a094       0x30 bn_hw_text.o
                0x0801a094                bn::hw::text::parse(void const*, bn::array<char, 32>&)
 .text._ZN2bn2hw4text5parseEjRNS_5arrayIcLi32EEE
                0x0801a0c4       0xa0 bn_hw_text.o
                0x0801a0c4                bn::hw::text::parse(unsigned int, bn::array<char, 32>&)
 .text._ZN2bn2hw4text5parseEiRNS_5arrayIcLi32EEE
                0x0801a164       0xbc bn_hw_text.o
                0x0801a164                bn::hw::text::parse(int, bn::array<char, 32>&)
 .text._Z7VgmStopv
                0x0801a220       0xc0 vgm.o
                0x0801a220                VgmStop()
 .text._Z7VgmPlayPKhb
                0x0801a2e0       0x28 vgm.o
                0x0801a2e0                VgmPlay(unsigned char const*, bool)
 .text._Z13VgmIntrVblankv
                0x0801a308       0x80 vgm.o
                0x0801a308                VgmIntrVblank()
 .text._Z9VgmActivev
                0x0801a388       0x10 vgm.o
                0x0801a388                VgmActive()
 .text._Z16VgmGetOffsetPlayv
                0x0801a398        0xc vgm.o
                0x0801a398                VgmGetOffsetPlay()
 .text._Z16VgmSetOffsetPlayj
                0x0801a3a4       0x10 vgm.o
                0x0801a3a4                VgmSetOffsetPlay(unsigned int)
 .text._Z8VgmPausev
                0x0801a3b4       0x20 vgm.o
                0x0801a3b4                VgmPause()
 .text._Z9VgmResumev
                0x0801a3d4       0x18 vgm.o
                0x0801a3d4                VgmResume()
 .text.clr_grayscale
                0x0801a3ec       0x78 tonc_color.o
                0x0801a3ec                clr_grayscale
 .text.sbmp16_rect
                0x0801a464       0x6c tonc_sbmp16.o
                0x0801a464                sbmp16_rect
 .text.bmp16_drawg_b1cts
                0x0801a4d0       0xc0 bmp16_drawg_b1cs.o
                0x0801a4d0                bmp16_drawg_b1cts
 .text.bmp16_erase
                0x0801a590       0x24 tte_init_bmp.o
                0x0801a590                bmp16_erase
 .text.tte_init_bmp
                0x0801a5b4       0x60 tte_init_bmp.o
                0x0801a5b4                tte_init_bmp
 .text.dummy_drawg
                0x0801a614        0x4 tte_main.o
                0x0801a614                dummy_drawg
 .text.dummy_erase
                0x0801a618        0x4 tte_main.o
                0x0801a618                dummy_erase
 .text.tte_init_base
                0x0801a61c       0x68 tte_main.o
                0x0801a61c                tte_init_base
 .text.utf8_decode_char
                0x0801a684       0xb4 tte_main.o
                0x0801a684                utf8_decode_char
 .text.tte_write
                0x0801a738       0xe8 tte_main.o
                0x0801a738                tte_write
 .text.tte_get_text_size
                0x0801a820       0xa4 tte_main.o
                0x0801a820                tte_get_text_size
 .text.tte_set_margins
                0x0801a8c4       0x18 tte_main.o
                0x0801a8c4                tte_set_margins
 .text.IRQ_Init
                0x0801a8dc       0x48 interrupts_gba.o
                0x0801a8dc                IRQ_Init
 .text.IRQ_SetHandler
                0x0801a924        0xc interrupts_gba.o
                0x0801a924                IRQ_SetHandler
 .text.IRQ_Enable
                0x0801a930       0x60 interrupts_gba.o
                0x0801a930                IRQ_Enable
 .text.IRQ_Disable
                0x0801a990       0x5c interrupts_gba.o
                0x0801a990                IRQ_Disable
 .text.channel3_refresh_registers
                0x0801a9ec       0xd0 gbt_player.o
 .text.gbt_refresh_pattern_ptr
                0x0801aabc       0x84 gbt_player.o
 .text.gbt_ch1234_nop
                0x0801ab40        0x4 gbt_player.o
 .text.gbt_ch1234_speed
                0x0801ab44       0x10 gbt_player.o
 .text.gbt_ch1234_jump_pattern
                0x0801ab54       0x14 gbt_player.o
 .text.gbt_ch1234_jump_position
                0x0801ab68       0x1c gbt_player.o
 .text.gbt_ch1234_event
                0x0801ab84       0x24 gbt_player.o
 .text.gbt_ch1_pan
                0x0801aba8       0x10 gbt_player.o
 .text.gbt_ch1_cut_note
                0x0801abb8       0x10 gbt_player.o
 .text.gbt_ch1_arpeggio
                0x0801abc8       0x34 gbt_player.o
 .text.gbt_ch1_vibrato
                0x0801abfc       0x20 gbt_player.o
 .text.gbt_ch1_volslide
                0x0801ac1c       0x10 gbt_player.o
 .text.gbt_ch2_pan
                0x0801ac2c       0x10 gbt_player.o
 .text.gbt_ch2_cut_note
                0x0801ac3c       0x10 gbt_player.o
 .text.gbt_ch2_arpeggio
                0x0801ac4c       0x34 gbt_player.o
 .text.gbt_ch2_vibrato
                0x0801ac80       0x20 gbt_player.o
 .text.gbt_ch2_volslide
                0x0801aca0       0x10 gbt_player.o
 .text.gbt_ch3_pan
                0x0801acb0       0x10 gbt_player.o
 .text.gbt_ch3_cut_note
                0x0801acc0       0x10 gbt_player.o
 .text.gbt_ch3_arpeggio
                0x0801acd0       0x34 gbt_player.o
 .text.gbt_ch3_vibrato
                0x0801ad04       0x20 gbt_player.o
 .text.gbt_ch4_pan
                0x0801ad24       0x14 gbt_player.o
 .text.gbt_ch4_cut_note
                0x0801ad38       0x10 gbt_player.o
 .text.gbt_ch4_volslide
                0x0801ad48       0x10 gbt_player.o
 .text.gbt_update_refresh_panning
                0x0801ad58       0x50 gbt_player.o
 .text.gbt_run_startup_commands.part.0
                0x0801ada8       0xd0 gbt_player.o
 .text.gbt_update_effects_internal
                0x0801ae78      0x2d4 gbt_player.o
 .text.gbt_play
                0x0801b14c      0x1dc gbt_player.o
                0x0801b14c                gbt_play
 .text.gbt_volume
                0x0801b328       0x68 gbt_player.o
                0x0801b328                gbt_volume
 .text.gbt_is_playing
                0x0801b390        0xc gbt_player.o
                0x0801b390                gbt_is_playing
 .text.gbt_pause
                0x0801b39c       0x48 gbt_player.o
                0x0801b39c                gbt_pause
 .text.gbt_loop
                0x0801b3e4        0xc gbt_player.o
                0x0801b3e4                gbt_loop
 .text.gbt_stop
                0x0801b3f0       0x24 gbt_player.o
                0x0801b3f0                gbt_stop
 .text.gbt_update
                0x0801b414      0x64c gbt_player.o
                0x0801b414                gbt_update
 .text.gbt_get_position_unsafe
                0x0801ba60       0x24 gbt_player.o
                0x0801ba60                gbt_get_position_unsafe
 .text.gbt_set_position
                0x0801ba84       0xe0 gbt_player.o
                0x0801ba84                gbt_set_position
 .text.VBlankIntrWait
                0x0801bb64        0x4 tonc_bios.o
                0x0801bb64                VBlankIntrWait
 .text.memset16
                0x0801bb68       0x3c tonc_memset.o
                0x0801bb68                memset16
 .text          0x0801bba4      0x26c posprintf.o
                0x0801bba8                posprintf
 .text          0x0801be10      0x314 mm_effect.o
                0x0801be10                mmResetEffects
                0x0801be3c                mmEffect
                0x0801be52                mmEffectEx
                0x0801bf52                mmEffectActive
                0x0801bf86                mmEffectVolume
                0x0801bfa2                mmEffectPanning
                0x0801bfb6                mmEffectRate
                0x0801bfca                mmEffectCancel
                0x0801c004                mmEffectRelease
                0x0801c02a                mmEffectScaleRate
                0x0801c03e                mmSetEffectsVolume
                0x0801c04c                mmEffectCancelAll
                0x0801c08c                mmUpdateEffects
 .text          0x0801c124       0x14 mm_main.o
                0x0801c124                mpp_call_r7
                0x0801c126                mpp_call_r1
                0x0801c128                mpp_call_r2
                0x0801c12a                mpp_call_r3
                0x0801c12c                mmSetEventHandler
 .text          0x0801c138     0x1570 mm_mas.o
                0x0801c1ac                mmStart
                0x0801c1cc                mmJingle
                0x0801c1d2                mmPlayModule
                0x0801c29c                mmPause
                0x0801c2b8                mmResume
                0x0801c2c8                mmActive
                0x0801c2ce                mmActiveSub
                0x0801c2d4                mmSetModuleVolume
                0x0801c2e4                mmSetJingleVolume
                0x0801c320                mmGetPositionTick
                0x0801c326                mmGetPositionRow
                0x0801c32c                mmGetPosition
                0x0801c332                mmPosition
                0x0801c34c                mmSetModuleTempo
                0x0801c37e                mmSetModulePitch
                0x0801c3c0                mmStop
                0x0801c486                mppUpdateSub
                0x0801c5e2                mpp_Process_VolumeCommand
                0x0801c81a                mpp_Process_Effect
                0x0801cf68                ST3_FREQTABLE
                0x0801d388                IT_PitchTable
 .text          0x0801d6a8      0x12c mm_main_gba.o
                0x0801d6a8                mmInit
                0x0801d6fc                mmSetVBlankHandler
                0x0801d702                mmFrame
 .text          0x0801d7d4      0x1e0 mm_mixer_gba.o
                0x0801d7d4                mmMixerSetSource
                0x0801d7e8                mmMixerSetRead
                0x0801d7f6                mmMixerSetFreq
                0x0801d806                mmMixerMulFreq
                0x0801d81a                mmMixerStopChannel
                0x0801d82c                mmMixerChannelActive
                0x0801d83e                mmMixerSetVolume
                0x0801d84c                mmMixerSetPan
                0x0801d85a                mmMixerInit
 .text          0x0801d9b4       0x3c /opt/devkitpro/devkitARM/bin/../lib/gcc/arm-none-eabi/14.2.0/thumb/libgcc.a(_call_via_rX.o)
                0x0801d9b4                _call_via_r0
                0x0801d9b8                _call_via_r1
                0x0801d9bc                _call_via_r2
                0x0801d9c0                _call_via_r3
                0x0801d9c4                _call_via_r4
                0x0801d9c8                _call_via_r5
                0x0801d9cc                _call_via_r6
                0x0801d9d0                _call_via_r7
                0x0801d9d4                _call_via_r8
                0x0801d9d8                _call_via_r9
                0x0801d9dc                _call_via_sl
                0x0801d9e0                _call_via_fp
                0x0801d9e4                _call_via_ip
                0x0801d9e8                _call_via_sp
                0x0801d9ec                _call_via_lr
 .text.__stub   0x0801d9f0      0x118 linker stubs
 *(.gnu.linkonce.t.*)
 *(.text.*personality*)
 *(.gnu.warning)
 *(.glue_7t)
 .glue_7t       0x0801db60        0x0 linker stubs
 *(.glue_7)
 .glue_7        0x0801db60        0x0 linker stubs
 *(.vfp11_veneer)
 .vfp11_veneer  0x0801db60        0x0 linker stubs
                0x0801db60                        . = ALIGN (0x4)
                0x0801db60                        __text_end = .

.v4_bx          0x0801db60        0x0
 .v4_bx         0x0801db60        0x0 linker stubs

.iplt           0x0801db60        0x0
 .iplt          0x0801db60        0x0 /opt/devkitpro/devkitARM/bin/../lib/gcc/arm-none-eabi/14.2.0/../../../../arm-none-eabi/lib/thumb/gba_crt0.o

.fini           0x0801db60        0xc
 *(.fini)
 .fini          0x0801db60        0x4 /opt/devkitpro/devkitARM/bin/../lib/gcc/arm-none-eabi/14.2.0/thumb/crti.o
                0x0801db60                _fini
 .fini          0x0801db64        0x8 /opt/devkitpro/devkitARM/bin/../lib/gcc/arm-none-eabi/14.2.0/thumb/crtn.o
                0x0801db6c                        . = ALIGN (0x4)

.rodata         0x0801db6c    0x10740
 *(.rodata)
 .rodata        0x0801db6c     0x13c0 blue_bg_bn_gfx.o
                0x0801db6c                blue_bg_bn_gfxTiles
                0x0801e70c                blue_bg_bn_gfxMap
                0x0801ef0c                blue_bg_bn_gfxPal
 .rodata        0x0801ef2c      0x820 blue_sprite_bn_gfx.o
                0x0801ef2c                blue_sprite_bn_gfxTiles
                0x0801f72c                blue_sprite_bn_gfxPal
 .rodata        0x0801f74c      0x820 caveman_bn_gfx.o
                0x0801f74c                caveman_bn_gfxTiles
                0x0801ff4c                caveman_bn_gfxPal
 .rodata        0x0801ff6c     0x13c0 green_bg_bn_gfx.o
                0x0801ff6c                green_bg_bn_gfxTiles
                0x08020b0c                green_bg_bn_gfxMap
                0x0802130c                green_bg_bn_gfxPal
 .rodata        0x0802132c      0x820 green_sprite_bn_gfx.o
                0x0802132c                green_sprite_bn_gfxTiles
                0x08021b2c                green_sprite_bn_gfxPal
 .rodata        0x08021b4c      0x820 ninja_bn_gfx.o
                0x08021b4c                ninja_bn_gfxTiles
                0x0802234c                ninja_bn_gfxPal
 .rodata        0x0802236c     0x13c0 red_bg_bn_gfx.o
                0x0802236c                red_bg_bn_gfxTiles
                0x08022f0c                red_bg_bn_gfxMap
                0x0802370c                red_bg_bn_gfxPal
 .rodata        0x0802372c      0x820 red_sprite_bn_gfx.o
                0x0802372c                red_sprite_bn_gfxTiles
                0x08023f2c                red_sprite_bn_gfxPal
 .rodata        0x08023f4c     0x13c0 yellow_bg_bn_gfx.o
                0x08023f4c                yellow_bg_bn_gfxTiles
                0x08024aec                yellow_bg_bn_gfxMap
                0x080252ec                yellow_bg_bn_gfxPal
 .rodata        0x0802530c      0x820 yellow_sprite_bn_gfx.o
                0x0802530c                yellow_sprite_bn_gfxTiles
                0x08025b0c                yellow_sprite_bn_gfxPal
 .rodata        0x08025b2c     0x1ba0 common_variable_8x16_font_bn_gfx.o
                0x08025b2c                common_variable_8x16_font_bn_gfxTiles
                0x080276ac                common_variable_8x16_font_bn_gfxPal
 .rodata        0x080276cc      0x1d0 main.o
 .rodata        0x0802789c       0x28 bn_sprites_manager.o
 .rodata        0x080278c4        0x6 bn_sprite_text_generator.o
 *fill*         0x080278ca        0x2 ff
 .rodata        0x080278cc       0x10 bn_sprite_tiles_manager.o
 .rodata        0x080278dc       0x90 gbt_player.o
 .rodata        0x0802796c      0xef8 verdana9.o
                0x0802796c                verdana9Font
                0x08027984                verdana9Glyphs
                0x08028784                verdana9Widths
 *all.rodata*(*)
 *(.roda)
 *(.rodata.*)
 .rodata._bn_audio_soundbank_bin
                0x08028864        0xc _bn_audio_soundbank.bin.o
                0x08028864                _bn_audio_soundbank_bin
                0x08028870                _bn_audio_soundbank_bin_end
 .rodata._ZN12_GLOBAL__N_130sprites_position_actions_sceneERN2bn21sprite_text_generatorE.str1.4
                0x08028870     0x2d85 main.o
                                 0x34 (size before relaxing)
 .rodata._ZN12_GLOBAL__N_122sprites_position_sceneERN2bn21sprite_text_generatorE.str1.4
                0x0802b5f5       0x11 main.o
 .rodata._ZN12_GLOBAL__N_123sprites_animation_sceneERN2bn21sprite_text_generatorE.str1.4
                0x0802b5f5       0x12 main.o
 .rodata._ZN12_GLOBAL__N_126sprites_position_hbe_sceneERN2bn21sprite_text_generatorE.str1.4
                0x0802b5f5       0x20 main.o
 .rodata._ZN12_GLOBAL__N_143sprites_regular_second_attributes_hbe_sceneERN2bn21sprite_text_generatorE.str1.4
                0x0802b5f5       0x57 main.o
 .rodata._ZN12_GLOBAL__N_142sprites_affine_second_attributes_hbe_sceneERN2bn21sprite_text_generatorE.str1.4
                0x0802b5f5       0x7b main.o
 .rodata._ZN12_GLOBAL__N_134sprites_third_attributes_hbe_sceneERN2bn21sprite_text_generatorE.str1.4
                0x0802b5f5       0x20 main.o
 .rodata._ZN12_GLOBAL__N_134sprites_first_attributes_hbe_sceneERN2bn21sprite_text_generatorE.str1.4
                0x0802b5f5       0x8d main.o
 .rodata.main.str1.4
                0x0802b5f5      0x1ef main.o
 .rodata.str1.4
                0x0802b5f5      0x3f8 main.o
 *fill*         0x0802b5f5        0x3 ff
 .rodata._ZN6commonL25variable_8x16_sprite_fontE
                0x0802b5f8       0x34 main.o
 .rodata._ZN6commonL45variable_8x16_sprite_font_utf8_characters_mapE
                0x0802b62c      0x100 main.o
 .rodata._ZN6commonL42variable_8x16_sprite_font_character_widthsE
                0x0802b72c       0x6f main.o
 *fill*         0x0802b79b        0x1 ff
 .rodata._ZN2bn16regular_bg_items9yellow_bgE
                0x0802b79c       0x28 main.o
                0x0802b79c                bn::regular_bg_items::yellow_bg
 .rodata._ZN2bn16regular_bg_items8green_bgE
                0x0802b7c4       0x28 main.o
                0x0802b7c4                bn::regular_bg_items::green_bg
 .rodata._ZN2bn16regular_bg_items7blue_bgE
                0x0802b7ec       0x28 main.o
                0x0802b7ec                bn::regular_bg_items::blue_bg
 .rodata._ZN2bn16regular_bg_items6red_bgE
                0x0802b814       0x28 main.o
                0x0802b814                bn::regular_bg_items::red_bg
 .rodata._ZN2bn12sprite_items13yellow_spriteE
                0x0802b83c       0x1c main.o
                0x0802b83c                bn::sprite_items::yellow_sprite
 .rodata._ZN2bn12sprite_items12green_spriteE
                0x0802b858       0x1c main.o
                0x0802b858                bn::sprite_items::green_sprite
 .rodata._ZN2bn12sprite_items11blue_spriteE
                0x0802b874       0x1c main.o
                0x0802b874                bn::sprite_items::blue_sprite
 .rodata._ZN2bn12sprite_items10red_spriteE
                0x0802b890       0x1c main.o
                0x0802b890                bn::sprite_items::red_sprite
 .rodata._ZN2bn12sprite_items7cavemanE
                0x0802b8ac       0x1c main.o
                0x0802b8ac                bn::sprite_items::caveman
 .rodata._ZN2bn12sprite_items5ninjaE
                0x0802b8c8       0x1c main.o
                0x0802b8c8                bn::sprite_items::ninja
 .rodata._ZN6common4infoC2ERKN2bn11string_viewERKNS1_4spanIS3_EERNS1_21sprite_text_generatorE.str1.4
                0x0802b8e4       0x26 common_info.o
 .rodata._ZN2bn13audio_manager10play_musicENS_10music_itemENS_7fixed_tILi12EEEb.str1.4
                0x0802b8e4       0x49 bn_audio_manager.o
 .rodata._ZN2bn9dmg_music8positionEv.str1.4
                0x0802b8e4       0x31 bn_audio_manager.o
 .rodata._ZN2bn9dmg_music12set_positionEii.str1.4
                0x0802b8e4       0x76 bn_audio_manager.o
 .rodata._ZN2bn13audio_manager16execute_commandsEv.str1.4
                0x0802b8e4       0x5e bn_audio_manager.o
 .rodata._ZN2bn13audio_manager16execute_commandsEv
                0x0802b8e4       0x64 bn_audio_manager.o
 .rodata._ZN2bn18best_fit_allocatorD2Ev.str1.4
                0x0802b948       0x4b bn_best_fit_allocator.o
 .rodata._ZN2bn18best_fit_allocator5allocEi.str1.4
                0x0802b948       0x24 bn_best_fit_allocator.o
 .rodata._ZN2bn18best_fit_allocator5resetEPvi.str1.4
                0x0802b948       0x81 bn_best_fit_allocator.o
 .rodata._ZN2bn17bg_blocks_manager10log_statusEv.str1.4
                0x0802b948      0x125 bn_bg_blocks_manager.o
 .rodata._ZNK2bn19regular_bg_map_item10decompressENS_4spanItEE.str1.4
                0x0802b948      0x107 bn_bg_blocks_manager.o
 .rodata._ZN2bn17bg_blocks_manager12_GLOBAL__N_116_find_tiles_implEPKtNS_16compression_typeEib.str1.4
                0x0802b948       0x5a bn_bg_blocks_manager.o
 .rodata._ZN2bn17bg_blocks_manager12_GLOBAL__N_117_fix_blocks_countERKNS1_9item_typeEi.str1.4
                0x0802b948       0x12 bn_bg_blocks_manager.o
 .rodata._ZN2bn17bg_blocks_manager17regular_map_tilesEi.str1.4
                0x0802b948       0x32 bn_bg_blocks_manager.o
 .rodata._ZN2bn17bg_blocks_manager14palette_offsetEi.str1.4
                0x0802b948        0xb bn_bg_blocks_manager.o
 .rodata._ZN2bn17bg_blocks_manager21set_regular_map_tilesEiONS_20regular_bg_tiles_ptrE.str1.4
                0x0802b948       0x82 bn_bg_blocks_manager.o
 .rodata._ZN2bn17bg_blocks_manager23set_regular_map_paletteEiONS_14bg_palette_ptrE.str1.4
                0x0802b948       0x8e bn_bg_blocks_manager.o
 .rodata._ZN2bn17bg_blocks_manager12_GLOBAL__N_112_create_itemEiibONS1_11create_dataE.str1.4
                0x0802b948       0x31 bn_bg_blocks_manager.o
 .rodata._ZN2bn17bg_blocks_manager20create_regular_tilesERKNS_21regular_bg_tiles_itemEb.str1.4
                0x0802b948       0x90 bn_bg_blocks_manager.o
 .rodata._ZN2bn17affine_bg_map_ptr4findERKNS_18affine_bg_map_itemERKNS_19affine_bg_tiles_ptrERKNS_14bg_palette_ptrEi.str1.4
                0x0802b948       0x98 bn_bg_blocks_manager.o
 .rodata._ZN2bn17bg_blocks_manager17create_affine_mapERKNS_18affine_bg_map_itemEPKhONS_19affine_bg_tiles_ptrEONS_14bg_palette_ptrEb.str1.4
                0x0802b948      0x12b bn_bg_blocks_manager.o
 .rodata._ZN2bn17bg_blocks_manager20allocate_regular_mapERKNS_4sizeEONS_20regular_bg_tiles_ptrEONS_14bg_palette_ptrEb.str1.4
                0x0802b948      0x134 bn_bg_blocks_manager.o
 .rodata._ZN2bn18regular_bg_map_ptr13set_cells_refERKNS_19regular_bg_map_itemEi.str1.4
                0x0802b948       0x19 bn_bg_blocks_manager.o
 .rodata._ZN2bn17bg_blocks_manager33set_regular_map_tiles_and_paletteEiONS_20regular_bg_tiles_ptrEONS_14bg_palette_ptrE.str1.4
                0x0802b948       0x99 bn_bg_blocks_manager.o
 .rodata._ZN2bn17bg_blocks_manager12_GLOBAL__N_122_find_regular_map_implERKNS_19regular_bg_map_itemEPKtRKNS_20regular_bg_tiles_ptrERKNS_14bg_palette_ptrE.str1.4
                0x0802b948       0x17 bn_bg_blocks_manager.o
 .rodata._ZN2bn17bg_blocks_manager18create_regular_mapERKNS_19regular_bg_map_itemEPKtONS_20regular_bg_tiles_ptrEONS_14bg_palette_ptrEb.str1.4
                0x0802b948       0x32 bn_bg_blocks_manager.o
 .rodata.str1.4
                0x0802b948       0x21 bn_bg_blocks_manager.o
 .rodata._ZN2bn17bg_blocks_manager12_GLOBAL__N_1L19_status_log_messageE
                0x0802b948        0x8 bn_bg_blocks_manager.o
 .rodata._ZN2bn11bgs_manager10dimensionsEPv.str1.4
                0x0802b950       0x4d bn_bgs_manager.o
 .rodata._ZN2bn17affine_bg_builderC2ERKNS_14affine_bg_itemEi.str1.4
                0x0802b950       0x68 bn_bgs_manager.o
 .rodata._ZN2bn17affine_bg_builder12set_priorityEi.str1.4
                0x0802b950       0x57 bn_bgs_manager.o
 .rodata._ZN2bn11bgs_manager15rebuild_handlesEv.part.0.str1.4
                0x0802b950       0x67 bn_bgs_manager.o
 .rodata._ZN2bn18regular_bg_builder11release_mapEv.str1.4
                0x0802b950       0x32 bn_bgs_manager.o
 .rodata._ZNK2bn18regular_bg_builder11_dimensionsEv.str1.4
                0x0802b950        0xb bn_bgs_manager.o
 .rodata._ZN2bn11bgs_manager37fill_hblank_effect_regular_attributesEPvPKNS_21regular_bg_attributesEPt.str1.4
                0x0802b950       0x41 bn_bgs_manager.o
 .rodata._ZN2bn11bgs_manager15set_regular_mapEPvRKNS_18regular_bg_map_ptrE.str1.4
                0x0802b950       0x3e bn_bgs_manager.o
 .rodata._ZN2bn11bgs_manager36fill_hblank_effect_affine_attributesEPvPKNS_20affine_bg_attributesEPt.str1.4
                0x0802b950       0x25 bn_bgs_manager.o
 .rodata._ZN2bn11bgs_manager12_GLOBAL__N_112_insert_itemERNS1_9item_typeE.str1.4
                0x0802b950       0x6e bn_bgs_manager.o
 .rodata._ZN2bn11bgs_manager15create_optionalEONS_18regular_bg_builderE.str1.4
                0x0802b950       0x34 bn_bgs_manager.o
 .rodata._ZN2bn11bgs_manager6createEONS_17affine_bg_builderE.str1.4
                0x0802b950       0x1b bn_bgs_manager.o
 .rodata._ZN2bn5eraseIPNS_11bgs_manager12_GLOBAL__N_19item_typeEEENS_7ivectorIT_E9size_typeERS7_RKS6_.constprop.0.isra.0.str1.4
                0x0802b950       0x6f bn_bgs_manager.o
 .rodata._ZN2bn11bgs_manager15decrease_usagesEPv.str1.4
                0x0802b950       0x29 bn_bgs_manager.o
 .rodata._ZN2bn4core4initERKNS_8optionalINS_5colorEEERKNS_11string_viewE.str1.4
                0x0802b950        0xb bn_core.o
 .rodata._ZN2bn11string_viewC2EPKc.str1.4
                0x0802b950       0x38 bn_core.o
 .rodata._ZN2bn8blending27set_transparency_attributesERKNS_32blending_transparency_attributesE.str1.4
                0x0802b950       0x76 bn_display_manager.o
 .rodata._ZN2bn8blending22set_transparency_alphaENS_7fixed_tILi12EEE.str1.4
                0x0802b950       0x69 bn_display_manager.o
 .rodata._ZN2bn14sprites_mosaic22set_horizontal_stretchENS_7fixed_tILi12EEE.str1.4
                0x0802b950       0x18 bn_display_manager.o
 .rodata._ZN2bn10bgs_mosaic11set_stretchENS_7fixed_tILi12EEES2_.str1.4
                0x0802b950        0xc bn_display_manager.o
 .rodata._ZN2bn10bgs_mosaic11set_stretchENS_7fixed_tILi12EEE.str1.4
                0x0802b950       0x32 bn_display_manager.o
 .rodata._ZN2bn22hblank_effects_manager12_GLOBAL__N_110_is_uint32ENS0_12handler_typeE.str1.4
                0x0802b950       0x42 bn_hblank_effects_manager.o
 .rodata._ZN2bn22hblank_effects_manager12_GLOBAL__N_19item_type7cleanupEv.str1.4
                0x0802b950        0x8 bn_hblank_effects_manager.o
 .rodata._ZN2bn22hblank_effects_manager12_GLOBAL__N_19item_type7cleanupEv
                0x0802b950       0xa4 bn_hblank_effects_manager.o
 .rodata._ZN2bn22hblank_effects_manager12_GLOBAL__N_126_update_visible_item_indexEi.str1.4
                0x0802b9f4        0x5 bn_hblank_effects_manager.o
 .rodata._ZN2bn22hblank_effects_manager12_GLOBAL__N_19item_type12check_updateEv.str1.4
                0x0802b9f4      0x155 bn_hblank_effects_manager.o
 .rodata._ZN2bn22hblank_effects_manager12_GLOBAL__N_19item_type12check_updateEv
                0x0802b9f4       0xa4 bn_hblank_effects_manager.o
 .rodata._ZN2bn22hblank_effects_manager6updateEv.str1.4
                0x0802ba98       0x25 bn_hblank_effects_manager.o
 .rodata._ZN2bn22hblank_effects_manager12_GLOBAL__N_17_createEPKviNS0_12handler_typeEb.str1.4
                0x0802ba98       0x95 bn_hblank_effects_manager.o
 .rodata._ZN2bn22hblank_effects_manager12_GLOBAL__N_17_createEPKviNS0_12handler_typeEb
                0x0802ba98       0xa4 bn_hblank_effects_manager.o
 .rodata._ZN2bn22hblank_effects_manager6createEPKviiNS0_12handler_typeE.str1.4
                0x0802bb3c       0x47 bn_hblank_effects_manager.o
 .rodata._ZN2bn22hblank_effects_manager4initEv.str1.4
                0x0802bb3c       0x27 bn_hblank_effects_manager.o
 .rodata._ZN2bn14keypad_manager6updateEv.str1.4
                0x0802bb3c       0x5b bn_keypad_manager.o
 .rodata._ZN2bn14keypad_manager4initERKNS_11string_viewE.str1.4
                0x0802bb3c       0x54 bn_keypad_manager.o
 .rodata._ZNK2bn13palettes_bank10log_statusEv.str1.4
                0x0802bb3c       0x60 bn_palettes_manager.o
 .rodata._ZNK2bn13palettes_bank6colorsEi.str1.4
                0x0802bb3c       0x33 bn_palettes_manager.o
 .rodata._ZN2bn13palettes_bank11colors_hashERKNS_4spanIKNS_5colorEEE.str1.4
                0x0802bb3c       0x53 bn_palettes_manager.o
 .rodata._ZN2bn13palettes_bank12create_bpp_8ERKNS_4spanIKNS_5colorEEENS_16compression_typeEb.str1.4
                0x0802bb3c       0xcb bn_palettes_manager.o
 .rodata._ZN2bn13palettes_bank16set_rotate_countEii.str1.4
                0x0802bb3c       0x4c bn_palettes_manager.o
 .rodata._ZNK2bn19sprite_palette_item10decompressENS_4spanINS_5colorEEE.str1.4
                0x0802bb3c      0x107 bn_palettes_manager.o
 .rodata._ZNK2bn15bg_palette_item10decompressENS_4spanINS_5colorEEE.str1.4
                0x0802bb3c       0x19 bn_palettes_manager.o
 .rodata._ZN2bn14iunordered_mapItsNS_15identity_hasherENS_8equal_toItEEE21insert_or_assign_hashEjOSt4pairIKtsE.isra.0.str1.4
                0x0802bb3c       0x66 bn_palettes_manager.o
 .rodata._ZN2bn13palettes_bank12create_bpp_4ERKNS_4spanIKNS_5colorEEEtb.str1.4
                0x0802bb3c       0x3b bn_palettes_manager.o
 .rodata._ZN2bn26sprite_affine_mats_manager22reserve_sprite_handlesEi.str1.4
                0x0802bb3c       0x72 bn_sprite_affine_mats_manager.o
 .rodata._ZN2bn26sprite_affine_mats_manager18set_rotation_angleEiNS_7fixed_tILi12EEE.str1.4
                0x0802bb3c       0x76 bn_sprite_affine_mats_manager.o
 .rodata._ZN2bn26sprite_affine_mats_manager20set_horizontal_scaleEiNS_7fixed_tILi12EEE.str1.4
                0x0802bb3c       0x67 bn_sprite_affine_mats_manager.o
 .rodata._ZN2bn26sprite_affine_mats_manager18set_vertical_scaleEiNS_7fixed_tILi12EEE.str1.4
                0x0802bb3c       0x41 bn_sprite_affine_mats_manager.o
 .rodata._ZN2bn26sprite_affine_mats_manager9set_scaleEiNS_7fixed_tILi12EEES2_.str1.4
                0x0802bb3c        0xa bn_sprite_affine_mats_manager.o
 .rodata._ZN2bn26sprite_affine_mats_manager9set_scaleEiNS_7fixed_tILi12EEE.str1.4
                0x0802bb3c       0x1c bn_sprite_affine_mats_manager.o
 .rodata._ZN2bn26sprite_affine_mats_manager12_GLOBAL__N_115_new_item_indexEv.str1.4
                0x0802bb3c       0x69 bn_sprite_affine_mats_manager.o
 .rodata._ZN2bn26sprite_affine_mats_manager6createERKNS_21affine_mat_attributesE.str1.4
                0x0802bb3c       0x2d bn_sprite_affine_mats_manager.o
 .rodata._ZN2bn26sprite_affine_mats_manager15decrease_usagesEi.part.0.str1.4
                0x0802bb3c       0x1b bn_sprite_affine_mats_manager.o
 .rodata._ZN2bn26sprite_affine_mats_manager14dettach_spriteEiRNS_24intrusive_list_node_typeE.str1.4
                0x0802bb3c       0x22 bn_sprite_affine_mats_manager.o
 .rodata._ZN2bn22isprite_animate_action16set_wait_updatesEi.str1.4
                0x0802bb3c       0xb8 bn_sprite_animate_actions.o
 .rodata._ZN2bn22isprite_animate_action24_assign_graphics_indexesERKNS_4spanIKtEE.str1.4
                0x0802bb3c       0xc7 bn_sprite_animate_actions.o
 .rodata._ZN2bn29isprite_cached_animate_action24_assign_graphics_indexesERKNS_17sprite_tiles_itemERKNS_4spanIKtEE.str1.4
                0x0802bb3c       0x5c bn_sprite_animate_actions.o
 .rodata._ZN2bn29isprite_cached_animate_action6updateEv.str1.4
                0x0802bb3c       0x5c bn_sprite_animate_actions.o
 .rodata._ZN2bn14sprite_builder20set_blending_enabledEb.str1.4
                0x0802bb3c       0x6a bn_sprites_manager.o
 .rodata._ZN2bn14sprite_builder18set_window_enabledEb.str1.4
                0x0802bb3c       0x13 bn_sprites_manager.o
 .rodata._ZN2bn15sprites_manager20set_blending_enabledEPvb.str1.4
                0x0802bb3c       0x17 bn_sprites_manager.o
 .rodata._ZN2bn15sprites_manager16first_attributesEPv.str1.4
                0x0802bb3c       0x35 bn_sprites_manager.o
 .rodata._ZNK2bn17sprite_shape_size6heightEv.isra.0.str1.4
                0x0802bb3c       0x40 bn_sprites_manager.o
 .rodata._ZNK2bn17sprite_shape_size5widthEv.isra.0.str1.4
                0x0802bb3c        0x6 bn_sprites_manager.o
 .rodata._ZN2bn15sprites_manager12_GLOBAL__N_118_remove_affine_matERNS_20sprites_manager_itemE.str1.4
                0x0802bb3c       0x32 bn_sprites_manager.o
 .rodata._ZN2bn20sprites_manager_item13_builder_initERKNS_14sprite_builderE.str1.4
                0x0802bb3c       0x53 bn_sprites_manager.o
 .rodata._ZN2bn14sprite_builder11set_z_orderEi.str1.4
                0x0802bb3c       0x66 bn_sprites_manager.o
 .rodata._ZN2bn14sprite_builderC2ERKNS_17sprite_shape_sizeENS_16sprite_tiles_ptrENS_18sprite_palette_ptrE.str1.4
                0x0802bb3c       0x6e bn_sprites_manager.o
 .rodata._ZN2bn15sprites_manager9set_tilesEPvRKNS_16sprite_tiles_ptrE.str1.4
                0x0802bb3c       0x65 bn_sprites_manager.o
 .rodata._ZN2bn14sprite_builder15set_bg_priorityEi.str1.4
                0x0802bb3c       0x66 bn_sprites_manager.o
 .rodata._ZN2bn23sprite_third_attributesC2ENS_16sprite_tiles_ptrENS_18sprite_palette_ptrEi.str1.4
                0x0802bb3c       0x39 bn_sprites_manager.o
 .rodata._ZN2bn15sprites_manager6updateEv.str1.4
                0x0802bb3c       0x2f bn_sprites_manager.o
 .rodata._ZN2bn15sprites_manager21set_tiles_and_paletteEPvRKNS_17sprite_shape_sizeEONS_16sprite_tiles_ptrEONS_18sprite_palette_ptrE.str1.4
                0x0802bb3c       0x73 bn_sprites_manager.o
 .rodata._ZN2bn15sprites_manager25regular_second_attributesEPv.str1.4
                0x0802bb3c       0x30 bn_sprites_manager.o
